TMS320C2000 Assembler PC v6.4.9 Wed Dec 02 15:59:04 2015

Tools Copyright (c) 1996-2015 Texas Instruments Incorporated
C:\Users\ywcheng\AppData\Local\Temp\1536410                          PAGE    1

       1              ;***************************************************************
       2              ;* TMS320C2000 C/C++ Codegen                         PC v6.4.9 *
       3              ;* Date/Time created: Wed Dec 02 15:59:04 2015                 *
       4              ;***************************************************************
       5                      .compiler_opts --float_support=softlib --hll_source=on --mem_model:code=flat --mem_model:data=large -
       6        0002  FP      .set    XAR2
       7              
       8              $C$DW$CU        .dwtag  DW_TAG_compile_unit
       9                      .dwattr $C$DW$CU, DW_AT_name("C:/ti/motorware/motorware_1_01_00_15/sw/solutions/instaspin_foc/src/pro
      10                      .dwattr $C$DW$CU, DW_AT_producer("TI TMS320C2000 C/C++ Codegen PC v6.4.9 Copyright (c) 1996-2015 Texa
      11                      .dwattr $C$DW$CU, DW_AT_TI_version(0x01)
      12                      .dwattr $C$DW$CU, DW_AT_comp_dir("C:\ti\motorware\motorware_1_01_00_15\sw\solutions\instaspin_foc\boa
      13              ;**************************************************************
      14              ;* CINIT RECORDS                                              *
      15              ;**************************************************************
      16 00000000               .sect   ".cinit"
      17                      .align  1
      18 00000000 FFFE          .field          -2,16
      19 00000001 0000-         .field          _gLEDcnt+0,32
         00000002 0000 
      20 00000003 0000          .bits   0,32                    ; _gLEDcnt @ 0
         00000004 0000 
      21              
      22 00000005               .sect   ".cinit"
      23                      .align  1
      24 00000005 FFFA          .field          -$C$IR_1,16
      25 00000006 0002-         .field          _gPwmData+0,32
         00000007 0000 
      26 00000008 0000          .bits   0,32                    ; _gPwmData._Tabc._value[0] @ 0
         00000009 0000 
      27 0000000a 0000          .bits   0,32                    ; _gPwmData._Tabc._value[1] @ 32
         0000000b 0000 
      28 0000000c 0000          .bits   0,32                    ; _gPwmData._Tabc._value[2] @ 64
         0000000d 0000 
      29        0006  $C$IR_1:        .set    6
      30              
      31 0000000e               .sect   ".cinit"
      32                      .align  1
      33 0000000e FFF2          .field          -$C$IR_2,16
      34 0000000f 0008-         .field          _gAdcData+0,32
         00000010 0000 
      35 00000011 0000          .bits   0,32                    ; _gAdcData._I._value[0] @ 0
         00000012 0000 
      36 00000013 0000          .bits   0,32                    ; _gAdcData._I._value[1] @ 32
         00000014 0000 
      37 00000015 0000          .bits   0,32                    ; _gAdcData._I._value[2] @ 64
         00000016 0000 
      38 00000017 0000          .bits   0,32                    ; _gAdcData._V._value[0] @ 96
         00000018 0000 
      39 00000019 0000          .bits   0,32                    ; _gAdcData._V._value[1] @ 128
         0000001a 0000 
      40 0000001b 0000          .bits   0,32                    ; _gAdcData._V._value[2] @ 160
         0000001c 0000 
      41 0000001d 0000          .bits   0,32                    ; _gAdcData._dcBus @ 192
         0000001e 0000 
TMS320C2000 Assembler PC v6.4.9 Wed Dec 02 15:59:04 2015

Tools Copyright (c) 1996-2015 Texas Instruments Incorporated
C:\Users\ywcheng\AppData\Local\Temp\1536410                          PAGE    2

      42        000E  $C$IR_2:        .set    14
      43              
      44 0000001f               .sect   ".cinit"
      45                      .align  1
      46 0000001f FF98          .field          -$C$IR_3,16
      47 00000020 0040-         .field          _gMotorVars+0,32
         00000021 0000 
      48 00000022 0000          .bits   0,16                    ; _gMotorVars._Flag_enableSys @ 0
      49 00000023 0000          .bits   0,16                    ; _gMotorVars._Flag_Run_Identify @ 16
      50 00000024 0000          .bits   0,16                    ; _gMotorVars._Flag_MotorIdentified @ 32
      51 00000025 0001          .bits   1,16                    ; _gMotorVars._Flag_enableForceAngle @ 48
      52 00000026 0000          .bits   0,16                    ; _gMotorVars._Flag_enableFieldWeakening @ 64
      53 00000027 0000          .bits   0,16                    ; _gMotorVars._Flag_enableRsRecalc @ 80
      54 00000028 0001          .bits   1,16                    ; _gMotorVars._Flag_enableUserParams @ 96
      55 00000029 0001          .bits   1,16                    ; _gMotorVars._Flag_enableOffsetcalc @ 112
      56 0000002a 0000          .bits   0,16                    ; _gMotorVars._Flag_enablePowerWarp @ 128
      57 0000002b 0000          .bits   0,16                    ; _gMotorVars._Flag_enableSpeedCtrl @ 144
      58 0000002c 0001          .bits   1,16                    ; _gMotorVars._CtrlState @ 160
      59 0000002d 0001          .bits   1,16                    ; _gMotorVars._EstState @ 176
      60 0000002e 0000          .bits   0,16                    ; _gMotorVars._UserErrorCode @ 192
      61 0000002f 0000          .bits   0,16                    ; _gMotorVars._CtrlVersion._rsvd @ 208
      62 00000030 0004          .bits   4,16                    ; _gMotorVars._CtrlVersion._targetProc @ 224
      63 00000031 0000          .bits   0,16                    ; _gMotorVars._CtrlVersion._major @ 240
      64 00000032 0000          .bits   0,16                    ; _gMotorVars._CtrlVersion._minor @ 256
      65 00000033               .space  16
      66 00000034 0000          .bits   0,32                    ; _gMotorVars._IdRef_A @ 288
         00000035 0000 
      67 00000036 0000          .bits   0,32                    ; _gMotorVars._IqRef_A @ 320
         00000037 0000 
      68 00000038 0000          .bits   0,32                    ; _gMotorVars._SpeedRef_pu @ 352
         00000039 0000 
      69 0000003a 9999          .bits   1677721,32                      ; _gMotorVars._SpeedRef_krpm @ 384
         0000003b 0019 
      70 0000003c 0000          .bits   0,32                    ; _gMotorVars._SpeedTraj_krpm @ 416
         0000003d 0000 
      71 0000003e 3333          .bits   3355443,32                      ; _gMotorVars._MaxAccel_krpmps @ 448
         0000003f 0033 
      72 00000040 0000          .bits   0,32                    ; _gMotorVars._Speed_krpm @ 480
         00000041 0000 
      73 00000042 AAAB          .bits   11184811,32                     ; _gMotorVars._OverModulation @ 512
         00000043 00AA 
      74 00000044 CAC0          .bits   6408896,32                      ; _gMotorVars._RsOnLineCurrent_A @ 544
         00000045 0061 
      75 00000046 0190          .bits   400,32                  ; _gMotorVars._SvgenMaxModulation_ticks @ 576
         00000047 0000 
      76 00000048 0000          .bits   0,32                    ; _gMotorVars._Flux_Wb @ 608
         00000049 0000 
      77 0000004a 0000          .bits   0,32                    ; _gMotorVars._Torque_Nm @ 640
         0000004b 0000 
      78 0000004c 0000          .xfloat $strtod("0x0p+0")               ; _gMotorVars._MagnCurr_A @ 672
         0000004d 0000 
      79 0000004e 0000          .xfloat $strtod("0x0p+0")               ; _gMotorVars._Rr_Ohm @ 704
         0000004f 0000 
      80 00000050 0000          .xfloat $strtod("0x0p+0")               ; _gMotorVars._Rs_Ohm @ 736
         00000051 0000 
TMS320C2000 Assembler PC v6.4.9 Wed Dec 02 15:59:04 2015

Tools Copyright (c) 1996-2015 Texas Instruments Incorporated
C:\Users\ywcheng\AppData\Local\Temp\1536410                          PAGE    3

      81 00000052 0000          .xfloat $strtod("0x0p+0")               ; _gMotorVars._RsOnLine_Ohm @ 768
         00000053 0000 
      82 00000054 0000          .xfloat $strtod("0x0p+0")               ; _gMotorVars._Lsd_H @ 800
         00000055 0000 
      83 00000056 0000          .xfloat $strtod("0x0p+0")               ; _gMotorVars._Lsq_H @ 832
         00000057 0000 
      84 00000058 0000          .xfloat $strtod("0x0p+0")               ; _gMotorVars._Flux_VpHz @ 864
         00000059 0000 
      85 0000005a 0000          .xfloat $strtod("0x0p+0")               ; _gMotorVars._ipd_excFreq_Hz @ 896
         0000005b 0000 
      86 0000005c 0000          .bits   0,32                    ; _gMotorVars._ipd_Kspd @ 928
         0000005d 0000 
      87 0000005e 0000          .bits   0,32                    ; _gMotorVars._ipd_excMag_coarse_pu @ 960
         0000005f 0000 
      88 00000060 0000          .bits   0,32                    ; _gMotorVars._ipd_excMag_fine_pu @ 992
         00000061 0000 
      89 00000062 0000          .xfloat $strtod("0x0p+0")               ; _gMotorVars._ipd_waitTime_coarse_sec @ 1024
         00000063 0000 
      90 00000064 0000          .xfloat $strtod("0x0p+0")               ; _gMotorVars._ipd_waitTime_fine_sec @ 1056
         00000065 0000 
      91 00000066 0000          .bits   0,32                    ; _gMotorVars._Kp_spd @ 1088
         00000067 0000 
      92 00000068 0000          .bits   0,32                    ; _gMotorVars._Ki_spd @ 1120
         00000069 0000 
      93 0000006a 0000          .bits   0,32                    ; _gMotorVars._Kp_Idq @ 1152
         0000006b 0000 
      94 0000006c 0000          .bits   0,32                    ; _gMotorVars._Ki_Idq @ 1184
         0000006d 0000 
      95 0000006e 0000          .bits   0,32                    ; _gMotorVars._Vd @ 1216
         0000006f 0000 
      96 00000070 0000          .bits   0,32                    ; _gMotorVars._Vq @ 1248
         00000071 0000 
      97 00000072 0000          .bits   0,32                    ; _gMotorVars._Vs @ 1280
         00000073 0000 
      98 00000074 8889          .bits   8947849,32                      ; _gMotorVars._VsRef @ 1312
         00000075 0088 
      99 00000076 0000          .bits   0,32                    ; _gMotorVars._VdcBus_kV @ 1344
         00000077 0000 
     100 00000078 0000          .bits   0,32                    ; _gMotorVars._Id_A @ 1376
         00000079 0000 
     101 0000007a 0000          .bits   0,32                    ; _gMotorVars._Iq_A @ 1408
         0000007b 0000 
     102 0000007c 0000          .bits   0,32                    ; _gMotorVars._Is_A @ 1440
         0000007d 0000 
     103 0000007e 0000          .bits   0,32                    ; _gMotorVars._I_bias._value[0] @ 1472
         0000007f 0000 
     104 00000080 0000          .bits   0,32                    ; _gMotorVars._I_bias._value[1] @ 1504
         00000081 0000 
     105 00000082 0000          .bits   0,32                    ; _gMotorVars._I_bias._value[2] @ 1536
         00000083 0000 
     106 00000084 0000          .bits   0,32                    ; _gMotorVars._V_bias._value[0] @ 1568
         00000085 0000 
     107 00000086 0000          .bits   0,32                    ; _gMotorVars._V_bias._value[1] @ 1600
         00000087 0000 
     108 00000088 0000          .bits   0,32                    ; _gMotorVars._V_bias._value[2] @ 1632
TMS320C2000 Assembler PC v6.4.9 Wed Dec 02 15:59:04 2015

Tools Copyright (c) 1996-2015 Texas Instruments Incorporated
C:\Users\ywcheng\AppData\Local\Temp\1536410                          PAGE    4

         00000089 0000 
     109        0068  $C$IR_3:        .set    104
     110              
     111              
     112              $C$DW$1 .dwtag  DW_TAG_subprogram, DW_AT_name("HAL_enableGlobalInts")
     113                      .dwattr $C$DW$1, DW_AT_TI_symbol_name("_HAL_enableGlobalInts")
     114                      .dwattr $C$DW$1, DW_AT_declaration
     115                      .dwattr $C$DW$1, DW_AT_external
     116              $C$DW$2 .dwtag  DW_TAG_formal_parameter
     117                      .dwattr $C$DW$2, DW_AT_type(*$C$DW$T$147)
     118                      .dwendtag $C$DW$1
     119              
     120              
     121              $C$DW$3 .dwtag  DW_TAG_subprogram, DW_AT_name("HAL_enableDebugInt")
     122                      .dwattr $C$DW$3, DW_AT_TI_symbol_name("_HAL_enableDebugInt")
     123                      .dwattr $C$DW$3, DW_AT_declaration
     124                      .dwattr $C$DW$3, DW_AT_external
     125              $C$DW$4 .dwtag  DW_TAG_formal_parameter
     126                      .dwattr $C$DW$4, DW_AT_type(*$C$DW$T$147)
     127                      .dwendtag $C$DW$3
     128              
     129              
     130              $C$DW$5 .dwtag  DW_TAG_subprogram, DW_AT_name("HAL_setupFaults")
     131                      .dwattr $C$DW$5, DW_AT_TI_symbol_name("_HAL_setupFaults")
     132                      .dwattr $C$DW$5, DW_AT_declaration
     133                      .dwattr $C$DW$5, DW_AT_external
     134              $C$DW$6 .dwtag  DW_TAG_formal_parameter
     135                      .dwattr $C$DW$6, DW_AT_type(*$C$DW$T$147)
     136                      .dwendtag $C$DW$5
     137              
     138              
     139              $C$DW$7 .dwtag  DW_TAG_subprogram, DW_AT_name("HAL_setParams")
     140                      .dwattr $C$DW$7, DW_AT_TI_symbol_name("_HAL_setParams")
     141                      .dwattr $C$DW$7, DW_AT_declaration
     142                      .dwattr $C$DW$7, DW_AT_external
     143              $C$DW$8 .dwtag  DW_TAG_formal_parameter
     144                      .dwattr $C$DW$8, DW_AT_type(*$C$DW$T$147)
     145              $C$DW$9 .dwtag  DW_TAG_formal_parameter
     146                      .dwattr $C$DW$9, DW_AT_type(*$C$DW$T$163)
     147                      .dwendtag $C$DW$7
     148              
     149              
     150              $C$DW$10        .dwtag  DW_TAG_subprogram, DW_AT_name("HAL_enableAdcInts")
     151                      .dwattr $C$DW$10, DW_AT_TI_symbol_name("_HAL_enableAdcInts")
     152                      .dwattr $C$DW$10, DW_AT_declaration
     153                      .dwattr $C$DW$10, DW_AT_external
     154              $C$DW$11        .dwtag  DW_TAG_formal_parameter
     155                      .dwattr $C$DW$11, DW_AT_type(*$C$DW$T$147)
     156                      .dwendtag $C$DW$10
     157              
     158              
     159              $C$DW$12        .dwtag  DW_TAG_subprogram, DW_AT_name("GPIO_toggle")
     160                      .dwattr $C$DW$12, DW_AT_TI_symbol_name("_GPIO_toggle")
     161                      .dwattr $C$DW$12, DW_AT_declaration
     162                      .dwattr $C$DW$12, DW_AT_external
TMS320C2000 Assembler PC v6.4.9 Wed Dec 02 15:59:04 2015

Tools Copyright (c) 1996-2015 Texas Instruments Incorporated
C:\Users\ywcheng\AppData\Local\Temp\1536410                          PAGE    5

     163              $C$DW$13        .dwtag  DW_TAG_formal_parameter
     164                      .dwattr $C$DW$13, DW_AT_type(*$C$DW$T$56)
     165              $C$DW$14        .dwtag  DW_TAG_formal_parameter
     166                      .dwattr $C$DW$14, DW_AT_type(*$C$DW$T$137)
     167                      .dwendtag $C$DW$12
     168              
     169              
     170              $C$DW$15        .dwtag  DW_TAG_subprogram, DW_AT_name("memCopy")
     171                      .dwattr $C$DW$15, DW_AT_TI_symbol_name("_memCopy")
     172                      .dwattr $C$DW$15, DW_AT_declaration
     173                      .dwattr $C$DW$15, DW_AT_external
     174              $C$DW$16        .dwtag  DW_TAG_formal_parameter
     175                      .dwattr $C$DW$16, DW_AT_type(*$C$DW$T$166)
     176              $C$DW$17        .dwtag  DW_TAG_formal_parameter
     177                      .dwattr $C$DW$17, DW_AT_type(*$C$DW$T$166)
     178              $C$DW$18        .dwtag  DW_TAG_formal_parameter
     179                      .dwattr $C$DW$18, DW_AT_type(*$C$DW$T$166)
     180                      .dwendtag $C$DW$15
     181              
     182              
     183              $C$DW$19        .dwtag  DW_TAG_subprogram, DW_AT_name("USER_setParams")
     184                      .dwattr $C$DW$19, DW_AT_TI_symbol_name("_USER_setParams")
     185                      .dwattr $C$DW$19, DW_AT_declaration
     186                      .dwattr $C$DW$19, DW_AT_external
     187              $C$DW$20        .dwtag  DW_TAG_formal_parameter
     188                      .dwattr $C$DW$20, DW_AT_type(*$C$DW$T$125)
     189                      .dwendtag $C$DW$19
     190              
     191              
     192              $C$DW$21        .dwtag  DW_TAG_subprogram, DW_AT_name("USER_checkForErrors")
     193                      .dwattr $C$DW$21, DW_AT_TI_symbol_name("_USER_checkForErrors")
     194                      .dwattr $C$DW$21, DW_AT_declaration
     195                      .dwattr $C$DW$21, DW_AT_external
     196              $C$DW$22        .dwtag  DW_TAG_formal_parameter
     197                      .dwattr $C$DW$22, DW_AT_type(*$C$DW$T$125)
     198                      .dwendtag $C$DW$21
     199              
     200              
     201              $C$DW$23        .dwtag  DW_TAG_subprogram, DW_AT_name("USER_getErrorCode")
     202                      .dwattr $C$DW$23, DW_AT_TI_symbol_name("_USER_getErrorCode")
     203                      .dwattr $C$DW$23, DW_AT_type(*$C$DW$T$89)
     204                      .dwattr $C$DW$23, DW_AT_declaration
     205                      .dwattr $C$DW$23, DW_AT_external
     206              $C$DW$24        .dwtag  DW_TAG_formal_parameter
     207                      .dwattr $C$DW$24, DW_AT_type(*$C$DW$T$125)
     208                      .dwendtag $C$DW$23
     209              
     210              $C$DW$25        .dwtag  DW_TAG_variable, DW_AT_name("RamfuncsLoadEnd")
     211                      .dwattr $C$DW$25, DW_AT_TI_symbol_name("_RamfuncsLoadEnd")
     212                      .dwattr $C$DW$25, DW_AT_type(*$C$DW$T$166)
     213                      .dwattr $C$DW$25, DW_AT_declaration
     214                      .dwattr $C$DW$25, DW_AT_external
     215              $C$DW$26        .dwtag  DW_TAG_variable, DW_AT_name("RamfuncsRunStart")
     216                      .dwattr $C$DW$26, DW_AT_TI_symbol_name("_RamfuncsRunStart")
     217                      .dwattr $C$DW$26, DW_AT_type(*$C$DW$T$166)
TMS320C2000 Assembler PC v6.4.9 Wed Dec 02 15:59:04 2015

Tools Copyright (c) 1996-2015 Texas Instruments Incorporated
C:\Users\ywcheng\AppData\Local\Temp\1536410                          PAGE    6

     218                      .dwattr $C$DW$26, DW_AT_declaration
     219                      .dwattr $C$DW$26, DW_AT_external
     220              $C$DW$27        .dwtag  DW_TAG_variable, DW_AT_name("switch_end")
     221                      .dwattr $C$DW$27, DW_AT_TI_symbol_name("_switch_end")
     222                      .dwattr $C$DW$27, DW_AT_type(*$C$DW$T$166)
     223                      .dwattr $C$DW$27, DW_AT_declaration
     224                      .dwattr $C$DW$27, DW_AT_external
     225              $C$DW$28        .dwtag  DW_TAG_variable, DW_AT_name("RamfuncsLoadStart")
     226                      .dwattr $C$DW$28, DW_AT_TI_symbol_name("_RamfuncsLoadStart")
     227                      .dwattr $C$DW$28, DW_AT_type(*$C$DW$T$166)
     228                      .dwattr $C$DW$28, DW_AT_declaration
     229                      .dwattr $C$DW$28, DW_AT_external
     230              $C$DW$29        .dwtag  DW_TAG_variable, DW_AT_name("econst_ram_load")
     231                      .dwattr $C$DW$29, DW_AT_TI_symbol_name("_econst_ram_load")
     232                      .dwattr $C$DW$29, DW_AT_type(*$C$DW$T$166)
     233                      .dwattr $C$DW$29, DW_AT_declaration
     234                      .dwattr $C$DW$29, DW_AT_external
     235              $C$DW$30        .dwtag  DW_TAG_variable, DW_AT_name("econst_end")
     236                      .dwattr $C$DW$30, DW_AT_TI_symbol_name("_econst_end")
     237                      .dwattr $C$DW$30, DW_AT_type(*$C$DW$T$166)
     238                      .dwattr $C$DW$30, DW_AT_declaration
     239                      .dwattr $C$DW$30, DW_AT_external
     240              $C$DW$31        .dwtag  DW_TAG_variable, DW_AT_name("econst_start")
     241                      .dwattr $C$DW$31, DW_AT_TI_symbol_name("_econst_start")
     242                      .dwattr $C$DW$31, DW_AT_type(*$C$DW$T$166)
     243                      .dwattr $C$DW$31, DW_AT_declaration
     244                      .dwattr $C$DW$31, DW_AT_external
     245              $C$DW$32        .dwtag  DW_TAG_variable, DW_AT_name("switch_start")
     246                      .dwattr $C$DW$32, DW_AT_TI_symbol_name("_switch_start")
     247                      .dwattr $C$DW$32, DW_AT_type(*$C$DW$T$166)
     248                      .dwattr $C$DW$32, DW_AT_declaration
     249                      .dwattr $C$DW$32, DW_AT_external
     250              
     251              $C$DW$33        .dwtag  DW_TAG_subprogram, DW_AT_name("__IQmpy")
     252                      .dwattr $C$DW$33, DW_AT_TI_symbol_name("___IQmpy")
     253                      .dwattr $C$DW$33, DW_AT_type(*$C$DW$T$12)
     254                      .dwattr $C$DW$33, DW_AT_declaration
     255                      .dwattr $C$DW$33, DW_AT_external
     256              $C$DW$34        .dwtag  DW_TAG_formal_parameter
     257                      .dwattr $C$DW$34, DW_AT_type(*$C$DW$T$12)
     258              $C$DW$35        .dwtag  DW_TAG_formal_parameter
     259                      .dwattr $C$DW$35, DW_AT_type(*$C$DW$T$12)
     260              $C$DW$36        .dwtag  DW_TAG_formal_parameter
     261                      .dwattr $C$DW$36, DW_AT_type(*$C$DW$T$10)
     262                      .dwendtag $C$DW$33
     263              
     264              $C$DW$37        .dwtag  DW_TAG_variable, DW_AT_name("switch_ram_load")
     265                      .dwattr $C$DW$37, DW_AT_TI_symbol_name("_switch_ram_load")
     266                      .dwattr $C$DW$37, DW_AT_type(*$C$DW$T$166)
     267                      .dwattr $C$DW$37, DW_AT_declaration
     268                      .dwattr $C$DW$37, DW_AT_external
     269              
     270              $C$DW$38        .dwtag  DW_TAG_subprogram, DW_AT_name("__IQsat")
     271                      .dwattr $C$DW$38, DW_AT_TI_symbol_name("___IQsat")
     272                      .dwattr $C$DW$38, DW_AT_type(*$C$DW$T$12)
TMS320C2000 Assembler PC v6.4.9 Wed Dec 02 15:59:04 2015

Tools Copyright (c) 1996-2015 Texas Instruments Incorporated
C:\Users\ywcheng\AppData\Local\Temp\1536410                          PAGE    7

     273                      .dwattr $C$DW$38, DW_AT_declaration
     274                      .dwattr $C$DW$38, DW_AT_external
     275              $C$DW$39        .dwtag  DW_TAG_formal_parameter
     276                      .dwattr $C$DW$39, DW_AT_type(*$C$DW$T$12)
     277              $C$DW$40        .dwtag  DW_TAG_formal_parameter
     278                      .dwattr $C$DW$40, DW_AT_type(*$C$DW$T$12)
     279              $C$DW$41        .dwtag  DW_TAG_formal_parameter
     280                      .dwattr $C$DW$41, DW_AT_type(*$C$DW$T$12)
     281                      .dwendtag $C$DW$38
     282              
     283              
     284              $C$DW$42        .dwtag  DW_TAG_subprogram, DW_AT_name("HAL_init")
     285                      .dwattr $C$DW$42, DW_AT_TI_symbol_name("_HAL_init")
     286                      .dwattr $C$DW$42, DW_AT_type(*$C$DW$T$147)
     287                      .dwattr $C$DW$42, DW_AT_declaration
     288                      .dwattr $C$DW$42, DW_AT_external
     289              $C$DW$43        .dwtag  DW_TAG_formal_parameter
     290                      .dwattr $C$DW$43, DW_AT_type(*$C$DW$T$3)
     291              $C$DW$44        .dwtag  DW_TAG_formal_parameter
     292                      .dwattr $C$DW$44, DW_AT_type(*$C$DW$T$149)
     293                      .dwendtag $C$DW$42
     294              
     295                      .global _gLEDcnt
     296 00000000       _gLEDcnt:       .usect  ".ebss",2,1,1
     297              $C$DW$45        .dwtag  DW_TAG_variable, DW_AT_name("gLEDcnt")
     298                      .dwattr $C$DW$45, DW_AT_TI_symbol_name("_gLEDcnt")
     299                      .dwattr $C$DW$45, DW_AT_location[DW_OP_addr _gLEDcnt]
     300                      .dwattr $C$DW$45, DW_AT_type(*$C$DW$T$117)
     301                      .dwattr $C$DW$45, DW_AT_external
     302                      .global _halHandle
     303 00000000       _halHandle:     .usect  "rom_accessed_data",2,1,1
     304              $C$DW$46        .dwtag  DW_TAG_variable, DW_AT_name("halHandle")
     305                      .dwattr $C$DW$46, DW_AT_TI_symbol_name("_halHandle")
     306                      .dwattr $C$DW$46, DW_AT_location[DW_OP_addr _halHandle]
     307                      .dwattr $C$DW$46, DW_AT_type(*$C$DW$T$147)
     308                      .dwattr $C$DW$46, DW_AT_external
     309                      .global _gPwmData
     310 00000002       _gPwmData:      .usect  ".ebss",6,1,1
     311              $C$DW$47        .dwtag  DW_TAG_variable, DW_AT_name("gPwmData")
     312                      .dwattr $C$DW$47, DW_AT_TI_symbol_name("_gPwmData")
     313                      .dwattr $C$DW$47, DW_AT_location[DW_OP_addr _gPwmData]
     314                      .dwattr $C$DW$47, DW_AT_type(*$C$DW$T$153)
     315                      .dwattr $C$DW$47, DW_AT_external
     316                      .global _gAdcData
     317 00000008       _gAdcData:      .usect  ".ebss",14,1,1
     318              $C$DW$48        .dwtag  DW_TAG_variable, DW_AT_name("gAdcData")
     319                      .dwattr $C$DW$48, DW_AT_TI_symbol_name("_gAdcData")
     320                      .dwattr $C$DW$48, DW_AT_location[DW_OP_addr _gAdcData]
     321                      .dwattr $C$DW$48, DW_AT_type(*$C$DW$T$78)
     322                      .dwattr $C$DW$48, DW_AT_external
     323                      .global _gMotorVars
     324 00000040       _gMotorVars:    .usect  ".ebss",104,1,1
     325              $C$DW$49        .dwtag  DW_TAG_variable, DW_AT_name("gMotorVars")
     326                      .dwattr $C$DW$49, DW_AT_TI_symbol_name("_gMotorVars")
     327                      .dwattr $C$DW$49, DW_AT_location[DW_OP_addr _gMotorVars]
TMS320C2000 Assembler PC v6.4.9 Wed Dec 02 15:59:04 2015

Tools Copyright (c) 1996-2015 Texas Instruments Incorporated
C:\Users\ywcheng\AppData\Local\Temp\1536410                          PAGE    8

     328                      .dwattr $C$DW$49, DW_AT_type(*$C$DW$T$157)
     329                      .dwattr $C$DW$49, DW_AT_external
     330              $C$DW$50        .dwtag  DW_TAG_variable, DW_AT_name("hal")
     331                      .dwattr $C$DW$50, DW_AT_TI_symbol_name("_hal")
     332                      .dwattr $C$DW$50, DW_AT_type(*$C$DW$T$144)
     333                      .dwattr $C$DW$50, DW_AT_declaration
     334                      .dwattr $C$DW$50, DW_AT_external
     335                      .global _gUserParams
     336 00000040       _gUserParams:   .usect  "rom_accessed_data",172,1,1
     337              $C$DW$51        .dwtag  DW_TAG_variable, DW_AT_name("gUserParams")
     338                      .dwattr $C$DW$51, DW_AT_TI_symbol_name("_gUserParams")
     339                      .dwattr $C$DW$51, DW_AT_location[DW_OP_addr _gUserParams]
     340                      .dwattr $C$DW$51, DW_AT_type(*$C$DW$T$124)
     341                      .dwattr $C$DW$51, DW_AT_external
     342              ;       C:\ti\ccsv6\tools\compiler\ti-cgt-c2000_6.4.9\bin\opt2000.exe C:\\Users\\ywcheng\\AppData\\Local\\Tem
     343              ;       C:\ti\ccsv6\tools\compiler\ti-cgt-c2000_6.4.9\bin\ac2000.exe -@C:\\Users\\ywcheng\\AppData\\Local\\Te
     344 00000000               .sect   ".text:retain"
     345                      .retain
     346                      .retainrefs
     347                      .global _mainISR
     348              
     349              $C$DW$52        .dwtag  DW_TAG_subprogram, DW_AT_name("mainISR")
     350                      .dwattr $C$DW$52, DW_AT_low_pc(_mainISR)
     351                      .dwattr $C$DW$52, DW_AT_high_pc(0x00)
     352                      .dwattr $C$DW$52, DW_AT_TI_symbol_name("_mainISR")
     353                      .dwattr $C$DW$52, DW_AT_external
     354                      .dwattr $C$DW$52, DW_AT_TI_begin_file("C:/ti/motorware/motorware_1_01_00_15/sw/solutions/instaspin_fo
     355                      .dwattr $C$DW$52, DW_AT_TI_begin_line(0xde)
     356                      .dwattr $C$DW$52, DW_AT_TI_begin_column(0x10)
     357                      .dwattr $C$DW$52, DW_AT_TI_interrupt
     358                      .dwattr $C$DW$52, DW_AT_TI_max_frame_size(-16)
     359                      .dwpsn  file "C:/ti/motorware/motorware_1_01_00_15/sw/solutions/instaspin_foc/src/proj_lab01.c",line 
     360              
     361                      .dwfde $C$DW$CIE, _mainISR
     362              
     363              ;***************************************************************
     364              ;* FNAME: _mainISR                      FR SIZE:  14           *
     365              ;*                                                             *
     366              ;* FUNCTION ENVIRONMENT                                        *
     367              ;*                                                             *
     368              ;* FUNCTION PROPERTIES                                         *
     369              ;*                            0 Parameter,  0 Auto, 14 SOE     *
     370              ;***************************************************************
     371              
     372              _mainISR:
     373              ;* AR5   assigned to $O$C1
     374              ;* AR7   assigned to $O$C2
     375              ;* AR5   assigned to $O$C3
     376              ;* AR6   assigned to $O$C4
     377              ;* AR7   assigned to $O$C5
     378              ;* AR4   assigned to $O$v1
     379              ;* XT    assigned to _value
     380              $C$DW$53        .dwtag  DW_TAG_variable, DW_AT_name("value")
     381                      .dwattr $C$DW$53, DW_AT_TI_symbol_name("_value")
     382                      .dwattr $C$DW$53, DW_AT_type(*$C$DW$T$37)
TMS320C2000 Assembler PC v6.4.9 Wed Dec 02 15:59:04 2015

Tools Copyright (c) 1996-2015 Texas Instruments Incorporated
C:\Users\ywcheng\AppData\Local\Temp\1536410                          PAGE    9

     383                      .dwattr $C$DW$53, DW_AT_location[DW_OP_reg21]
     384              ;* XT    assigned to _value
     385              $C$DW$54        .dwtag  DW_TAG_variable, DW_AT_name("value")
     386                      .dwattr $C$DW$54, DW_AT_TI_symbol_name("_value")
     387                      .dwattr $C$DW$54, DW_AT_type(*$C$DW$T$37)
     388                      .dwattr $C$DW$54, DW_AT_location[DW_OP_reg21]
     389              ;* XT    assigned to _value
     390              $C$DW$55        .dwtag  DW_TAG_variable, DW_AT_name("value")
     391                      .dwattr $C$DW$55, DW_AT_TI_symbol_name("_value")
     392                      .dwattr $C$DW$55, DW_AT_type(*$C$DW$T$37)
     393                      .dwattr $C$DW$55, DW_AT_location[DW_OP_reg21]
     394              ;* XT    assigned to _value
     395              $C$DW$56        .dwtag  DW_TAG_variable, DW_AT_name("value")
     396                      .dwattr $C$DW$56, DW_AT_TI_symbol_name("_value")
     397                      .dwattr $C$DW$56, DW_AT_type(*$C$DW$T$37)
     398                      .dwattr $C$DW$56, DW_AT_location[DW_OP_reg21]
     399              ;* XT    assigned to _value
     400              $C$DW$57        .dwtag  DW_TAG_variable, DW_AT_name("value")
     401                      .dwattr $C$DW$57, DW_AT_TI_symbol_name("_value")
     402                      .dwattr $C$DW$57, DW_AT_type(*$C$DW$T$37)
     403                      .dwattr $C$DW$57, DW_AT_location[DW_OP_reg21]
     404              ;* XT    assigned to _value
     405              $C$DW$58        .dwtag  DW_TAG_variable, DW_AT_name("value")
     406                      .dwattr $C$DW$58, DW_AT_TI_symbol_name("_value")
     407                      .dwattr $C$DW$58, DW_AT_type(*$C$DW$T$37)
     408                      .dwattr $C$DW$58, DW_AT_location[DW_OP_reg21]
     409              ;* XT    assigned to _value
     410              $C$DW$59        .dwtag  DW_TAG_variable, DW_AT_name("value")
     411                      .dwattr $C$DW$59, DW_AT_TI_symbol_name("_value")
     412                      .dwattr $C$DW$59, DW_AT_type(*$C$DW$T$37)
     413                      .dwattr $C$DW$59, DW_AT_location[DW_OP_reg21]
     414              ;* AR0   assigned to _period
     415              $C$DW$60        .dwtag  DW_TAG_variable, DW_AT_name("period")
     416                      .dwattr $C$DW$60, DW_AT_TI_symbol_name("_period")
     417                      .dwattr $C$DW$60, DW_AT_type(*$C$DW$T$37)
     418                      .dwattr $C$DW$60, DW_AT_location[DW_OP_reg4]
     419              ;* AR4   assigned to _obj
     420              $C$DW$61        .dwtag  DW_TAG_variable, DW_AT_name("obj")
     421                      .dwattr $C$DW$61, DW_AT_TI_symbol_name("_obj")
     422                      .dwattr $C$DW$61, DW_AT_type(*$C$DW$T$145)
     423                      .dwattr $C$DW$61, DW_AT_location[DW_OP_reg12]
     424              ;* AR7   assigned to $O$U109
     425              ;* AR4   assigned to $O$U99
     426                      .dwcfi  cfa_offset, -2
     427                      .dwcfi  save_reg_to_mem, 26, 0
     428 00000000 761B          ASP       ; [CPU_] 
     429 00000001 0005          PUSH      AR1H:AR0H             ; [CPU_] 
     430                      .dwcfi  save_reg_to_mem, 5, 2
     431                      .dwcfi  save_reg_to_mem, 7, 3
     432                      .dwcfi  cfa_offset, -4
     433 00000002 FF69          SPM       0                     ; [CPU_] 
     434 00000003 ABBD          MOVL      *SP++,XT              ; [CPU_] 
     435                      .dwcfi  save_reg_to_mem, 21, 4
     436                      .dwcfi  save_reg_to_mem, 22, 5
     437                      .dwcfi  cfa_offset, -6
TMS320C2000 Assembler PC v6.4.9 Wed Dec 02 15:59:04 2015

Tools Copyright (c) 1996-2015 Texas Instruments Incorporated
C:\Users\ywcheng\AppData\Local\Temp\1536410                          PAGE   10

     438 00000004 AABD          MOVL      *SP++,XAR2            ; [CPU_] 
     439                      .dwcfi  save_reg_to_mem, 8, 6
     440                      .dwcfi  save_reg_to_mem, 9, 7
     441                      .dwcfi  cfa_offset, -8
     442 00000005 A8BD          MOVL      *SP++,XAR4            ; [CPU_] 
     443                      .dwcfi  save_reg_to_mem, 12, 8
     444                      .dwcfi  save_reg_to_mem, 13, 9
     445                      .dwcfi  cfa_offset, -10
     446 00000006 A0BD          MOVL      *SP++,XAR5            ; [CPU_] 
     447                      .dwcfi  save_reg_to_mem, 14, 10
     448                      .dwcfi  save_reg_to_mem, 15, 11
     449                      .dwcfi  cfa_offset, -12
     450 00000007 C2BD          MOVL      *SP++,XAR6            ; [CPU_] 
     451                      .dwcfi  save_reg_to_mem, 16, 12
     452                      .dwcfi  save_reg_to_mem, 17, 13
     453                      .dwcfi  cfa_offset, -14
     454 00000008 C3BD          MOVL      *SP++,XAR7            ; [CPU_] 
     455                      .dwcfi  save_reg_to_mem, 18, 14
     456                      .dwcfi  save_reg_to_mem, 19, 15
     457                      .dwcfi  cfa_offset, -16
     458 00000009 2942          CLRC      PAGE0,OVM             ; [CPU_] 
     459 0000000a 5616          CLRC      AMODE                 ; [CPU_] 
     460                      .dwpsn  file "C:/ti/motorware/motorware_1_01_00_15/sw/solutions/instaspin_foc/src/proj_lab01.c",line 
     461 0000000b 0201          MOVB      ACC,#1                ; [CPU_] |226| 
     462 0000000c 761F-         MOVW      DP,#_gLEDcnt          ; [CPU_U] 
         0000000d 0000 
     463 0000000e 5601-         ADDL      @_gLEDcnt,ACC         ; [CPU_] |226| 
         0000000f 0000 
     464 00000010 8F00          MOVL      XAR4,#3000            ; [CPU_U] |226| 
         00000011 0BB8 
     465 00000012 0600-         MOVL      ACC,@_gLEDcnt         ; [CPU_] |226| 
     466 00000013 1901          SUBB      ACC,#1                ; [CPU_] |226| 
     467 00000014 0FA4          CMPL      ACC,XAR4              ; [CPU_] |226| 
     468 00000015 56C9          BF        $C$L1,LOS             ; [CPU_] |226| 
         00000016 000F 
     469                      ; branchcc occurs ; [] |226| 
     470                      .dwpsn  file "C:/ti/motorware/motorware_1_01_00_15/sw/modules/hal/boards/hvkit_rev1p1/f28x/f2802x/src
     471 00000017 0208          MOVB      ACC,#8                ; [CPU_] |736| 
     472 00000018 761F-         MOVW      DP,#_halHandle        ; [CPU_U] 
         00000019 0000 
     473 0000001a 0700-         ADDL      ACC,@_halHandle       ; [CPU_] |736| 
     474 0000001b 8AA9          MOVL      XAR4,ACC              ; [CPU_] |736| 
     475 0000001c 9A22          MOVB      AL,#34                ; [CPU_] |736| 
     476 0000001d 8AC4          MOVL      XAR4,*+XAR4[0]        ; [CPU_] |736| 
     477              $C$DW$62        .dwtag  DW_TAG_TI_branch
     478                      .dwattr $C$DW$62, DW_AT_low_pc(0x00)
     479                      .dwattr $C$DW$62, DW_AT_name("_GPIO_toggle")
     480                      .dwattr $C$DW$62, DW_AT_TI_call
     481 0000001e 7640!         LCR       #_GPIO_toggle         ; [CPU_] |736| 
         0000001f 0000 
     482                      ; call occurs [#_GPIO_toggle] ; [] |736| 
     483 00000020 761F-         MOVW      DP,#_gLEDcnt          ; [CPU_U] 
         00000021 0000 
     484                      .dwpsn  file "C:/ti/motorware/motorware_1_01_00_15/sw/solutions/instaspin_foc/src/proj_lab01.c",line 
     485 00000022 0200          MOVB      ACC,#0                ; [CPU_] |229| 
TMS320C2000 Assembler PC v6.4.9 Wed Dec 02 15:59:04 2015

Tools Copyright (c) 1996-2015 Texas Instruments Incorporated
C:\Users\ywcheng\AppData\Local\Temp\1536410                          PAGE   11

     486 00000023 1E00-         MOVL      @_gLEDcnt,ACC         ; [CPU_] |229| 
     487 00000024       $C$L1:    
     488 00000024 761F-         MOVW      DP,#_halHandle        ; [CPU_U] 
         00000025 0000 
     489                      .dwpsn  file "C:/ti/motorware/motorware_1_01_00_15/sw/solutions/instaspin_foc/src/proj_lab01.c",line 
     490 00000026 8A00-         MOVL      XAR4,@_halHandle      ; [CPU_] |234| 
     491                      .dwpsn  file "C:/ti/motorware/motorware_1_01_00_15/sw/drivers/adc/src/32b/f28x/f2802x/adc.h",line 571
     492 00000027 8F40          MOVL      XAR5,#26117           ; [CPU_U] |571| 
         00000028 6605 
     493 00000029 A0A9          MOVL      ACC,XAR5              ; [CPU_] |571| 
     494 0000002a 07C4          ADDL      ACC,*+XAR4[0]         ; [CPU_] |571| 
     495 0000002b 83A9          MOVL      XAR5,ACC              ; [CPU_] |571| 
     496                      .dwpsn  file "C:/ti/motorware/motorware_1_01_00_15/sw/drivers/pie/src/32b/f28x/f2802x/pie.h",line 757
     497 0000002c D078          MOVB      XAR0,#120             ; [CPU_] |757| 
     498                      .dwpsn  file "C:/ti/motorware/motorware_1_01_00_15/sw/drivers/adc/src/32b/f28x/f2802x/adc.h",line 571
     499 0000002d 56BF          MOVB      *+XAR5[0],#1,UNC      ; [CPU_] |571| 
         0000002e 01C5 
     500                      .dwpsn  file "C:/ti/motorware/motorware_1_01_00_15/sw/drivers/pie/src/32b/f28x/f2802x/pie.h",line 757
     501 0000002f 8394          MOVL      XAR5,*+XAR4[AR0]      ; [CPU_] |757| 
     502                      .dwpsn  file "C:/ti/motorware/motorware_1_01_00_15/sw/modules/hal/boards/hvkit_rev1p1/f28x/f2802x/src
     503 00000030 D0A0          MOVB      XAR0,#160             ; [CPU_] |489| 
     504                      .dwpsn  file "C:/ti/motorware/motorware_1_01_00_15/sw/drivers/pie/src/32b/f28x/f2802x/pie.h",line 757
     505 00000031 28CD          MOV       *+XAR5[1],#512        ; [CPU_] |757| 
         00000032 0200 
     506                      .dwpsn  file "C:/ti/motorware/motorware_1_01_00_15/sw/modules/hal/boards/hvkit_rev1p1/f28x/f2802x/src
     507 00000033 C594          MOVL      XAR7,*+XAR4[AR0]      ; [CPU_] |489| 
     508                      .dwpsn  file "C:/ti/motorware/motorware_1_01_00_15/sw/drivers/adc/src/32b/f28x/f2802x/adc.h",line 684
     509 00000034 83C4          MOVL      XAR5,*+XAR4[0]        ; [CPU_] |684| 
     510                      .dwpsn  file "C:/ti/motorware/motorware_1_01_00_15/sw/modules/hal/boards/hvkit_rev1p1/f28x/f2802x/src
     511 00000035 7680-         MOVL      XAR6,#_gAdcData       ; [CPU_U] |490| 
         00000036 0008 
     512 00000037 761F-         MOVW      DP,#_gAdcData+12      ; [CPU_U] 
         00000038 0000 
     513                      .dwpsn  file "C:/ti/motorware/motorware_1_01_00_15/sw/modules/hal/boards/hvkit_rev1p1/f28x/f2802x/src
     514 00000039 D092          MOVB      XAR0,#146             ; [CPU_] |489| 
     515                      .dwpsn  file "C:/ti/motorware/motorware_1_01_00_15/sw/drivers/adc/src/32b/f28x/f2802x/adc.h",line 684
     516 0000003a 0ECD          MOVU      ACC,*+XAR5[1]         ; [CPU_] |684| 
     517 0000003b 1EAC          MOVL      XT,ACC                ; [CPU_] |684| 
     518                      .dwpsn  file "C:/ti/motorware/motorware_1_01_00_15/sw/modules/hal/boards/hvkit_rev1p1/f28x/f2802x/src
     519 0000003c 5605          IMPYL     P,XT,XAR7             ; [CPU_] |489| 
         0000003d 00A7 
     520 0000003e 5663          QMPYL     ACC,XT,XAR7           ; [CPU_] |489| 
         0000003f 00A7 
     521 00000040 568B          ASR64     ACC:P,#12             ; [CPU_] |489| 
     522 00000041 A9A9          MOVL      ACC,P                 ; [CPU_] |489| 
     523 00000042 0394          SUBL      ACC,*+XAR4[AR0]       ; [CPU_] |489| 
     524                      .dwpsn  file "C:/ti/motorware/motorware_1_01_00_15/sw/modules/hal/boards/hvkit_rev1p1/f28x/f2802x/src
     525 00000043 D094          MOVB      XAR0,#148             ; [CPU_] |494| 
     526                      .dwpsn  file "C:/ti/motorware/motorware_1_01_00_15/sw/modules/hal/boards/hvkit_rev1p1/f28x/f2802x/src
     527 00000044 1EC6          MOVL      *+XAR6[0],ACC         ; [CPU_] |490| 
     528                      .dwpsn  file "C:/ti/motorware/motorware_1_01_00_15/sw/drivers/adc/src/32b/f28x/f2802x/adc.h",line 684
     529 00000045 0ED5          MOVU      ACC,*+XAR5[2]         ; [CPU_] |684| 
     530 00000046 1EAC          MOVL      XT,ACC                ; [CPU_] |684| 
     531                      .dwpsn  file "C:/ti/motorware/motorware_1_01_00_15/sw/modules/hal/boards/hvkit_rev1p1/f28x/f2802x/src
     532 00000047 5605          IMPYL     P,XT,XAR7             ; [CPU_] |494| 
TMS320C2000 Assembler PC v6.4.9 Wed Dec 02 15:59:04 2015

Tools Copyright (c) 1996-2015 Texas Instruments Incorporated
C:\Users\ywcheng\AppData\Local\Temp\1536410                          PAGE   12

         00000048 00A7 
     533 00000049 5663          QMPYL     ACC,XT,XAR7           ; [CPU_] |494| 
         0000004a 00A7 
     534 0000004b 568B          ASR64     ACC:P,#12             ; [CPU_] |494| 
     535 0000004c A9A9          MOVL      ACC,P                 ; [CPU_] |494| 
     536 0000004d 0394          SUBL      ACC,*+XAR4[AR0]       ; [CPU_] |494| 
     537                      .dwpsn  file "C:/ti/motorware/motorware_1_01_00_15/sw/modules/hal/boards/hvkit_rev1p1/f28x/f2802x/src
     538 0000004e D096          MOVB      XAR0,#150             ; [CPU_] |499| 
     539                      .dwpsn  file "C:/ti/motorware/motorware_1_01_00_15/sw/modules/hal/boards/hvkit_rev1p1/f28x/f2802x/src
     540 0000004f 1ED6          MOVL      *+XAR6[2],ACC         ; [CPU_] |495| 
     541                      .dwpsn  file "C:/ti/motorware/motorware_1_01_00_15/sw/drivers/adc/src/32b/f28x/f2802x/adc.h",line 684
     542 00000050 0EDD          MOVU      ACC,*+XAR5[3]         ; [CPU_] |684| 
     543 00000051 1EAC          MOVL      XT,ACC                ; [CPU_] |684| 
     544                      .dwpsn  file "C:/ti/motorware/motorware_1_01_00_15/sw/modules/hal/boards/hvkit_rev1p1/f28x/f2802x/src
     545 00000052 5605          IMPYL     P,XT,XAR7             ; [CPU_] |499| 
         00000053 00A7 
     546 00000054 5663          QMPYL     ACC,XT,XAR7           ; [CPU_] |499| 
         00000055 00A7 
     547 00000056 568B          ASR64     ACC:P,#12             ; [CPU_] |499| 
     548 00000057 A9A9          MOVL      ACC,P                 ; [CPU_] |499| 
     549 00000058 0394          SUBL      ACC,*+XAR4[AR0]       ; [CPU_] |499| 
     550                      .dwpsn  file "C:/ti/motorware/motorware_1_01_00_15/sw/modules/hal/boards/hvkit_rev1p1/f28x/f2802x/src
     551 00000059 D0A2          MOVB      XAR0,#162             ; [CPU_] |504| 
     552                      .dwpsn  file "C:/ti/motorware/motorware_1_01_00_15/sw/modules/hal/boards/hvkit_rev1p1/f28x/f2802x/src
     553 0000005a 1EE6          MOVL      *+XAR6[4],ACC         ; [CPU_] |500| 
     554                      .dwpsn  file "C:/ti/motorware/motorware_1_01_00_15/sw/drivers/adc/src/32b/f28x/f2802x/adc.h",line 684
     555 0000005b 0EE5          MOVU      ACC,*+XAR5[4]         ; [CPU_] |684| 
     556                      .dwpsn  file "C:/ti/motorware/motorware_1_01_00_15/sw/modules/hal/boards/hvkit_rev1p1/f28x/f2802x/src
     557 0000005c C594          MOVL      XAR7,*+XAR4[AR0]      ; [CPU_] |504| 
     558 0000005d 3B01          SETC      SXM                   ; [CPU_] 
     559                      .dwpsn  file "C:/ti/motorware/motorware_1_01_00_15/sw/drivers/adc/src/32b/f28x/f2802x/adc.h",line 684
     560 0000005e 1EAC          MOVL      XT,ACC                ; [CPU_] |684| 
     561                      .dwpsn  file "C:/ti/motorware/motorware_1_01_00_15/sw/modules/hal/boards/hvkit_rev1p1/f28x/f2802x/src
     562 0000005f D098          MOVB      XAR0,#152             ; [CPU_] |504| 
     563 00000060 5605          IMPYL     P,XT,XAR7             ; [CPU_] |504| 
         00000061 00A7 
     564 00000062 5663          QMPYL     ACC,XT,XAR7           ; [CPU_] |504| 
         00000063 00A7 
     565 00000064 568B          ASR64     ACC:P,#12             ; [CPU_] |504| 
     566 00000065 A9A9          MOVL      ACC,P                 ; [CPU_] |504| 
     567 00000066 0394          SUBL      ACC,*+XAR4[AR0]       ; [CPU_] |504| 
     568                      .dwpsn  file "C:/ti/motorware/motorware_1_01_00_15/sw/modules/hal/boards/hvkit_rev1p1/f28x/f2802x/src
     569 00000067 D09A          MOVB      XAR0,#154             ; [CPU_] |509| 
     570                      .dwpsn  file "C:/ti/motorware/motorware_1_01_00_15/sw/modules/hal/boards/hvkit_rev1p1/f28x/f2802x/src
     571 00000068 1EF6          MOVL      *+XAR6[6],ACC         ; [CPU_] |505| 
     572                      .dwpsn  file "C:/ti/motorware/motorware_1_01_00_15/sw/drivers/adc/src/32b/f28x/f2802x/adc.h",line 684
     573 00000069 0EED          MOVU      ACC,*+XAR5[5]         ; [CPU_] |684| 
     574 0000006a 1EAC          MOVL      XT,ACC                ; [CPU_] |684| 
     575                      .dwpsn  file "C:/ti/motorware/motorware_1_01_00_15/sw/modules/hal/boards/hvkit_rev1p1/f28x/f2802x/src
     576 0000006b 5605          IMPYL     P,XT,XAR7             ; [CPU_] |509| 
         0000006c 00A7 
     577 0000006d 5663          QMPYL     ACC,XT,XAR7           ; [CPU_] |509| 
         0000006e 00A7 
     578 0000006f 568B          ASR64     ACC:P,#12             ; [CPU_] |509| 
     579 00000070 A9A9          MOVL      ACC,P                 ; [CPU_] |509| 
TMS320C2000 Assembler PC v6.4.9 Wed Dec 02 15:59:04 2015

Tools Copyright (c) 1996-2015 Texas Instruments Incorporated
C:\Users\ywcheng\AppData\Local\Temp\1536410                          PAGE   13

     580 00000071 0394          SUBL      ACC,*+XAR4[AR0]       ; [CPU_] |509| 
     581                      .dwpsn  file "C:/ti/motorware/motorware_1_01_00_15/sw/modules/hal/boards/hvkit_rev1p1/f28x/f2802x/src
     582 00000072 D008          MOVB      XAR0,#8               ; [CPU_] |510| 
     583 00000073 1E96          MOVL      *+XAR6[AR0],ACC       ; [CPU_] |510| 
     584                      .dwpsn  file "C:/ti/motorware/motorware_1_01_00_15/sw/modules/hal/boards/hvkit_rev1p1/f28x/f2802x/src
     585 00000074 D09C          MOVB      XAR0,#156             ; [CPU_] |514| 
     586                      .dwpsn  file "C:/ti/motorware/motorware_1_01_00_15/sw/drivers/adc/src/32b/f28x/f2802x/adc.h",line 684
     587 00000075 0EF5          MOVU      ACC,*+XAR5[6]         ; [CPU_] |684| 
     588 00000076 1EAC          MOVL      XT,ACC                ; [CPU_] |684| 
     589                      .dwpsn  file "C:/ti/motorware/motorware_1_01_00_15/sw/modules/hal/boards/hvkit_rev1p1/f28x/f2802x/src
     590 00000077 5605          IMPYL     P,XT,XAR7             ; [CPU_] |514| 
         00000078 00A7 
     591 00000079 5663          QMPYL     ACC,XT,XAR7           ; [CPU_] |514| 
         0000007a 00A7 
     592 0000007b 568B          ASR64     ACC:P,#12             ; [CPU_] |514| 
     593 0000007c A9A9          MOVL      ACC,P                 ; [CPU_] |514| 
     594 0000007d 0394          SUBL      ACC,*+XAR4[AR0]       ; [CPU_] |514| 
     595                      .dwpsn  file "C:/ti/motorware/motorware_1_01_00_15/sw/modules/hal/boards/hvkit_rev1p1/f28x/f2802x/src
     596 0000007e D00A          MOVB      XAR0,#10              ; [CPU_] |515| 
     597 0000007f 1E96          MOVL      *+XAR6[AR0],ACC       ; [CPU_] |515| 
     598 00000080 DC7C          ADDB      XAR4,#124             ; [CPU_] 
     599 00000081 BE02          MOVB      XAR6,#2               ; [CPU_] 
     600                      .dwpsn  file "C:/ti/motorware/motorware_1_01_00_15/sw/drivers/adc/src/32b/f28x/f2802x/adc.h",line 684
     601 00000082 0EFD          MOVU      ACC,*+XAR5[7]         ; [CPU_] |684| 
     602 00000083 1EAC          MOVL      XT,ACC                ; [CPU_] |684| 
     603                      .dwpsn  file "C:/ti/motorware/motorware_1_01_00_15/sw/modules/hal/boards/hvkit_rev1p1/f28x/f2802x/src
     604 00000084 5605          IMPYL     P,XT,XAR7             ; [CPU_] |519| 
         00000085 00A7 
     605 00000086 5663          QMPYL     ACC,XT,XAR7           ; [CPU_] |519| 
         00000087 00A7 
     606 00000088 568B          ASR64     ACC:P,#12             ; [CPU_] |519| 
     607 00000089 76C0-         MOVL      XAR7,#_gPwmData       ; [CPU_U] 
         0000008a 0002 
     608                      .dwpsn  file "C:/ti/motorware/motorware_1_01_00_15/sw/modules/hal/boards/hvkit_rev1p1/f28x/f2802x/src
     609 0000008b A914-         MOVL      @_gAdcData+12,P       ; [CPU_] |520| 
     610 0000008c       $C$L2:    
     611                      .dwpsn  file "C:/ti/motorware/motorware_1_01_00_15/sw/drivers/pwm/src/32b/f28x/f2802x/pwm.h",line 171
     612 0000008c FF2F          MOV       ACC,#-512 << 15       ; [CPU_] |1717| 
         0000008d FE00 
     613 0000008e 8787          MOVL      XT,*XAR7++            ; [CPU_] |1717| 
     614                      .dwpsn  file "C:/ti/motorware/motorware_1_01_00_15/sw/modules/hal/boards/hvkit_rev1p1/f28x/f2802x/src
     615 0000008f 8384          MOVL      XAR5,*XAR4++          ; [CPU_] |1029| 
     616                      .dwpsn  file "C:/ti/motorware/motorware_1_01_00_15/sw/drivers/pwm/src/32b/f28x/f2802x/pwm.h",line 171
     617 00000090 5605          IMPYL     P,XT,ACC              ; [CPU_] |1717| 
         00000091 00A9 
     618 00000092 5663          QMPYL     ACC,XT,ACC            ; [CPU_] |1717| 
         00000093 00A9 
     619 00000094 56A7          LSL64     ACC:P,#8              ; [CPU_] |1717| 
     620 00000095 2BAB          MOV       PL,#0                 ; [CPU_] |1717| 
     621 00000096 28AA          MOV       PH,#128               ; [CPU_] |1717| 
         00000097 0080 
     622 00000098 A9A2          MOVL      XAR2,P                ; [CPU_] |1717| 
     623                      .dwpsn  file "C:/ti/motorware/motorware_1_01_00_15/sw/modules/hal/boards/hvkit_rev1p1/f28x/f2802x/src
     624 00000099 58ED          MOVZ      AR0,*+XAR5[5]         ; [CPU_] |1029| 
     625                      .dwpsn  file "C:/ti/motorware/motorware_1_01_00_15/sw/drivers/pwm/src/32b/f28x/f2802x/pwm.h",line 171
TMS320C2000 Assembler PC v6.4.9 Wed Dec 02 15:59:04 2015

Tools Copyright (c) 1996-2015 Texas Instruments Incorporated
C:\Users\ywcheng\AppData\Local\Temp\1536410                          PAGE   14

     626 0000009a 2BAB          MOV       PL,#0                 ; [CPU_] |1717| 
     627 0000009b 28AA          MOV       PH,#65408             ; [CPU_] |1717| 
         0000009c FF80 
     628 0000009d 5650          MINL      ACC,XAR2              ; [CPU_] |1717| 
         0000009e 00A2 
     629 0000009f 5661          MAXL      ACC,P                 ; [CPU_] |1717| 
         000000a0 00AB 
     630 000000a1 FF1F          ADD       ACC,#256 << 15        ; [CPU_] |1717| 
         000000a2 0100 
     631 000000a3 1EAC          MOVL      XT,ACC                ; [CPU_] |1717| 
     632 000000a4 5605          IMPYL     P,XT,XAR0             ; [CPU_] |1717| 
         000000a5 00A0 
     633 000000a6 5663          QMPYL     ACC,XT,XAR0           ; [CPU_] |1717| 
         000000a7 00A0 
     634 000000a8 56A7          LSL64     ACC:P,#8              ; [CPU_] |1717| 
     635 000000a9 3100          MOV       P,#0                  ; [CPU_] |1717| 
     636 000000aa 5650          MINL      ACC,XAR0              ; [CPU_] |1717| 
         000000ab 00A0 
     637 000000ac D009          MOVB      XAR0,#9               ; [CPU_] |1717| 
     638 000000ad 5661          MAXL      ACC,P                 ; [CPU_] |1717| 
         000000ae 00AB 
     639 000000af 9695          MOV       *+XAR5[AR0],AL        ; [CPU_] |1717| 
     640                      .dwpsn  file "C:/ti/motorware/motorware_1_01_00_15/sw/modules/hal/boards/hvkit_rev1p1/f28x/f2802x/src
     641 000000b0 000E          BANZ      $C$L2,AR6--           ; [CPU_] |1026| 
         000000b1 FFDC 
     642                      ; branchcc occurs ; [] |1026| 
     643 000000b2 C5BE          MOVL      XAR7,*--SP            ; [CPU_] 
     644                      .dwcfi  cfa_offset, -14
     645                      .dwcfi  restore_reg, 18
     646 000000b3 C4BE          MOVL      XAR6,*--SP            ; [CPU_] 
     647                      .dwcfi  cfa_offset, -12
     648                      .dwcfi  restore_reg, 16
     649 000000b4 83BE          MOVL      XAR5,*--SP            ; [CPU_] 
     650                      .dwcfi  cfa_offset, -10
     651                      .dwcfi  restore_reg, 14
     652 000000b5 8ABE          MOVL      XAR4,*--SP            ; [CPU_] 
     653                      .dwcfi  cfa_offset, -8
     654                      .dwcfi  restore_reg, 12
     655 000000b6 86BE          MOVL      XAR2,*--SP            ; [CPU_] 
     656                      .dwcfi  cfa_offset, -6
     657                      .dwcfi  restore_reg, 8
     658 000000b7 87BE          MOVL      XT,*--SP              ; [CPU_] 
     659                      .dwcfi  cfa_offset, -4
     660                      .dwcfi  restore_reg, 22
     661                      .dwcfi  restore_reg, 21
     662 000000b8 0003          POP       AR1H:AR0H             ; [CPU_] 
     663                      .dwcfi  cfa_offset, -2
     664                      .dwcfi  restore_reg, 5
     665                      .dwcfi  restore_reg, 7
     666 000000b9 7617          NASP      ; [CPU_] 
     667              $C$DW$63        .dwtag  DW_TAG_TI_branch
     668                      .dwattr $C$DW$63, DW_AT_low_pc(0x00)
     669                      .dwattr $C$DW$63, DW_AT_TI_return
     670 000000ba 7602          IRET      ; [CPU_] 
     671                      ; return occurs ; [] 
TMS320C2000 Assembler PC v6.4.9 Wed Dec 02 15:59:04 2015

Tools Copyright (c) 1996-2015 Texas Instruments Incorporated
C:\Users\ywcheng\AppData\Local\Temp\1536410                          PAGE   15

     672                      .dwattr $C$DW$52, DW_AT_TI_end_file("C:/ti/motorware/motorware_1_01_00_15/sw/solutions/instaspin_foc/
     673                      .dwattr $C$DW$52, DW_AT_TI_end_line(0xf9)
     674                      .dwattr $C$DW$52, DW_AT_TI_end_column(0x01)
     675                      .dwendentry
     676                      .dwendtag $C$DW$52
     677              
     678 00000000               .sect   ".text"
     679                      .clink
     680                      .global _main
     681              
     682              $C$DW$64        .dwtag  DW_TAG_subprogram, DW_AT_name("main")
     683                      .dwattr $C$DW$64, DW_AT_low_pc(_main)
     684                      .dwattr $C$DW$64, DW_AT_high_pc(0x00)
     685                      .dwattr $C$DW$64, DW_AT_TI_symbol_name("_main")
     686                      .dwattr $C$DW$64, DW_AT_external
     687                      .dwattr $C$DW$64, DW_AT_TI_begin_file("C:/ti/motorware/motorware_1_01_00_15/sw/solutions/instaspin_fo
     688                      .dwattr $C$DW$64, DW_AT_TI_begin_line(0x74)
     689                      .dwattr $C$DW$64, DW_AT_TI_begin_column(0x06)
     690                      .dwattr $C$DW$64, DW_AT_TI_max_frame_size(-6)
     691                      .dwpsn  file "C:/ti/motorware/motorware_1_01_00_15/sw/solutions/instaspin_foc/src/proj_lab01.c",line 
     692              
     693                      .dwfde $C$DW$CIE, _main
     694              
     695              ;***************************************************************
     696              ;* FNAME: _main                         FR SIZE:   4           *
     697              ;*                                                             *
     698              ;* FUNCTION ENVIRONMENT                                        *
     699              ;*                                                             *
     700              ;* FUNCTION PROPERTIES                                         *
     701              ;*                            2 Parameter,  0 Auto,  2 SOE     *
     702              ;***************************************************************
     703              
     704              _main:
     705              ;* AR5   assigned to $O$C2
     706              ;* AR1   assigned to $O$K32
     707              ;* AR4   assigned to _obj
     708              $C$DW$65        .dwtag  DW_TAG_variable, DW_AT_name("obj")
     709                      .dwattr $C$DW$65, DW_AT_TI_symbol_name("_obj")
     710                      .dwattr $C$DW$65, DW_AT_type(*$C$DW$T$145)
     711                      .dwattr $C$DW$65, DW_AT_location[DW_OP_reg12]
     712              ;* AR4   assigned to $O$v1
     713              ;* AR4   assigned to $O$v1
     714                      .dwcfi  cfa_offset, -2
     715                      .dwcfi  save_reg_to_mem, 26, 0
     716 00000000 B2BD          MOVL      *SP++,XAR1            ; [CPU_] 
     717                      .dwcfi  save_reg_to_mem, 7, 2
     718                      .dwcfi  cfa_offset, -4
     719 00000001 FE02          ADDB      SP,#2                 ; [CPU_U] 
     720                      .dwcfi  cfa_offset, -6
     721                      .dwpsn  file "C:/ti/motorware/motorware_1_01_00_15/sw/solutions/instaspin_foc/src/proj_lab01.c",line 
     722 00000002 8F00!         MOVL      XAR4,#_RamfuncsRunStart ; [CPU_U] |124| 
         00000003 0000 
     723 00000004 8F40!         MOVL      XAR5,#_RamfuncsLoadEnd ; [CPU_U] |124| 
         00000005 0000 
     724 00000006 A842          MOVL      *-SP[2],XAR4          ; [CPU_] |124| 
TMS320C2000 Assembler PC v6.4.9 Wed Dec 02 15:59:04 2015

Tools Copyright (c) 1996-2015 Texas Instruments Incorporated
C:\Users\ywcheng\AppData\Local\Temp\1536410                          PAGE   16

     725 00000007 8F00!         MOVL      XAR4,#_RamfuncsLoadStart ; [CPU_U] |124| 
         00000008 0000 
     726              $C$DW$66        .dwtag  DW_TAG_TI_branch
     727                      .dwattr $C$DW$66, DW_AT_low_pc(0x00)
     728                      .dwattr $C$DW$66, DW_AT_name("_memCopy")
     729                      .dwattr $C$DW$66, DW_AT_TI_call
     730 00000009 7640!         LCR       #_memCopy             ; [CPU_] |124| 
         0000000a 0000 
     731                      ; call occurs [#_memCopy] ; [] |124| 
     732 0000000b 761F!         MOVW      DP,#_econst_start     ; [CPU_U] 
         0000000c 0000 
     733                      .dwpsn  file "C:/ti/motorware/motorware_1_01_00_15/sw/solutions/instaspin_foc/src/proj_lab01.c",line 
     734 0000000d 8A00!         MOVL      XAR4,@_econst_start   ; [CPU_] |128| 
     735 0000000e 761F!         MOVW      DP,#_econst_end       ; [CPU_U] 
         0000000f 0000 
     736 00000010 0EC4          MOVU      ACC,*+XAR4[0]         ; [CPU_] |128| 
     737 00000011 8A00!         MOVL      XAR4,@_econst_end     ; [CPU_] |128| 
     738 00000012 88C4          MOVZ      AR6,*+XAR4[0]         ; [CPU_] |128| 
     739 00000013 0FA6          CMPL      ACC,XAR6              ; [CPU_] |128| 
     740 00000014 EC0A          BF        $C$L3,EQ              ; [CPU_] |128| 
     741                      ; branchcc occurs ; [] |128| 
     742                      .dwpsn  file "C:/ti/motorware/motorware_1_01_00_15/sw/solutions/instaspin_foc/src/proj_lab01.c",line 
     743 00000015 8F00!         MOVL      XAR4,#_econst_ram_load ; [CPU_U] |130| 
         00000016 0000 
     744 00000017 8F40!         MOVL      XAR5,#_econst_end     ; [CPU_U] |130| 
         00000018 0000 
     745 00000019 A842          MOVL      *-SP[2],XAR4          ; [CPU_] |130| 
     746 0000001a 8F00!         MOVL      XAR4,#_econst_start   ; [CPU_U] |130| 
         0000001b 0000 
     747              $C$DW$67        .dwtag  DW_TAG_TI_branch
     748                      .dwattr $C$DW$67, DW_AT_low_pc(0x00)
     749                      .dwattr $C$DW$67, DW_AT_name("_memCopy")
     750                      .dwattr $C$DW$67, DW_AT_TI_call
     751 0000001c 7640!         LCR       #_memCopy             ; [CPU_] |130| 
         0000001d 0000 
     752                      ; call occurs [#_memCopy] ; [] |130| 
     753 0000001e       $C$L3:    
     754 0000001e 761F!         MOVW      DP,#_switch_start     ; [CPU_U] 
         0000001f 0000 
     755                      .dwpsn  file "C:/ti/motorware/motorware_1_01_00_15/sw/solutions/instaspin_foc/src/proj_lab01.c",line 
     756 00000020 8A00!         MOVL      XAR4,@_switch_start   ; [CPU_] |134| 
     757 00000021 761F!         MOVW      DP,#_switch_end       ; [CPU_U] 
         00000022 0000 
     758 00000023 0EC4          MOVU      ACC,*+XAR4[0]         ; [CPU_] |134| 
     759 00000024 8A00!         MOVL      XAR4,@_switch_end     ; [CPU_] |134| 
     760 00000025 88C4          MOVZ      AR6,*+XAR4[0]         ; [CPU_] |134| 
     761 00000026 0FA6          CMPL      ACC,XAR6              ; [CPU_] |134| 
     762 00000027 EC0A          BF        $C$L4,EQ              ; [CPU_] |134| 
     763                      ; branchcc occurs ; [] |134| 
     764                      .dwpsn  file "C:/ti/motorware/motorware_1_01_00_15/sw/solutions/instaspin_foc/src/proj_lab01.c",line 
     765 00000028 8F00!         MOVL      XAR4,#_switch_ram_load ; [CPU_U] |136| 
         00000029 0000 
     766 0000002a 8F40!         MOVL      XAR5,#_switch_end     ; [CPU_U] |136| 
         0000002b 0000 
     767 0000002c A842          MOVL      *-SP[2],XAR4          ; [CPU_] |136| 
TMS320C2000 Assembler PC v6.4.9 Wed Dec 02 15:59:04 2015

Tools Copyright (c) 1996-2015 Texas Instruments Incorporated
C:\Users\ywcheng\AppData\Local\Temp\1536410                          PAGE   17

     768 0000002d 8F00!         MOVL      XAR4,#_switch_start   ; [CPU_U] |136| 
         0000002e 0000 
     769              $C$DW$68        .dwtag  DW_TAG_TI_branch
     770                      .dwattr $C$DW$68, DW_AT_low_pc(0x00)
     771                      .dwattr $C$DW$68, DW_AT_name("_memCopy")
     772                      .dwattr $C$DW$68, DW_AT_TI_call
     773 0000002f 7640!         LCR       #_memCopy             ; [CPU_] |136| 
         00000030 0000 
     774                      ; call occurs [#_memCopy] ; [] |136| 
     775 00000031       $C$L4:    
     776                      .dwpsn  file "C:/ti/motorware/motorware_1_01_00_15/sw/solutions/instaspin_foc/src/proj_lab01.c",line 
     777 00000031 8F00!         MOVL      XAR4,#_hal            ; [CPU_U] |143| 
         00000032 0000 
     778 00000033 02A6          MOVB      ACC,#166              ; [CPU_] |143| 
     779              $C$DW$69        .dwtag  DW_TAG_TI_branch
     780                      .dwattr $C$DW$69, DW_AT_low_pc(0x00)
     781                      .dwattr $C$DW$69, DW_AT_name("_HAL_init")
     782                      .dwattr $C$DW$69, DW_AT_TI_call
     783 00000034 7640!         LCR       #_HAL_init            ; [CPU_] |143| 
         00000035 0000 
     784                      ; call occurs [#_HAL_init] ; [] |143| 
     785                      .dwpsn  file "C:/ti/motorware/motorware_1_01_00_15/sw/solutions/instaspin_foc/src/proj_lab01.c",line 
     786 00000036 8D40-         MOVL      XAR1,#_gUserParams    ; [CPU_U] |147| 
         00000037 0040 
     787 00000038 761F-         MOVW      DP,#_halHandle        ; [CPU_U] 
         00000039 0000 
     788                      .dwpsn  file "C:/ti/motorware/motorware_1_01_00_15/sw/solutions/instaspin_foc/src/proj_lab01.c",line 
     789 0000003a A800-         MOVL      @_halHandle,XAR4      ; [CPU_] |143| 
     790                      .dwpsn  file "C:/ti/motorware/motorware_1_01_00_15/sw/solutions/instaspin_foc/src/proj_lab01.c",line 
     791 0000003b 8AA1          MOVL      XAR4,XAR1             ; [CPU_] |147| 
     792              $C$DW$70        .dwtag  DW_TAG_TI_branch
     793                      .dwattr $C$DW$70, DW_AT_low_pc(0x00)
     794                      .dwattr $C$DW$70, DW_AT_name("_USER_checkForErrors")
     795                      .dwattr $C$DW$70, DW_AT_TI_call
     796 0000003c 7640!         LCR       #_USER_checkForErrors ; [CPU_] |147| 
         0000003d 0000 
     797                      ; call occurs [#_USER_checkForErrors] ; [] |147| 
     798                      .dwpsn  file "C:/ti/motorware/motorware_1_01_00_15/sw/solutions/instaspin_foc/src/proj_lab01.c",line 
     799 0000003e 8AA1          MOVL      XAR4,XAR1             ; [CPU_] |151| 
     800              $C$DW$71        .dwtag  DW_TAG_TI_branch
     801                      .dwattr $C$DW$71, DW_AT_low_pc(0x00)
     802                      .dwattr $C$DW$71, DW_AT_name("_USER_getErrorCode")
     803                      .dwattr $C$DW$71, DW_AT_TI_call
     804 0000003f 7640!         LCR       #_USER_getErrorCode   ; [CPU_] |151| 
         00000040 0000 
     805                      ; call occurs [#_USER_getErrorCode] ; [] |151| 
     806 00000041 761F-         MOVW      DP,#_gMotorVars+12    ; [CPU_U] 
         00000042 0001 
     807 00000043 960C-         MOV       @_gMotorVars+12,AL    ; [CPU_] |151| 
     808                      .dwpsn  file "C:/ti/motorware/motorware_1_01_00_15/sw/solutions/instaspin_foc/src/proj_lab01.c",line 
     809 00000044 920C-         MOV       AL,@_gMotorVars+12    ; [CPU_] |155| 
     810 00000045 ED44          BF        $C$L6,NEQ             ; [CPU_] |155| 
     811                      ; branchcc occurs ; [] |155| 
     812                      .dwpsn  file "C:/ti/motorware/motorware_1_01_00_15/sw/solutions/instaspin_foc/src/proj_lab01.c",line 
     813 00000046 8AA1          MOVL      XAR4,XAR1             ; [CPU_] |165| 
TMS320C2000 Assembler PC v6.4.9 Wed Dec 02 15:59:04 2015

Tools Copyright (c) 1996-2015 Texas Instruments Incorporated
C:\Users\ywcheng\AppData\Local\Temp\1536410                          PAGE   18

     814              $C$DW$72        .dwtag  DW_TAG_TI_branch
     815                      .dwattr $C$DW$72, DW_AT_low_pc(0x00)
     816                      .dwattr $C$DW$72, DW_AT_name("_USER_setParams")
     817                      .dwattr $C$DW$72, DW_AT_TI_call
     818 00000047 7640!         LCR       #_USER_setParams      ; [CPU_] |165| 
         00000048 0000 
     819                      ; call occurs [#_USER_setParams] ; [] |165| 
     820 00000049 761F-         MOVW      DP,#_halHandle        ; [CPU_U] 
         0000004a 0000 
     821                      .dwpsn  file "C:/ti/motorware/motorware_1_01_00_15/sw/solutions/instaspin_foc/src/proj_lab01.c",line 
     822 0000004b 83A1          MOVL      XAR5,XAR1             ; [CPU_] |169| 
     823 0000004c 8A00-         MOVL      XAR4,@_halHandle      ; [CPU_] |169| 
     824              $C$DW$73        .dwtag  DW_TAG_TI_branch
     825                      .dwattr $C$DW$73, DW_AT_low_pc(0x00)
     826                      .dwattr $C$DW$73, DW_AT_name("_HAL_setParams")
     827                      .dwattr $C$DW$73, DW_AT_TI_call
     828 0000004d 7640!         LCR       #_HAL_setParams       ; [CPU_] |169| 
         0000004e 0000 
     829                      ; call occurs [#_HAL_setParams] ; [] |169| 
     830 0000004f 761F-         MOVW      DP,#_halHandle        ; [CPU_U] 
         00000050 0000 
     831                      .dwpsn  file "C:/ti/motorware/motorware_1_01_00_15/sw/solutions/instaspin_foc/src/proj_lab01.c",line 
     832 00000051 8A00-         MOVL      XAR4,@_halHandle      ; [CPU_] |178| 
     833              $C$DW$74        .dwtag  DW_TAG_TI_branch
     834                      .dwattr $C$DW$74, DW_AT_low_pc(0x00)
     835                      .dwattr $C$DW$74, DW_AT_name("_HAL_setupFaults")
     836                      .dwattr $C$DW$74, DW_AT_TI_call
     837 00000052 7640!         LCR       #_HAL_setupFaults     ; [CPU_] |178| 
         00000053 0000 
     838                      ; call occurs [#_HAL_setupFaults] ; [] |178| 
     839 00000054 761F-         MOVW      DP,#_halHandle        ; [CPU_U] 
         00000055 0000 
     840                      .dwpsn  file "C:/ti/motorware/motorware_1_01_00_15/sw/solutions/instaspin_foc/src/proj_lab01.c",line 
     841 00000056 8A00-         MOVL      XAR4,@_halHandle      ; [CPU_] |182| 
     842 00000057 7622   EALLOW
     843                      .dwpsn  file "C:/ti/motorware/motorware_1_01_00_15/sw/modules/hal/boards/hvkit_rev1p1/f28x/f2802x/src
     844 00000058 D078          MOVB      XAR0,#120             ; [CPU_] |462| 
     845 00000059 02F0          MOVB      ACC,#240              ; [CPU_] |462| 
     846 0000005a 0794          ADDL      ACC,*+XAR4[AR0]       ; [CPU_] |462| 
     847 0000005b 83A9          MOVL      XAR5,ACC              ; [CPU_] |462| 
     848 0000005c 7680+         MOVL      XAR6,#_mainISR        ; [CPU_U] |462| 
         0000005d 0000 
     849 0000005e C2C5          MOVL      *+XAR5[0],XAR6        ; [CPU_] |462| 
     850 0000005f 761A   EDIS
     851 00000060 FF69          SPM       #0                    ; [CPU_] 
     852                      .dwpsn  file "C:/ti/motorware/motorware_1_01_00_15/sw/solutions/instaspin_foc/src/proj_lab01.c",line 
     853              $C$DW$75        .dwtag  DW_TAG_TI_branch
     854                      .dwattr $C$DW$75, DW_AT_low_pc(0x00)
     855                      .dwattr $C$DW$75, DW_AT_name("_HAL_enableAdcInts")
     856                      .dwattr $C$DW$75, DW_AT_TI_call
     857 00000061 7640!         LCR       #_HAL_enableAdcInts   ; [CPU_] |186| 
         00000062 0000 
     858                      ; call occurs [#_HAL_enableAdcInts] ; [] |186| 
     859 00000063 761F-         MOVW      DP,#_halHandle        ; [CPU_U] 
         00000064 0000 
TMS320C2000 Assembler PC v6.4.9 Wed Dec 02 15:59:04 2015

Tools Copyright (c) 1996-2015 Texas Instruments Incorporated
C:\Users\ywcheng\AppData\Local\Temp\1536410                          PAGE   19

     860                      .dwpsn  file "C:/ti/motorware/motorware_1_01_00_15/sw/solutions/instaspin_foc/src/proj_lab01.c",line 
     861 00000065 8A00-         MOVL      XAR4,@_halHandle      ; [CPU_] |190| 
     862              $C$DW$76        .dwtag  DW_TAG_TI_branch
     863                      .dwattr $C$DW$76, DW_AT_low_pc(0x00)
     864                      .dwattr $C$DW$76, DW_AT_name("_HAL_enableGlobalInts")
     865                      .dwattr $C$DW$76, DW_AT_TI_call
     866 00000066 7640!         LCR       #_HAL_enableGlobalInts ; [CPU_] |190| 
         00000067 0000 
     867                      ; call occurs [#_HAL_enableGlobalInts] ; [] |190| 
     868 00000068 761F-         MOVW      DP,#_halHandle        ; [CPU_U] 
         00000069 0000 
     869                      .dwpsn  file "C:/ti/motorware/motorware_1_01_00_15/sw/solutions/instaspin_foc/src/proj_lab01.c",line 
     870 0000006a 8A00-         MOVL      XAR4,@_halHandle      ; [CPU_] |194| 
     871              $C$DW$77        .dwtag  DW_TAG_TI_branch
     872                      .dwattr $C$DW$77, DW_AT_low_pc(0x00)
     873                      .dwattr $C$DW$77, DW_AT_name("_HAL_enableDebugInt")
     874                      .dwattr $C$DW$77, DW_AT_TI_call
     875 0000006b 7640!         LCR       #_HAL_enableDebugInt  ; [CPU_] |194| 
         0000006c 0000 
     876                      ; call occurs [#_HAL_enableDebugInt] ; [] |194| 
     877 0000006d 761F-         MOVW      DP,#_halHandle        ; [CPU_U] 
         0000006e 0000 
     878                      .dwpsn  file "C:/ti/motorware/motorware_1_01_00_15/sw/modules/hal/boards/hvkit_rev1p1/f28x/f2802x/src
     879 0000006f 8300-         MOVL      XAR5,@_halHandle      ; [CPU_] |231| 
     880 00000070 8AA5          MOVL      XAR4,XAR5             ; [CPU_] |231| 
     881 00000071 DC7E          ADDB      XAR4,#126             ; [CPU_] |231| 
     882 00000072 7622   EALLOW
     883                      .dwpsn  file "C:/ti/motorware/motorware_1_01_00_15/sw/drivers/pwm/src/32b/f28x/f2802x/pwm.h",line 156
     884 00000073 D07C          MOVB      XAR0,#124             ; [CPU_] |1567| 
     885 00000074 0218          MOVB      ACC,#24               ; [CPU_] |1567| 
     886 00000075 0795          ADDL      ACC,*+XAR5[AR0]       ; [CPU_] |1567| 
     887 00000076 83A9          MOVL      XAR5,ACC              ; [CPU_] |1567| 
     888 00000077 1AC5          OR        *+XAR5[0],#0x0004     ; [CPU_] |1567| 
         00000078 0004 
     889 00000079 761A   EDIS
     890 0000007a 7622   EALLOW
     891 0000007b 0218          MOVB      ACC,#24               ; [CPU_] |1567| 
     892 0000007c 07C4          ADDL      ACC,*+XAR4[0]         ; [CPU_] |1567| 
     893 0000007d 83A9          MOVL      XAR5,ACC              ; [CPU_] |1567| 
     894 0000007e 1AC5          OR        *+XAR5[0],#0x0004     ; [CPU_] |1567| 
         0000007f 0004 
     895 00000080 761A   EDIS
     896 00000081 7622   EALLOW
     897 00000082 0218          MOVB      ACC,#24               ; [CPU_] |1567| 
     898 00000083 07D4          ADDL      ACC,*+XAR4[2]         ; [CPU_] |1567| 
     899 00000084 8AA9          MOVL      XAR4,ACC              ; [CPU_] |1567| 
     900 00000085 1AC4          OR        *+XAR4[0],#0x0004     ; [CPU_] |1567| 
         00000086 0004 
     901 00000087 761A   EDIS
     902 00000088       $C$L5:    
     903                      .dwpsn  file "C:/ti/motorware/motorware_1_01_00_15/sw/solutions/instaspin_foc/src/proj_lab01.c",line 
     904 00000088 6F00          B         $C$L5,UNC             ; [CPU_] |217| 
     905                      ; branch occurs ; [] |217| 
     906 00000089       $C$L6:    
     907                      .dwpsn  file "C:/ti/motorware/motorware_1_01_00_15/sw/solutions/instaspin_foc/src/proj_lab01.c",line 
TMS320C2000 Assembler PC v6.4.9 Wed Dec 02 15:59:04 2015

Tools Copyright (c) 1996-2015 Texas Instruments Incorporated
C:\Users\ywcheng\AppData\Local\Temp\1536410                          PAGE   20

     908 00000089 2B00-         MOV       @_gMotorVars,#0       ; [CPU_] |159| 
     909                      .dwpsn  file "C:/ti/motorware/motorware_1_01_00_15/sw/solutions/instaspin_foc/src/proj_lab01.c",line 
     910 0000008a 6FFF          B         $C$L6,UNC             ; [CPU_] |160| 
     911                      ; branch occurs ; [] |160| 
     912                      .dwattr $C$DW$64, DW_AT_TI_end_file("C:/ti/motorware/motorware_1_01_00_15/sw/solutions/instaspin_foc/
     913                      .dwattr $C$DW$64, DW_AT_TI_end_line(0xdb)
     914                      .dwattr $C$DW$64, DW_AT_TI_end_column(0x01)
     915                      .dwendentry
     916                      .dwendtag $C$DW$64
     917              
     918              ;**************************************************************
     919              ;* UNDEFINED EXTERNAL REFERENCES                              *
     920              ;**************************************************************
     921                      .global _HAL_enableGlobalInts
     922                      .global _HAL_enableDebugInt
     923                      .global _HAL_setupFaults
     924                      .global _HAL_setParams
     925                      .global _HAL_enableAdcInts
     926                      .global _GPIO_toggle
     927                      .global _memCopy
     928                      .global _USER_setParams
     929                      .global _USER_checkForErrors
     930                      .global _USER_getErrorCode
     931                      .global _RamfuncsLoadEnd
     932                      .global _RamfuncsRunStart
     933                      .global _switch_end
     934                      .global _RamfuncsLoadStart
     935                      .global _econst_ram_load
     936                      .global _econst_end
     937                      .global _econst_start
     938                      .global _switch_start
     939                      .global _switch_ram_load
     940                      .global _HAL_init
     941                      .global _hal
     942              
     943              ;***************************************************************
     944              ;* TYPE INFORMATION                                            *
     945              ;***************************************************************
     946              
     947              $C$DW$T$34      .dwtag  DW_TAG_enumeration_type
     948                      .dwattr $C$DW$T$34, DW_AT_byte_size(0x01)
     949              $C$DW$78        .dwtag  DW_TAG_enumerator, DW_AT_name("CTRL_TargetProc_2806x"), DW_AT_const_value(0x00)
     950              $C$DW$79        .dwtag  DW_TAG_enumerator, DW_AT_name("CTRL_TargetProc_2805x"), DW_AT_const_value(0x01)
     951              $C$DW$80        .dwtag  DW_TAG_enumerator, DW_AT_name("CTRL_TargetProc_2803x"), DW_AT_const_value(0x02)
     952              $C$DW$81        .dwtag  DW_TAG_enumerator, DW_AT_name("CTRL_TargetProc_2802x"), DW_AT_const_value(0x03)
     953              $C$DW$82        .dwtag  DW_TAG_enumerator, DW_AT_name("CTRL_TargetProc_Unknown"), DW_AT_const_value(0x04)
     954                      .dwendtag $C$DW$T$34
     955              
     956              $C$DW$T$35      .dwtag  DW_TAG_typedef, DW_AT_name("CTRL_TargetProc_e")
     957                      .dwattr $C$DW$T$35, DW_AT_type(*$C$DW$T$34)
     958                      .dwattr $C$DW$T$35, DW_AT_language(DW_LANG_C)
     959              
     960              $C$DW$T$84      .dwtag  DW_TAG_enumeration_type
     961                      .dwattr $C$DW$T$84, DW_AT_byte_size(0x01)
     962              $C$DW$83        .dwtag  DW_TAG_enumerator, DW_AT_name("CTRL_State_Error"), DW_AT_const_value(0x00)
TMS320C2000 Assembler PC v6.4.9 Wed Dec 02 15:59:04 2015

Tools Copyright (c) 1996-2015 Texas Instruments Incorporated
C:\Users\ywcheng\AppData\Local\Temp\1536410                          PAGE   21

     963              $C$DW$84        .dwtag  DW_TAG_enumerator, DW_AT_name("CTRL_State_Idle"), DW_AT_const_value(0x01)
     964              $C$DW$85        .dwtag  DW_TAG_enumerator, DW_AT_name("CTRL_State_OffLine"), DW_AT_const_value(0x02)
     965              $C$DW$86        .dwtag  DW_TAG_enumerator, DW_AT_name("CTRL_State_OnLine"), DW_AT_const_value(0x03)
     966              $C$DW$87        .dwtag  DW_TAG_enumerator, DW_AT_name("CTRL_numStates"), DW_AT_const_value(0x04)
     967                      .dwendtag $C$DW$T$84
     968              
     969              $C$DW$T$85      .dwtag  DW_TAG_typedef, DW_AT_name("CTRL_State_e")
     970                      .dwattr $C$DW$T$85, DW_AT_type(*$C$DW$T$84)
     971                      .dwattr $C$DW$T$85, DW_AT_language(DW_LANG_C)
     972              
     973              $C$DW$T$86      .dwtag  DW_TAG_enumeration_type
     974                      .dwattr $C$DW$T$86, DW_AT_byte_size(0x01)
     975              $C$DW$88        .dwtag  DW_TAG_enumerator, DW_AT_name("EST_State_Error"), DW_AT_const_value(0x00)
     976              $C$DW$89        .dwtag  DW_TAG_enumerator, DW_AT_name("EST_State_Idle"), DW_AT_const_value(0x01)
     977              $C$DW$90        .dwtag  DW_TAG_enumerator, DW_AT_name("EST_State_RoverL"), DW_AT_const_value(0x02)
     978              $C$DW$91        .dwtag  DW_TAG_enumerator, DW_AT_name("EST_State_Rs"), DW_AT_const_value(0x03)
     979              $C$DW$92        .dwtag  DW_TAG_enumerator, DW_AT_name("EST_State_RampUp"), DW_AT_const_value(0x04)
     980              $C$DW$93        .dwtag  DW_TAG_enumerator, DW_AT_name("EST_State_IdRated"), DW_AT_const_value(0x05)
     981              $C$DW$94        .dwtag  DW_TAG_enumerator, DW_AT_name("EST_State_RatedFlux_OL"), DW_AT_const_value(0x06)
     982              $C$DW$95        .dwtag  DW_TAG_enumerator, DW_AT_name("EST_State_RatedFlux"), DW_AT_const_value(0x07)
     983              $C$DW$96        .dwtag  DW_TAG_enumerator, DW_AT_name("EST_State_RampDown"), DW_AT_const_value(0x08)
     984              $C$DW$97        .dwtag  DW_TAG_enumerator, DW_AT_name("EST_State_LockRotor"), DW_AT_const_value(0x09)
     985              $C$DW$98        .dwtag  DW_TAG_enumerator, DW_AT_name("EST_State_Ls"), DW_AT_const_value(0x0a)
     986              $C$DW$99        .dwtag  DW_TAG_enumerator, DW_AT_name("EST_State_Rr"), DW_AT_const_value(0x0b)
     987              $C$DW$100       .dwtag  DW_TAG_enumerator, DW_AT_name("EST_State_MotorIdentified"), DW_AT_const_value(0x0c)
     988              $C$DW$101       .dwtag  DW_TAG_enumerator, DW_AT_name("EST_State_OnLine"), DW_AT_const_value(0x0d)
     989              $C$DW$102       .dwtag  DW_TAG_enumerator, DW_AT_name("EST_numStates"), DW_AT_const_value(0x0e)
     990                      .dwendtag $C$DW$T$86
     991              
     992              $C$DW$T$87      .dwtag  DW_TAG_typedef, DW_AT_name("EST_State_e")
     993                      .dwattr $C$DW$T$87, DW_AT_type(*$C$DW$T$86)
     994                      .dwattr $C$DW$T$87, DW_AT_language(DW_LANG_C)
     995              
     996              $C$DW$T$88      .dwtag  DW_TAG_enumeration_type
     997                      .dwattr $C$DW$T$88, DW_AT_byte_size(0x01)
     998              $C$DW$103       .dwtag  DW_TAG_enumerator, DW_AT_name("USER_ErrorCode_NoError"), DW_AT_const_value(0x00)
     999              $C$DW$104       .dwtag  DW_TAG_enumerator, DW_AT_name("USER_ErrorCode_iqFullScaleCurrent_A_High"), DW_AT_cons
    1000              $C$DW$105       .dwtag  DW_TAG_enumerator, DW_AT_name("USER_ErrorCode_iqFullScaleCurrent_A_Low"), DW_AT_const
    1001              $C$DW$106       .dwtag  DW_TAG_enumerator, DW_AT_name("USER_ErrorCode_iqFullScaleVoltage_V_High"), DW_AT_cons
    1002              $C$DW$107       .dwtag  DW_TAG_enumerator, DW_AT_name("USER_ErrorCode_iqFullScaleVoltage_V_Low"), DW_AT_const
    1003              $C$DW$108       .dwtag  DW_TAG_enumerator, DW_AT_name("USER_ErrorCode_iqFullScaleFreq_Hz_High"), DW_AT_const_
    1004              $C$DW$109       .dwtag  DW_TAG_enumerator, DW_AT_name("USER_ErrorCode_iqFullScaleFreq_Hz_Low"), DW_AT_const_v
    1005              $C$DW$110       .dwtag  DW_TAG_enumerator, DW_AT_name("USER_ErrorCode_numPwmTicksPerIsrTick_High"), DW_AT_con
    1006              $C$DW$111       .dwtag  DW_TAG_enumerator, DW_AT_name("USER_ErrorCode_numPwmTicksPerIsrTick_Low"), DW_AT_cons
    1007              $C$DW$112       .dwtag  DW_TAG_enumerator, DW_AT_name("USER_ErrorCode_numIsrTicksPerCtrlTick_High"), DW_AT_co
    1008              $C$DW$113       .dwtag  DW_TAG_enumerator, DW_AT_name("USER_ErrorCode_numIsrTicksPerCtrlTick_Low"), DW_AT_con
    1009              $C$DW$114       .dwtag  DW_TAG_enumerator, DW_AT_name("USER_ErrorCode_numCtrlTicksPerCurrentTick_High"), DW_A
    1010              $C$DW$115       .dwtag  DW_TAG_enumerator, DW_AT_name("USER_ErrorCode_numCtrlTicksPerCurrentTick_Low"), DW_AT
    1011              $C$DW$116       .dwtag  DW_TAG_enumerator, DW_AT_name("USER_ErrorCode_numCtrlTicksPerEstTick_High"), DW_AT_co
    1012              $C$DW$117       .dwtag  DW_TAG_enumerator, DW_AT_name("USER_ErrorCode_numCtrlTicksPerEstTick_Low"), DW_AT_con
    1013              $C$DW$118       .dwtag  DW_TAG_enumerator, DW_AT_name("USER_ErrorCode_numCtrlTicksPerSpeedTick_High"), DW_AT_
    1014              $C$DW$119       .dwtag  DW_TAG_enumerator, DW_AT_name("USER_ErrorCode_numCtrlTicksPerSpeedTick_Low"), DW_AT_c
    1015              $C$DW$120       .dwtag  DW_TAG_enumerator, DW_AT_name("USER_ErrorCode_numCtrlTicksPerTrajTick_High"), DW_AT_c
    1016              $C$DW$121       .dwtag  DW_TAG_enumerator, DW_AT_name("USER_ErrorCode_numCtrlTicksPerTrajTick_Low"), DW_AT_co
    1017              $C$DW$122       .dwtag  DW_TAG_enumerator, DW_AT_name("USER_ErrorCode_numCurrentSensors_High"), DW_AT_const_v
TMS320C2000 Assembler PC v6.4.9 Wed Dec 02 15:59:04 2015

Tools Copyright (c) 1996-2015 Texas Instruments Incorporated
C:\Users\ywcheng\AppData\Local\Temp\1536410                          PAGE   22

    1018              $C$DW$123       .dwtag  DW_TAG_enumerator, DW_AT_name("USER_ErrorCode_numCurrentSensors_Low"), DW_AT_const_va
    1019              $C$DW$124       .dwtag  DW_TAG_enumerator, DW_AT_name("USER_ErrorCode_numVoltageSensors_High"), DW_AT_const_v
    1020              $C$DW$125       .dwtag  DW_TAG_enumerator, DW_AT_name("USER_ErrorCode_numVoltageSensors_Low"), DW_AT_const_va
    1021              $C$DW$126       .dwtag  DW_TAG_enumerator, DW_AT_name("USER_ErrorCode_offsetPole_rps_High"), DW_AT_const_valu
    1022              $C$DW$127       .dwtag  DW_TAG_enumerator, DW_AT_name("USER_ErrorCode_offsetPole_rps_Low"), DW_AT_const_value
    1023              $C$DW$128       .dwtag  DW_TAG_enumerator, DW_AT_name("USER_ErrorCode_fluxPole_rps_High"), DW_AT_const_value(
    1024              $C$DW$129       .dwtag  DW_TAG_enumerator, DW_AT_name("USER_ErrorCode_fluxPole_rps_Low"), DW_AT_const_value(0
    1025              $C$DW$130       .dwtag  DW_TAG_enumerator, DW_AT_name("USER_ErrorCode_zeroSpeedLimit_High"), DW_AT_const_valu
    1026              $C$DW$131       .dwtag  DW_TAG_enumerator, DW_AT_name("USER_ErrorCode_zeroSpeedLimit_Low"), DW_AT_const_value
    1027              $C$DW$132       .dwtag  DW_TAG_enumerator, DW_AT_name("USER_ErrorCode_forceAngleFreq_Hz_High"), DW_AT_const_v
    1028              $C$DW$133       .dwtag  DW_TAG_enumerator, DW_AT_name("USER_ErrorCode_forceAngleFreq_Hz_Low"), DW_AT_const_va
    1029              $C$DW$134       .dwtag  DW_TAG_enumerator, DW_AT_name("USER_ErrorCode_maxAccel_Hzps_High"), DW_AT_const_value
    1030              $C$DW$135       .dwtag  DW_TAG_enumerator, DW_AT_name("USER_ErrorCode_maxAccel_Hzps_Low"), DW_AT_const_value(
    1031              $C$DW$136       .dwtag  DW_TAG_enumerator, DW_AT_name("USER_ErrorCode_maxAccel_est_Hzps_High"), DW_AT_const_v
    1032              $C$DW$137       .dwtag  DW_TAG_enumerator, DW_AT_name("USER_ErrorCode_maxAccel_est_Hzps_Low"), DW_AT_const_va
    1033              $C$DW$138       .dwtag  DW_TAG_enumerator, DW_AT_name("USER_ErrorCode_directionPole_rps_High"), DW_AT_const_v
    1034              $C$DW$139       .dwtag  DW_TAG_enumerator, DW_AT_name("USER_ErrorCode_directionPole_rps_Low"), DW_AT_const_va
    1035              $C$DW$140       .dwtag  DW_TAG_enumerator, DW_AT_name("USER_ErrorCode_speedPole_rps_High"), DW_AT_const_value
    1036              $C$DW$141       .dwtag  DW_TAG_enumerator, DW_AT_name("USER_ErrorCode_speedPole_rps_Low"), DW_AT_const_value(
    1037              $C$DW$142       .dwtag  DW_TAG_enumerator, DW_AT_name("USER_ErrorCode_dcBusPole_rps_High"), DW_AT_const_value
    1038              $C$DW$143       .dwtag  DW_TAG_enumerator, DW_AT_name("USER_ErrorCode_dcBusPole_rps_Low"), DW_AT_const_value(
    1039              $C$DW$144       .dwtag  DW_TAG_enumerator, DW_AT_name("USER_ErrorCode_fluxFraction_High"), DW_AT_const_value(
    1040              $C$DW$145       .dwtag  DW_TAG_enumerator, DW_AT_name("USER_ErrorCode_fluxFraction_Low"), DW_AT_const_value(0
    1041              $C$DW$146       .dwtag  DW_TAG_enumerator, DW_AT_name("USER_ErrorCode_indEst_speedMaxFraction_High"), DW_AT_c
    1042              $C$DW$147       .dwtag  DW_TAG_enumerator, DW_AT_name("USER_ErrorCode_indEst_speedMaxFraction_Low"), DW_AT_co
    1043              $C$DW$148       .dwtag  DW_TAG_enumerator, DW_AT_name("USER_ErrorCode_powerWarpGain_High"), DW_AT_const_value
    1044              $C$DW$149       .dwtag  DW_TAG_enumerator, DW_AT_name("USER_ErrorCode_powerWarpGain_Low"), DW_AT_const_value(
    1045              $C$DW$150       .dwtag  DW_TAG_enumerator, DW_AT_name("USER_ErrorCode_systemFreq_MHz_High"), DW_AT_const_valu
    1046              $C$DW$151       .dwtag  DW_TAG_enumerator, DW_AT_name("USER_ErrorCode_systemFreq_MHz_Low"), DW_AT_const_value
    1047              $C$DW$152       .dwtag  DW_TAG_enumerator, DW_AT_name("USER_ErrorCode_pwmFreq_kHz_High"), DW_AT_const_value(0
    1048              $C$DW$153       .dwtag  DW_TAG_enumerator, DW_AT_name("USER_ErrorCode_pwmFreq_kHz_Low"), DW_AT_const_value(0x
    1049              $C$DW$154       .dwtag  DW_TAG_enumerator, DW_AT_name("USER_ErrorCode_voltage_sf_High"), DW_AT_const_value(0x
    1050              $C$DW$155       .dwtag  DW_TAG_enumerator, DW_AT_name("USER_ErrorCode_voltage_sf_Low"), DW_AT_const_value(0x3
    1051              $C$DW$156       .dwtag  DW_TAG_enumerator, DW_AT_name("USER_ErrorCode_current_sf_High"), DW_AT_const_value(0x
    1052              $C$DW$157       .dwtag  DW_TAG_enumerator, DW_AT_name("USER_ErrorCode_current_sf_Low"), DW_AT_const_value(0x3
    1053              $C$DW$158       .dwtag  DW_TAG_enumerator, DW_AT_name("USER_ErrorCode_voltageFilterPole_Hz_High"), DW_AT_cons
    1054              $C$DW$159       .dwtag  DW_TAG_enumerator, DW_AT_name("USER_ErrorCode_voltageFilterPole_Hz_Low"), DW_AT_const
    1055              $C$DW$160       .dwtag  DW_TAG_enumerator, DW_AT_name("USER_ErrorCode_maxVsMag_pu_High"), DW_AT_const_value(0
    1056              $C$DW$161       .dwtag  DW_TAG_enumerator, DW_AT_name("USER_ErrorCode_maxVsMag_pu_Low"), DW_AT_const_value(0x
    1057              $C$DW$162       .dwtag  DW_TAG_enumerator, DW_AT_name("USER_ErrorCode_estKappa_High"), DW_AT_const_value(0x3b
    1058              $C$DW$163       .dwtag  DW_TAG_enumerator, DW_AT_name("USER_ErrorCode_estKappa_Low"), DW_AT_const_value(0x3c)
    1059              $C$DW$164       .dwtag  DW_TAG_enumerator, DW_AT_name("USER_ErrorCode_motor_type_Unknown"), DW_AT_const_value
    1060              $C$DW$165       .dwtag  DW_TAG_enumerator, DW_AT_name("USER_ErrorCode_motor_numPolePairs_High"), DW_AT_const_
    1061              $C$DW$166       .dwtag  DW_TAG_enumerator, DW_AT_name("USER_ErrorCode_motor_numPolePairs_Low"), DW_AT_const_v
    1062              $C$DW$167       .dwtag  DW_TAG_enumerator, DW_AT_name("USER_ErrorCode_motor_ratedFlux_High"), DW_AT_const_val
    1063              $C$DW$168       .dwtag  DW_TAG_enumerator, DW_AT_name("USER_ErrorCode_motor_ratedFlux_Low"), DW_AT_const_valu
    1064              $C$DW$169       .dwtag  DW_TAG_enumerator, DW_AT_name("USER_ErrorCode_motor_Rr_High"), DW_AT_const_value(0x42
    1065              $C$DW$170       .dwtag  DW_TAG_enumerator, DW_AT_name("USER_ErrorCode_motor_Rr_Low"), DW_AT_const_value(0x43)
    1066              $C$DW$171       .dwtag  DW_TAG_enumerator, DW_AT_name("USER_ErrorCode_motor_Rs_High"), DW_AT_const_value(0x44
    1067              $C$DW$172       .dwtag  DW_TAG_enumerator, DW_AT_name("USER_ErrorCode_motor_Rs_Low"), DW_AT_const_value(0x45)
    1068              $C$DW$173       .dwtag  DW_TAG_enumerator, DW_AT_name("USER_ErrorCode_motor_Ls_d_High"), DW_AT_const_value(0x
    1069              $C$DW$174       .dwtag  DW_TAG_enumerator, DW_AT_name("USER_ErrorCode_motor_Ls_d_Low"), DW_AT_const_value(0x4
    1070              $C$DW$175       .dwtag  DW_TAG_enumerator, DW_AT_name("USER_ErrorCode_motor_Ls_q_High"), DW_AT_const_value(0x
    1071              $C$DW$176       .dwtag  DW_TAG_enumerator, DW_AT_name("USER_ErrorCode_motor_Ls_q_Low"), DW_AT_const_value(0x4
    1072              $C$DW$177       .dwtag  DW_TAG_enumerator, DW_AT_name("USER_ErrorCode_maxCurrent_High"), DW_AT_const_value(0x
TMS320C2000 Assembler PC v6.4.9 Wed Dec 02 15:59:04 2015

Tools Copyright (c) 1996-2015 Texas Instruments Incorporated
C:\Users\ywcheng\AppData\Local\Temp\1536410                          PAGE   23

    1073              $C$DW$178       .dwtag  DW_TAG_enumerator, DW_AT_name("USER_ErrorCode_maxCurrent_Low"), DW_AT_const_value(0x4
    1074              $C$DW$179       .dwtag  DW_TAG_enumerator, DW_AT_name("USER_ErrorCode_maxCurrent_resEst_High"), DW_AT_const_v
    1075              $C$DW$180       .dwtag  DW_TAG_enumerator, DW_AT_name("USER_ErrorCode_maxCurrent_resEst_Low"), DW_AT_const_va
    1076              $C$DW$181       .dwtag  DW_TAG_enumerator, DW_AT_name("USER_ErrorCode_maxCurrent_indEst_High"), DW_AT_const_v
    1077              $C$DW$182       .dwtag  DW_TAG_enumerator, DW_AT_name("USER_ErrorCode_maxCurrent_indEst_Low"), DW_AT_const_va
    1078              $C$DW$183       .dwtag  DW_TAG_enumerator, DW_AT_name("USER_ErrorCode_maxCurrentSlope_High"), DW_AT_const_val
    1079              $C$DW$184       .dwtag  DW_TAG_enumerator, DW_AT_name("USER_ErrorCode_maxCurrentSlope_Low"), DW_AT_const_valu
    1080              $C$DW$185       .dwtag  DW_TAG_enumerator, DW_AT_name("USER_ErrorCode_maxCurrentSlope_powerWarp_High"), DW_AT
    1081              $C$DW$186       .dwtag  DW_TAG_enumerator, DW_AT_name("USER_ErrorCode_maxCurrentSlope_powerWarp_Low"), DW_AT_
    1082              $C$DW$187       .dwtag  DW_TAG_enumerator, DW_AT_name("USER_ErrorCode_IdRated_High"), DW_AT_const_value(0x54)
    1083              $C$DW$188       .dwtag  DW_TAG_enumerator, DW_AT_name("USER_ErrorCode_IdRated_Low"), DW_AT_const_value(0x55)
    1084              $C$DW$189       .dwtag  DW_TAG_enumerator, DW_AT_name("USER_ErrorCode_IdRatedFraction_indEst_High"), DW_AT_co
    1085              $C$DW$190       .dwtag  DW_TAG_enumerator, DW_AT_name("USER_ErrorCode_IdRatedFraction_indEst_Low"), DW_AT_con
    1086              $C$DW$191       .dwtag  DW_TAG_enumerator, DW_AT_name("USER_ErrorCode_IdRatedFraction_ratedFlux_High"), DW_AT
    1087              $C$DW$192       .dwtag  DW_TAG_enumerator, DW_AT_name("USER_ErrorCode_IdRatedFraction_ratedFlux_Low"), DW_AT_
    1088              $C$DW$193       .dwtag  DW_TAG_enumerator, DW_AT_name("USER_ErrorCode_IdRated_delta_High"), DW_AT_const_value
    1089              $C$DW$194       .dwtag  DW_TAG_enumerator, DW_AT_name("USER_ErrorCode_IdRated_delta_Low"), DW_AT_const_value(
    1090              $C$DW$195       .dwtag  DW_TAG_enumerator, DW_AT_name("USER_ErrorCode_fluxEstFreq_Hz_High"), DW_AT_const_valu
    1091              $C$DW$196       .dwtag  DW_TAG_enumerator, DW_AT_name("USER_ErrorCode_fluxEstFreq_Hz_Low"), DW_AT_const_value
    1092              $C$DW$197       .dwtag  DW_TAG_enumerator, DW_AT_name("USER_ErrorCode_ctrlFreq_Hz_High"), DW_AT_const_value(0
    1093              $C$DW$198       .dwtag  DW_TAG_enumerator, DW_AT_name("USER_ErrorCode_ctrlFreq_Hz_Low"), DW_AT_const_value(0x
    1094              $C$DW$199       .dwtag  DW_TAG_enumerator, DW_AT_name("USER_ErrorCode_estFreq_Hz_High"), DW_AT_const_value(0x
    1095              $C$DW$200       .dwtag  DW_TAG_enumerator, DW_AT_name("USER_ErrorCode_estFreq_Hz_Low"), DW_AT_const_value(0x6
    1096              $C$DW$201       .dwtag  DW_TAG_enumerator, DW_AT_name("USER_ErrorCode_RoverL_estFreq_Hz_High"), DW_AT_const_v
    1097              $C$DW$202       .dwtag  DW_TAG_enumerator, DW_AT_name("USER_ErrorCode_RoverL_estFreq_Hz_Low"), DW_AT_const_va
    1098              $C$DW$203       .dwtag  DW_TAG_enumerator, DW_AT_name("USER_ErrorCode_trajFreq_Hz_High"), DW_AT_const_value(0
    1099              $C$DW$204       .dwtag  DW_TAG_enumerator, DW_AT_name("USER_ErrorCode_trajFreq_Hz_Low"), DW_AT_const_value(0x
    1100              $C$DW$205       .dwtag  DW_TAG_enumerator, DW_AT_name("USER_ErrorCode_ctrlPeriod_sec_High"), DW_AT_const_valu
    1101              $C$DW$206       .dwtag  DW_TAG_enumerator, DW_AT_name("USER_ErrorCode_ctrlPeriod_sec_Low"), DW_AT_const_value
    1102              $C$DW$207       .dwtag  DW_TAG_enumerator, DW_AT_name("USER_ErrorCode_maxNegativeIdCurrent_a_High"), DW_AT_co
    1103              $C$DW$208       .dwtag  DW_TAG_enumerator, DW_AT_name("USER_ErrorCode_maxNegativeIdCurrent_a_Low"), DW_AT_con
    1104              $C$DW$209       .dwtag  DW_TAG_enumerator, DW_AT_name("USER_numErrorCodes"), DW_AT_const_value(0x6a)
    1105                      .dwendtag $C$DW$T$88
    1106              
    1107              $C$DW$T$89      .dwtag  DW_TAG_typedef, DW_AT_name("USER_ErrorCode_e")
    1108                      .dwattr $C$DW$T$89, DW_AT_type(*$C$DW$T$88)
    1109                      .dwattr $C$DW$T$89, DW_AT_language(DW_LANG_C)
    1110              
    1111              $C$DW$T$115     .dwtag  DW_TAG_enumeration_type
    1112                      .dwattr $C$DW$T$115, DW_AT_byte_size(0x01)
    1113              $C$DW$210       .dwtag  DW_TAG_enumerator, DW_AT_name("MOTOR_Type_Induction"), DW_AT_const_value(0x00)
    1114              $C$DW$211       .dwtag  DW_TAG_enumerator, DW_AT_name("MOTOR_Type_Pm"), DW_AT_const_value(0x01)
    1115                      .dwendtag $C$DW$T$115
    1116              
    1117              $C$DW$T$116     .dwtag  DW_TAG_typedef, DW_AT_name("MOTOR_Type_e")
    1118                      .dwattr $C$DW$T$116, DW_AT_type(*$C$DW$T$115)
    1119                      .dwattr $C$DW$T$116, DW_AT_language(DW_LANG_C)
    1120              
    1121              $C$DW$T$129     .dwtag  DW_TAG_enumeration_type
    1122                      .dwattr $C$DW$T$129, DW_AT_byte_size(0x01)
    1123              $C$DW$212       .dwtag  DW_TAG_enumerator, DW_AT_name("ADC_IntNumber_1"), DW_AT_const_value(0x00)
    1124              $C$DW$213       .dwtag  DW_TAG_enumerator, DW_AT_name("ADC_IntNumber_2"), DW_AT_const_value(0x01)
    1125              $C$DW$214       .dwtag  DW_TAG_enumerator, DW_AT_name("ADC_IntNumber_3"), DW_AT_const_value(0x02)
    1126              $C$DW$215       .dwtag  DW_TAG_enumerator, DW_AT_name("ADC_IntNumber_4"), DW_AT_const_value(0x03)
    1127              $C$DW$216       .dwtag  DW_TAG_enumerator, DW_AT_name("ADC_IntNumber_5"), DW_AT_const_value(0x04)
TMS320C2000 Assembler PC v6.4.9 Wed Dec 02 15:59:04 2015

Tools Copyright (c) 1996-2015 Texas Instruments Incorporated
C:\Users\ywcheng\AppData\Local\Temp\1536410                          PAGE   24

    1128              $C$DW$217       .dwtag  DW_TAG_enumerator, DW_AT_name("ADC_IntNumber_6"), DW_AT_const_value(0x05)
    1129              $C$DW$218       .dwtag  DW_TAG_enumerator, DW_AT_name("ADC_IntNumber_7"), DW_AT_const_value(0x06)
    1130              $C$DW$219       .dwtag  DW_TAG_enumerator, DW_AT_name("ADC_IntNumber_8"), DW_AT_const_value(0x07)
    1131              $C$DW$220       .dwtag  DW_TAG_enumerator, DW_AT_name("ADC_IntNumber_9"), DW_AT_const_value(0x08)
    1132              $C$DW$221       .dwtag  DW_TAG_enumerator, DW_AT_name("ADC_IntNumber_1HP"), DW_AT_const_value(0x09)
    1133              $C$DW$222       .dwtag  DW_TAG_enumerator, DW_AT_name("ADC_IntNumber_2HP"), DW_AT_const_value(0x0a)
    1134              $C$DW$223       .dwtag  DW_TAG_enumerator, DW_AT_name("ADC_IntNumber_9HP"), DW_AT_const_value(0x0e)
    1135                      .dwendtag $C$DW$T$129
    1136              
    1137              $C$DW$T$130     .dwtag  DW_TAG_typedef, DW_AT_name("ADC_IntNumber_e")
    1138                      .dwattr $C$DW$T$130, DW_AT_type(*$C$DW$T$129)
    1139                      .dwattr $C$DW$T$130, DW_AT_language(DW_LANG_C)
    1140              
    1141              $C$DW$T$132     .dwtag  DW_TAG_enumeration_type
    1142                      .dwattr $C$DW$T$132, DW_AT_byte_size(0x01)
    1143              $C$DW$224       .dwtag  DW_TAG_enumerator, DW_AT_name("ADC_ResultNumber_0"), DW_AT_const_value(0x00)
    1144              $C$DW$225       .dwtag  DW_TAG_enumerator, DW_AT_name("ADC_ResultNumber_1"), DW_AT_const_value(0x01)
    1145              $C$DW$226       .dwtag  DW_TAG_enumerator, DW_AT_name("ADC_ResultNumber_2"), DW_AT_const_value(0x02)
    1146              $C$DW$227       .dwtag  DW_TAG_enumerator, DW_AT_name("ADC_ResultNumber_3"), DW_AT_const_value(0x03)
    1147              $C$DW$228       .dwtag  DW_TAG_enumerator, DW_AT_name("ADC_ResultNumber_4"), DW_AT_const_value(0x04)
    1148              $C$DW$229       .dwtag  DW_TAG_enumerator, DW_AT_name("ADC_ResultNumber_5"), DW_AT_const_value(0x05)
    1149              $C$DW$230       .dwtag  DW_TAG_enumerator, DW_AT_name("ADC_ResultNumber_6"), DW_AT_const_value(0x06)
    1150              $C$DW$231       .dwtag  DW_TAG_enumerator, DW_AT_name("ADC_ResultNumber_7"), DW_AT_const_value(0x07)
    1151              $C$DW$232       .dwtag  DW_TAG_enumerator, DW_AT_name("ADC_ResultNumber_8"), DW_AT_const_value(0x08)
    1152              $C$DW$233       .dwtag  DW_TAG_enumerator, DW_AT_name("ADC_ResultNumber_9"), DW_AT_const_value(0x09)
    1153              $C$DW$234       .dwtag  DW_TAG_enumerator, DW_AT_name("ADC_ResultNumber_10"), DW_AT_const_value(0x0a)
    1154              $C$DW$235       .dwtag  DW_TAG_enumerator, DW_AT_name("ADC_ResultNumber_11"), DW_AT_const_value(0x0b)
    1155              $C$DW$236       .dwtag  DW_TAG_enumerator, DW_AT_name("ADC_ResultNumber_12"), DW_AT_const_value(0x0c)
    1156              $C$DW$237       .dwtag  DW_TAG_enumerator, DW_AT_name("ADC_ResultNumber_13"), DW_AT_const_value(0x0d)
    1157              $C$DW$238       .dwtag  DW_TAG_enumerator, DW_AT_name("ADC_ResultNumber_14"), DW_AT_const_value(0x0e)
    1158              $C$DW$239       .dwtag  DW_TAG_enumerator, DW_AT_name("ADC_ResultNumber_15"), DW_AT_const_value(0x0f)
    1159                      .dwendtag $C$DW$T$132
    1160              
    1161              $C$DW$T$133     .dwtag  DW_TAG_typedef, DW_AT_name("ADC_ResultNumber_e")
    1162                      .dwattr $C$DW$T$133, DW_AT_type(*$C$DW$T$132)
    1163                      .dwattr $C$DW$T$133, DW_AT_language(DW_LANG_C)
    1164              
    1165              $C$DW$T$135     .dwtag  DW_TAG_enumeration_type
    1166                      .dwattr $C$DW$T$135, DW_AT_byte_size(0x01)
    1167              $C$DW$240       .dwtag  DW_TAG_enumerator, DW_AT_name("GPIO_Number_0"), DW_AT_const_value(0x00)
    1168              $C$DW$241       .dwtag  DW_TAG_enumerator, DW_AT_name("GPIO_Number_1"), DW_AT_const_value(0x01)
    1169              $C$DW$242       .dwtag  DW_TAG_enumerator, DW_AT_name("GPIO_Number_2"), DW_AT_const_value(0x02)
    1170              $C$DW$243       .dwtag  DW_TAG_enumerator, DW_AT_name("GPIO_Number_3"), DW_AT_const_value(0x03)
    1171              $C$DW$244       .dwtag  DW_TAG_enumerator, DW_AT_name("GPIO_Number_4"), DW_AT_const_value(0x04)
    1172              $C$DW$245       .dwtag  DW_TAG_enumerator, DW_AT_name("GPIO_Number_5"), DW_AT_const_value(0x05)
    1173              $C$DW$246       .dwtag  DW_TAG_enumerator, DW_AT_name("GPIO_Number_6"), DW_AT_const_value(0x06)
    1174              $C$DW$247       .dwtag  DW_TAG_enumerator, DW_AT_name("GPIO_Number_7"), DW_AT_const_value(0x07)
    1175              $C$DW$248       .dwtag  DW_TAG_enumerator, DW_AT_name("GPIO_Rsvd_8"), DW_AT_const_value(0x08)
    1176              $C$DW$249       .dwtag  DW_TAG_enumerator, DW_AT_name("GPIO_Rsvd_9"), DW_AT_const_value(0x09)
    1177              $C$DW$250       .dwtag  DW_TAG_enumerator, DW_AT_name("GPIO_Rsvd_10"), DW_AT_const_value(0x0a)
    1178              $C$DW$251       .dwtag  DW_TAG_enumerator, DW_AT_name("GPIO_Rsvd_11"), DW_AT_const_value(0x0b)
    1179              $C$DW$252       .dwtag  DW_TAG_enumerator, DW_AT_name("GPIO_Number_12"), DW_AT_const_value(0x0c)
    1180              $C$DW$253       .dwtag  DW_TAG_enumerator, DW_AT_name("GPIO_Rsvd_13"), DW_AT_const_value(0x0d)
    1181              $C$DW$254       .dwtag  DW_TAG_enumerator, DW_AT_name("GPIO_Rsvd_14"), DW_AT_const_value(0x0e)
    1182              $C$DW$255       .dwtag  DW_TAG_enumerator, DW_AT_name("GPIO_Rsvd_15"), DW_AT_const_value(0x0f)
TMS320C2000 Assembler PC v6.4.9 Wed Dec 02 15:59:04 2015

Tools Copyright (c) 1996-2015 Texas Instruments Incorporated
C:\Users\ywcheng\AppData\Local\Temp\1536410                          PAGE   25

    1183              $C$DW$256       .dwtag  DW_TAG_enumerator, DW_AT_name("GPIO_Number_16"), DW_AT_const_value(0x10)
    1184              $C$DW$257       .dwtag  DW_TAG_enumerator, DW_AT_name("GPIO_Number_17"), DW_AT_const_value(0x11)
    1185              $C$DW$258       .dwtag  DW_TAG_enumerator, DW_AT_name("GPIO_Number_18"), DW_AT_const_value(0x12)
    1186              $C$DW$259       .dwtag  DW_TAG_enumerator, DW_AT_name("GPIO_Number_19"), DW_AT_const_value(0x13)
    1187              $C$DW$260       .dwtag  DW_TAG_enumerator, DW_AT_name("GPIO_Rsvd_20"), DW_AT_const_value(0x14)
    1188              $C$DW$261       .dwtag  DW_TAG_enumerator, DW_AT_name("GPIO_Rsvd_21"), DW_AT_const_value(0x15)
    1189              $C$DW$262       .dwtag  DW_TAG_enumerator, DW_AT_name("GPIO_Rsvd_22"), DW_AT_const_value(0x16)
    1190              $C$DW$263       .dwtag  DW_TAG_enumerator, DW_AT_name("GPIO_Rsvd_23"), DW_AT_const_value(0x17)
    1191              $C$DW$264       .dwtag  DW_TAG_enumerator, DW_AT_name("GPIO_Rsvd_24"), DW_AT_const_value(0x18)
    1192              $C$DW$265       .dwtag  DW_TAG_enumerator, DW_AT_name("GPIO_Rsvd_25"), DW_AT_const_value(0x19)
    1193              $C$DW$266       .dwtag  DW_TAG_enumerator, DW_AT_name("GPIO_Rsvd_26"), DW_AT_const_value(0x1a)
    1194              $C$DW$267       .dwtag  DW_TAG_enumerator, DW_AT_name("GPIO_Rsvd_27"), DW_AT_const_value(0x1b)
    1195              $C$DW$268       .dwtag  DW_TAG_enumerator, DW_AT_name("GPIO_Number_28"), DW_AT_const_value(0x1c)
    1196              $C$DW$269       .dwtag  DW_TAG_enumerator, DW_AT_name("GPIO_Number_29"), DW_AT_const_value(0x1d)
    1197              $C$DW$270       .dwtag  DW_TAG_enumerator, DW_AT_name("GPIO_Rsvd_30"), DW_AT_const_value(0x1e)
    1198              $C$DW$271       .dwtag  DW_TAG_enumerator, DW_AT_name("GPIO_Rsvd_31"), DW_AT_const_value(0x1f)
    1199              $C$DW$272       .dwtag  DW_TAG_enumerator, DW_AT_name("GPIO_Number_32"), DW_AT_const_value(0x20)
    1200              $C$DW$273       .dwtag  DW_TAG_enumerator, DW_AT_name("GPIO_Number_33"), DW_AT_const_value(0x21)
    1201              $C$DW$274       .dwtag  DW_TAG_enumerator, DW_AT_name("GPIO_Number_34"), DW_AT_const_value(0x22)
    1202              $C$DW$275       .dwtag  DW_TAG_enumerator, DW_AT_name("GPIO_Number_35"), DW_AT_const_value(0x23)
    1203              $C$DW$276       .dwtag  DW_TAG_enumerator, DW_AT_name("GPIO_Number_36"), DW_AT_const_value(0x24)
    1204              $C$DW$277       .dwtag  DW_TAG_enumerator, DW_AT_name("GPIO_Number_37"), DW_AT_const_value(0x25)
    1205              $C$DW$278       .dwtag  DW_TAG_enumerator, DW_AT_name("GPIO_Number_38"), DW_AT_const_value(0x26)
    1206              $C$DW$279       .dwtag  DW_TAG_enumerator, DW_AT_name("GPIO_numGpios"), DW_AT_const_value(0x27)
    1207                      .dwendtag $C$DW$T$135
    1208              
    1209              $C$DW$T$136     .dwtag  DW_TAG_typedef, DW_AT_name("GPIO_Number_e")
    1210                      .dwattr $C$DW$T$136, DW_AT_type(*$C$DW$T$135)
    1211                      .dwattr $C$DW$T$136, DW_AT_language(DW_LANG_C)
    1212              $C$DW$280       .dwtag  DW_TAG_TI_far_type
    1213                      .dwattr $C$DW$280, DW_AT_type(*$C$DW$T$136)
    1214              $C$DW$T$137     .dwtag  DW_TAG_const_type
    1215                      .dwattr $C$DW$T$137, DW_AT_type(*$C$DW$280)
    1216              
    1217              $C$DW$T$138     .dwtag  DW_TAG_enumeration_type
    1218                      .dwattr $C$DW$T$138, DW_AT_byte_size(0x01)
    1219              $C$DW$281       .dwtag  DW_TAG_enumerator, DW_AT_name("PIE_GroupNumber_1"), DW_AT_const_value(0x00)
    1220              $C$DW$282       .dwtag  DW_TAG_enumerator, DW_AT_name("PIE_GroupNumber_2"), DW_AT_const_value(0x01)
    1221              $C$DW$283       .dwtag  DW_TAG_enumerator, DW_AT_name("PIE_GroupNumber_3"), DW_AT_const_value(0x02)
    1222              $C$DW$284       .dwtag  DW_TAG_enumerator, DW_AT_name("PIE_GroupNumber_4"), DW_AT_const_value(0x03)
    1223              $C$DW$285       .dwtag  DW_TAG_enumerator, DW_AT_name("PIE_GroupNumber_5"), DW_AT_const_value(0x04)
    1224              $C$DW$286       .dwtag  DW_TAG_enumerator, DW_AT_name("PIE_GroupNumber_6"), DW_AT_const_value(0x05)
    1225              $C$DW$287       .dwtag  DW_TAG_enumerator, DW_AT_name("PIE_GroupNumber_7"), DW_AT_const_value(0x06)
    1226              $C$DW$288       .dwtag  DW_TAG_enumerator, DW_AT_name("PIE_GroupNumber_8"), DW_AT_const_value(0x07)
    1227              $C$DW$289       .dwtag  DW_TAG_enumerator, DW_AT_name("PIE_GroupNumber_9"), DW_AT_const_value(0x08)
    1228              $C$DW$290       .dwtag  DW_TAG_enumerator, DW_AT_name("PIE_GroupNumber_10"), DW_AT_const_value(0x09)
    1229              $C$DW$291       .dwtag  DW_TAG_enumerator, DW_AT_name("PIE_GroupNumber_11"), DW_AT_const_value(0x0a)
    1230              $C$DW$292       .dwtag  DW_TAG_enumerator, DW_AT_name("PIE_GroupNumber_12"), DW_AT_const_value(0x0b)
    1231                      .dwendtag $C$DW$T$138
    1232              
    1233              $C$DW$T$139     .dwtag  DW_TAG_typedef, DW_AT_name("PIE_GroupNumber_e")
    1234                      .dwattr $C$DW$T$139, DW_AT_type(*$C$DW$T$138)
    1235                      .dwattr $C$DW$T$139, DW_AT_language(DW_LANG_C)
    1236              
    1237              $C$DW$T$29      .dwtag  DW_TAG_structure_type
TMS320C2000 Assembler PC v6.4.9 Wed Dec 02 15:59:04 2015

Tools Copyright (c) 1996-2015 Texas Instruments Incorporated
C:\Users\ywcheng\AppData\Local\Temp\1536410                          PAGE   26

    1238                      .dwattr $C$DW$T$29, DW_AT_name("_ADC_Obj_")
    1239                      .dwattr $C$DW$T$29, DW_AT_byte_size(0x6650)
    1240              $C$DW$293       .dwtag  DW_TAG_member
    1241                      .dwattr $C$DW$293, DW_AT_type(*$C$DW$T$23)
    1242                      .dwattr $C$DW$293, DW_AT_name("ADCRESULT")
    1243                      .dwattr $C$DW$293, DW_AT_TI_symbol_name("_ADCRESULT")
    1244                      .dwattr $C$DW$293, DW_AT_data_member_location[DW_OP_plus_uconst 0x0]
    1245                      .dwattr $C$DW$293, DW_AT_accessibility(DW_ACCESS_public)
    1246              $C$DW$294       .dwtag  DW_TAG_member
    1247                      .dwattr $C$DW$294, DW_AT_type(*$C$DW$T$24)
    1248                      .dwattr $C$DW$294, DW_AT_name("resvd_1")
    1249                      .dwattr $C$DW$294, DW_AT_TI_symbol_name("_resvd_1")
    1250                      .dwattr $C$DW$294, DW_AT_data_member_location[DW_OP_plus_uconst 0x10]
    1251                      .dwattr $C$DW$294, DW_AT_accessibility(DW_ACCESS_public)
    1252              $C$DW$295       .dwtag  DW_TAG_member
    1253                      .dwattr $C$DW$295, DW_AT_type(*$C$DW$T$22)
    1254                      .dwattr $C$DW$295, DW_AT_name("ADCCTL1")
    1255                      .dwattr $C$DW$295, DW_AT_TI_symbol_name("_ADCCTL1")
    1256                      .dwattr $C$DW$295, DW_AT_data_member_location[DW_OP_plus_uconst 0x6600]
    1257                      .dwattr $C$DW$295, DW_AT_accessibility(DW_ACCESS_public)
    1258              $C$DW$296       .dwtag  DW_TAG_member
    1259                      .dwattr $C$DW$296, DW_AT_type(*$C$DW$T$22)
    1260                      .dwattr $C$DW$296, DW_AT_name("ADCCTL2")
    1261                      .dwattr $C$DW$296, DW_AT_TI_symbol_name("_ADCCTL2")
    1262                      .dwattr $C$DW$296, DW_AT_data_member_location[DW_OP_plus_uconst 0x6601]
    1263                      .dwattr $C$DW$296, DW_AT_accessibility(DW_ACCESS_public)
    1264              $C$DW$297       .dwtag  DW_TAG_member
    1265                      .dwattr $C$DW$297, DW_AT_type(*$C$DW$T$25)
    1266                      .dwattr $C$DW$297, DW_AT_name("rsvd_2")
    1267                      .dwattr $C$DW$297, DW_AT_TI_symbol_name("_rsvd_2")
    1268                      .dwattr $C$DW$297, DW_AT_data_member_location[DW_OP_plus_uconst 0x6602]
    1269                      .dwattr $C$DW$297, DW_AT_accessibility(DW_ACCESS_public)
    1270              $C$DW$298       .dwtag  DW_TAG_member
    1271                      .dwattr $C$DW$298, DW_AT_type(*$C$DW$T$22)
    1272                      .dwattr $C$DW$298, DW_AT_name("ADCINTFLG")
    1273                      .dwattr $C$DW$298, DW_AT_TI_symbol_name("_ADCINTFLG")
    1274                      .dwattr $C$DW$298, DW_AT_data_member_location[DW_OP_plus_uconst 0x6604]
    1275                      .dwattr $C$DW$298, DW_AT_accessibility(DW_ACCESS_public)
    1276              $C$DW$299       .dwtag  DW_TAG_member
    1277                      .dwattr $C$DW$299, DW_AT_type(*$C$DW$T$22)
    1278                      .dwattr $C$DW$299, DW_AT_name("ADCINTFLGCLR")
    1279                      .dwattr $C$DW$299, DW_AT_TI_symbol_name("_ADCINTFLGCLR")
    1280                      .dwattr $C$DW$299, DW_AT_data_member_location[DW_OP_plus_uconst 0x6605]
    1281                      .dwattr $C$DW$299, DW_AT_accessibility(DW_ACCESS_public)
    1282              $C$DW$300       .dwtag  DW_TAG_member
    1283                      .dwattr $C$DW$300, DW_AT_type(*$C$DW$T$22)
    1284                      .dwattr $C$DW$300, DW_AT_name("ADCINTOVF")
    1285                      .dwattr $C$DW$300, DW_AT_TI_symbol_name("_ADCINTOVF")
    1286                      .dwattr $C$DW$300, DW_AT_data_member_location[DW_OP_plus_uconst 0x6606]
    1287                      .dwattr $C$DW$300, DW_AT_accessibility(DW_ACCESS_public)
    1288              $C$DW$301       .dwtag  DW_TAG_member
    1289                      .dwattr $C$DW$301, DW_AT_type(*$C$DW$T$22)
    1290                      .dwattr $C$DW$301, DW_AT_name("ADCINTOVFCLR")
    1291                      .dwattr $C$DW$301, DW_AT_TI_symbol_name("_ADCINTOVFCLR")
    1292                      .dwattr $C$DW$301, DW_AT_data_member_location[DW_OP_plus_uconst 0x6607]
TMS320C2000 Assembler PC v6.4.9 Wed Dec 02 15:59:04 2015

Tools Copyright (c) 1996-2015 Texas Instruments Incorporated
C:\Users\ywcheng\AppData\Local\Temp\1536410                          PAGE   27

    1293                      .dwattr $C$DW$301, DW_AT_accessibility(DW_ACCESS_public)
    1294              $C$DW$302       .dwtag  DW_TAG_member
    1295                      .dwattr $C$DW$302, DW_AT_type(*$C$DW$T$26)
    1296                      .dwattr $C$DW$302, DW_AT_name("INTSELxNy")
    1297                      .dwattr $C$DW$302, DW_AT_TI_symbol_name("_INTSELxNy")
    1298                      .dwattr $C$DW$302, DW_AT_data_member_location[DW_OP_plus_uconst 0x6608]
    1299                      .dwattr $C$DW$302, DW_AT_accessibility(DW_ACCESS_public)
    1300              $C$DW$303       .dwtag  DW_TAG_member
    1301                      .dwattr $C$DW$303, DW_AT_type(*$C$DW$T$27)
    1302                      .dwattr $C$DW$303, DW_AT_name("rsvd_3")
    1303                      .dwattr $C$DW$303, DW_AT_TI_symbol_name("_rsvd_3")
    1304                      .dwattr $C$DW$303, DW_AT_data_member_location[DW_OP_plus_uconst 0x660d]
    1305                      .dwattr $C$DW$303, DW_AT_accessibility(DW_ACCESS_public)
    1306              $C$DW$304       .dwtag  DW_TAG_member
    1307                      .dwattr $C$DW$304, DW_AT_type(*$C$DW$T$22)
    1308                      .dwattr $C$DW$304, DW_AT_name("SOCPRICTRL")
    1309                      .dwattr $C$DW$304, DW_AT_TI_symbol_name("_SOCPRICTRL")
    1310                      .dwattr $C$DW$304, DW_AT_data_member_location[DW_OP_plus_uconst 0x6610]
    1311                      .dwattr $C$DW$304, DW_AT_accessibility(DW_ACCESS_public)
    1312              $C$DW$305       .dwtag  DW_TAG_member
    1313                      .dwattr $C$DW$305, DW_AT_type(*$C$DW$T$22)
    1314                      .dwattr $C$DW$305, DW_AT_name("rsvd_4")
    1315                      .dwattr $C$DW$305, DW_AT_TI_symbol_name("_rsvd_4")
    1316                      .dwattr $C$DW$305, DW_AT_data_member_location[DW_OP_plus_uconst 0x6611]
    1317                      .dwattr $C$DW$305, DW_AT_accessibility(DW_ACCESS_public)
    1318              $C$DW$306       .dwtag  DW_TAG_member
    1319                      .dwattr $C$DW$306, DW_AT_type(*$C$DW$T$22)
    1320                      .dwattr $C$DW$306, DW_AT_name("ADCSAMPLEMODE")
    1321                      .dwattr $C$DW$306, DW_AT_TI_symbol_name("_ADCSAMPLEMODE")
    1322                      .dwattr $C$DW$306, DW_AT_data_member_location[DW_OP_plus_uconst 0x6612]
    1323                      .dwattr $C$DW$306, DW_AT_accessibility(DW_ACCESS_public)
    1324              $C$DW$307       .dwtag  DW_TAG_member
    1325                      .dwattr $C$DW$307, DW_AT_type(*$C$DW$T$22)
    1326                      .dwattr $C$DW$307, DW_AT_name("rsvd_5")
    1327                      .dwattr $C$DW$307, DW_AT_TI_symbol_name("_rsvd_5")
    1328                      .dwattr $C$DW$307, DW_AT_data_member_location[DW_OP_plus_uconst 0x6613]
    1329                      .dwattr $C$DW$307, DW_AT_accessibility(DW_ACCESS_public)
    1330              $C$DW$308       .dwtag  DW_TAG_member
    1331                      .dwattr $C$DW$308, DW_AT_type(*$C$DW$T$22)
    1332                      .dwattr $C$DW$308, DW_AT_name("ADCINTSOCSEL1")
    1333                      .dwattr $C$DW$308, DW_AT_TI_symbol_name("_ADCINTSOCSEL1")
    1334                      .dwattr $C$DW$308, DW_AT_data_member_location[DW_OP_plus_uconst 0x6614]
    1335                      .dwattr $C$DW$308, DW_AT_accessibility(DW_ACCESS_public)
    1336              $C$DW$309       .dwtag  DW_TAG_member
    1337                      .dwattr $C$DW$309, DW_AT_type(*$C$DW$T$22)
    1338                      .dwattr $C$DW$309, DW_AT_name("ADCINTSOCSEL2")
    1339                      .dwattr $C$DW$309, DW_AT_TI_symbol_name("_ADCINTSOCSEL2")
    1340                      .dwattr $C$DW$309, DW_AT_data_member_location[DW_OP_plus_uconst 0x6615]
    1341                      .dwattr $C$DW$309, DW_AT_accessibility(DW_ACCESS_public)
    1342              $C$DW$310       .dwtag  DW_TAG_member
    1343                      .dwattr $C$DW$310, DW_AT_type(*$C$DW$T$25)
    1344                      .dwattr $C$DW$310, DW_AT_name("rsvd_6")
    1345                      .dwattr $C$DW$310, DW_AT_TI_symbol_name("_rsvd_6")
    1346                      .dwattr $C$DW$310, DW_AT_data_member_location[DW_OP_plus_uconst 0x6616]
    1347                      .dwattr $C$DW$310, DW_AT_accessibility(DW_ACCESS_public)
TMS320C2000 Assembler PC v6.4.9 Wed Dec 02 15:59:04 2015

Tools Copyright (c) 1996-2015 Texas Instruments Incorporated
C:\Users\ywcheng\AppData\Local\Temp\1536410                          PAGE   28

    1348              $C$DW$311       .dwtag  DW_TAG_member
    1349                      .dwattr $C$DW$311, DW_AT_type(*$C$DW$T$22)
    1350                      .dwattr $C$DW$311, DW_AT_name("ADCSOCFLG1")
    1351                      .dwattr $C$DW$311, DW_AT_TI_symbol_name("_ADCSOCFLG1")
    1352                      .dwattr $C$DW$311, DW_AT_data_member_location[DW_OP_plus_uconst 0x6618]
    1353                      .dwattr $C$DW$311, DW_AT_accessibility(DW_ACCESS_public)
    1354              $C$DW$312       .dwtag  DW_TAG_member
    1355                      .dwattr $C$DW$312, DW_AT_type(*$C$DW$T$22)
    1356                      .dwattr $C$DW$312, DW_AT_name("rsvd_7")
    1357                      .dwattr $C$DW$312, DW_AT_TI_symbol_name("_rsvd_7")
    1358                      .dwattr $C$DW$312, DW_AT_data_member_location[DW_OP_plus_uconst 0x6619]
    1359                      .dwattr $C$DW$312, DW_AT_accessibility(DW_ACCESS_public)
    1360              $C$DW$313       .dwtag  DW_TAG_member
    1361                      .dwattr $C$DW$313, DW_AT_type(*$C$DW$T$22)
    1362                      .dwattr $C$DW$313, DW_AT_name("ADCSOCFRC1")
    1363                      .dwattr $C$DW$313, DW_AT_TI_symbol_name("_ADCSOCFRC1")
    1364                      .dwattr $C$DW$313, DW_AT_data_member_location[DW_OP_plus_uconst 0x661a]
    1365                      .dwattr $C$DW$313, DW_AT_accessibility(DW_ACCESS_public)
    1366              $C$DW$314       .dwtag  DW_TAG_member
    1367                      .dwattr $C$DW$314, DW_AT_type(*$C$DW$T$22)
    1368                      .dwattr $C$DW$314, DW_AT_name("rsvd_8")
    1369                      .dwattr $C$DW$314, DW_AT_TI_symbol_name("_rsvd_8")
    1370                      .dwattr $C$DW$314, DW_AT_data_member_location[DW_OP_plus_uconst 0x661b]
    1371                      .dwattr $C$DW$314, DW_AT_accessibility(DW_ACCESS_public)
    1372              $C$DW$315       .dwtag  DW_TAG_member
    1373                      .dwattr $C$DW$315, DW_AT_type(*$C$DW$T$22)
    1374                      .dwattr $C$DW$315, DW_AT_name("ADCSOCOVF1")
    1375                      .dwattr $C$DW$315, DW_AT_TI_symbol_name("_ADCSOCOVF1")
    1376                      .dwattr $C$DW$315, DW_AT_data_member_location[DW_OP_plus_uconst 0x661c]
    1377                      .dwattr $C$DW$315, DW_AT_accessibility(DW_ACCESS_public)
    1378              $C$DW$316       .dwtag  DW_TAG_member
    1379                      .dwattr $C$DW$316, DW_AT_type(*$C$DW$T$22)
    1380                      .dwattr $C$DW$316, DW_AT_name("rsvd_9")
    1381                      .dwattr $C$DW$316, DW_AT_TI_symbol_name("_rsvd_9")
    1382                      .dwattr $C$DW$316, DW_AT_data_member_location[DW_OP_plus_uconst 0x661d]
    1383                      .dwattr $C$DW$316, DW_AT_accessibility(DW_ACCESS_public)
    1384              $C$DW$317       .dwtag  DW_TAG_member
    1385                      .dwattr $C$DW$317, DW_AT_type(*$C$DW$T$22)
    1386                      .dwattr $C$DW$317, DW_AT_name("ADCSOCOVFCLR1")
    1387                      .dwattr $C$DW$317, DW_AT_TI_symbol_name("_ADCSOCOVFCLR1")
    1388                      .dwattr $C$DW$317, DW_AT_data_member_location[DW_OP_plus_uconst 0x661e]
    1389                      .dwattr $C$DW$317, DW_AT_accessibility(DW_ACCESS_public)
    1390              $C$DW$318       .dwtag  DW_TAG_member
    1391                      .dwattr $C$DW$318, DW_AT_type(*$C$DW$T$22)
    1392                      .dwattr $C$DW$318, DW_AT_name("rsvd_10")
    1393                      .dwattr $C$DW$318, DW_AT_TI_symbol_name("_rsvd_10")
    1394                      .dwattr $C$DW$318, DW_AT_data_member_location[DW_OP_plus_uconst 0x661f]
    1395                      .dwattr $C$DW$318, DW_AT_accessibility(DW_ACCESS_public)
    1396              $C$DW$319       .dwtag  DW_TAG_member
    1397                      .dwattr $C$DW$319, DW_AT_type(*$C$DW$T$23)
    1398                      .dwattr $C$DW$319, DW_AT_name("ADCSOCxCTL")
    1399                      .dwattr $C$DW$319, DW_AT_TI_symbol_name("_ADCSOCxCTL")
    1400                      .dwattr $C$DW$319, DW_AT_data_member_location[DW_OP_plus_uconst 0x6620]
    1401                      .dwattr $C$DW$319, DW_AT_accessibility(DW_ACCESS_public)
    1402              $C$DW$320       .dwtag  DW_TAG_member
TMS320C2000 Assembler PC v6.4.9 Wed Dec 02 15:59:04 2015

Tools Copyright (c) 1996-2015 Texas Instruments Incorporated
C:\Users\ywcheng\AppData\Local\Temp\1536410                          PAGE   29

    1403                      .dwattr $C$DW$320, DW_AT_type(*$C$DW$T$23)
    1404                      .dwattr $C$DW$320, DW_AT_name("rsvd_11")
    1405                      .dwattr $C$DW$320, DW_AT_TI_symbol_name("_rsvd_11")
    1406                      .dwattr $C$DW$320, DW_AT_data_member_location[DW_OP_plus_uconst 0x6630]
    1407                      .dwattr $C$DW$320, DW_AT_accessibility(DW_ACCESS_public)
    1408              $C$DW$321       .dwtag  DW_TAG_member
    1409                      .dwattr $C$DW$321, DW_AT_type(*$C$DW$T$22)
    1410                      .dwattr $C$DW$321, DW_AT_name("ADCREFTRIM")
    1411                      .dwattr $C$DW$321, DW_AT_TI_symbol_name("_ADCREFTRIM")
    1412                      .dwattr $C$DW$321, DW_AT_data_member_location[DW_OP_plus_uconst 0x6640]
    1413                      .dwattr $C$DW$321, DW_AT_accessibility(DW_ACCESS_public)
    1414              $C$DW$322       .dwtag  DW_TAG_member
    1415                      .dwattr $C$DW$322, DW_AT_type(*$C$DW$T$22)
    1416                      .dwattr $C$DW$322, DW_AT_name("ADCOFFTRIM")
    1417                      .dwattr $C$DW$322, DW_AT_TI_symbol_name("_ADCOFFTRIM")
    1418                      .dwattr $C$DW$322, DW_AT_data_member_location[DW_OP_plus_uconst 0x6641]
    1419                      .dwattr $C$DW$322, DW_AT_accessibility(DW_ACCESS_public)
    1420              $C$DW$323       .dwtag  DW_TAG_member
    1421                      .dwattr $C$DW$323, DW_AT_type(*$C$DW$T$28)
    1422                      .dwattr $C$DW$323, DW_AT_name("resvd_12")
    1423                      .dwattr $C$DW$323, DW_AT_TI_symbol_name("_resvd_12")
    1424                      .dwattr $C$DW$323, DW_AT_data_member_location[DW_OP_plus_uconst 0x6642]
    1425                      .dwattr $C$DW$323, DW_AT_accessibility(DW_ACCESS_public)
    1426              $C$DW$324       .dwtag  DW_TAG_member
    1427                      .dwattr $C$DW$324, DW_AT_type(*$C$DW$T$22)
    1428                      .dwattr $C$DW$324, DW_AT_name("ADCREV")
    1429                      .dwattr $C$DW$324, DW_AT_TI_symbol_name("_ADCREV")
    1430                      .dwattr $C$DW$324, DW_AT_data_member_location[DW_OP_plus_uconst 0x664f]
    1431                      .dwattr $C$DW$324, DW_AT_accessibility(DW_ACCESS_public)
    1432                      .dwendtag $C$DW$T$29
    1433              
    1434              $C$DW$T$141     .dwtag  DW_TAG_typedef, DW_AT_name("ADC_Obj")
    1435                      .dwattr $C$DW$T$141, DW_AT_type(*$C$DW$T$29)
    1436                      .dwattr $C$DW$T$141, DW_AT_language(DW_LANG_C)
    1437              $C$DW$T$47      .dwtag  DW_TAG_pointer_type
    1438                      .dwattr $C$DW$T$47, DW_AT_type(*$C$DW$T$29)
    1439                      .dwattr $C$DW$T$47, DW_AT_address_class(0x20)
    1440              $C$DW$T$48      .dwtag  DW_TAG_typedef, DW_AT_name("ADC_Handle")
    1441                      .dwattr $C$DW$T$48, DW_AT_type(*$C$DW$T$47)
    1442                      .dwattr $C$DW$T$48, DW_AT_language(DW_LANG_C)
    1443              
    1444              $C$DW$T$31      .dwtag  DW_TAG_structure_type
    1445                      .dwattr $C$DW$T$31, DW_AT_name("_CLK_Obj_")
    1446                      .dwattr $C$DW$T$31, DW_AT_byte_size(0x11)
    1447              $C$DW$325       .dwtag  DW_TAG_member
    1448                      .dwattr $C$DW$325, DW_AT_type(*$C$DW$T$22)
    1449                      .dwattr $C$DW$325, DW_AT_name("XCLK")
    1450                      .dwattr $C$DW$325, DW_AT_TI_symbol_name("_XCLK")
    1451                      .dwattr $C$DW$325, DW_AT_data_member_location[DW_OP_plus_uconst 0x0]
    1452                      .dwattr $C$DW$325, DW_AT_accessibility(DW_ACCESS_public)
    1453              $C$DW$326       .dwtag  DW_TAG_member
    1454                      .dwattr $C$DW$326, DW_AT_type(*$C$DW$T$22)
    1455                      .dwattr $C$DW$326, DW_AT_name("rsvd_1")
    1456                      .dwattr $C$DW$326, DW_AT_TI_symbol_name("_rsvd_1")
    1457                      .dwattr $C$DW$326, DW_AT_data_member_location[DW_OP_plus_uconst 0x1]
TMS320C2000 Assembler PC v6.4.9 Wed Dec 02 15:59:04 2015

Tools Copyright (c) 1996-2015 Texas Instruments Incorporated
C:\Users\ywcheng\AppData\Local\Temp\1536410                          PAGE   30

    1458                      .dwattr $C$DW$326, DW_AT_accessibility(DW_ACCESS_public)
    1459              $C$DW$327       .dwtag  DW_TAG_member
    1460                      .dwattr $C$DW$327, DW_AT_type(*$C$DW$T$22)
    1461                      .dwattr $C$DW$327, DW_AT_name("CLKCTL")
    1462                      .dwattr $C$DW$327, DW_AT_TI_symbol_name("_CLKCTL")
    1463                      .dwattr $C$DW$327, DW_AT_data_member_location[DW_OP_plus_uconst 0x2]
    1464                      .dwattr $C$DW$327, DW_AT_accessibility(DW_ACCESS_public)
    1465              $C$DW$328       .dwtag  DW_TAG_member
    1466                      .dwattr $C$DW$328, DW_AT_type(*$C$DW$T$30)
    1467                      .dwattr $C$DW$328, DW_AT_name("rsvd_2")
    1468                      .dwattr $C$DW$328, DW_AT_TI_symbol_name("_rsvd_2")
    1469                      .dwattr $C$DW$328, DW_AT_data_member_location[DW_OP_plus_uconst 0x3]
    1470                      .dwattr $C$DW$328, DW_AT_accessibility(DW_ACCESS_public)
    1471              $C$DW$329       .dwtag  DW_TAG_member
    1472                      .dwattr $C$DW$329, DW_AT_type(*$C$DW$T$22)
    1473                      .dwattr $C$DW$329, DW_AT_name("LOSPCP")
    1474                      .dwattr $C$DW$329, DW_AT_TI_symbol_name("_LOSPCP")
    1475                      .dwattr $C$DW$329, DW_AT_data_member_location[DW_OP_plus_uconst 0xb]
    1476                      .dwattr $C$DW$329, DW_AT_accessibility(DW_ACCESS_public)
    1477              $C$DW$330       .dwtag  DW_TAG_member
    1478                      .dwattr $C$DW$330, DW_AT_type(*$C$DW$T$22)
    1479                      .dwattr $C$DW$330, DW_AT_name("PCLKCR0")
    1480                      .dwattr $C$DW$330, DW_AT_TI_symbol_name("_PCLKCR0")
    1481                      .dwattr $C$DW$330, DW_AT_data_member_location[DW_OP_plus_uconst 0xc]
    1482                      .dwattr $C$DW$330, DW_AT_accessibility(DW_ACCESS_public)
    1483              $C$DW$331       .dwtag  DW_TAG_member
    1484                      .dwattr $C$DW$331, DW_AT_type(*$C$DW$T$22)
    1485                      .dwattr $C$DW$331, DW_AT_name("PCLKCR1")
    1486                      .dwattr $C$DW$331, DW_AT_TI_symbol_name("_PCLKCR1")
    1487                      .dwattr $C$DW$331, DW_AT_data_member_location[DW_OP_plus_uconst 0xd]
    1488                      .dwattr $C$DW$331, DW_AT_accessibility(DW_ACCESS_public)
    1489              $C$DW$332       .dwtag  DW_TAG_member
    1490                      .dwattr $C$DW$332, DW_AT_type(*$C$DW$T$25)
    1491                      .dwattr $C$DW$332, DW_AT_name("rsvd_3")
    1492                      .dwattr $C$DW$332, DW_AT_TI_symbol_name("_rsvd_3")
    1493                      .dwattr $C$DW$332, DW_AT_data_member_location[DW_OP_plus_uconst 0xe]
    1494                      .dwattr $C$DW$332, DW_AT_accessibility(DW_ACCESS_public)
    1495              $C$DW$333       .dwtag  DW_TAG_member
    1496                      .dwattr $C$DW$333, DW_AT_type(*$C$DW$T$22)
    1497                      .dwattr $C$DW$333, DW_AT_name("PCLKCR3")
    1498                      .dwattr $C$DW$333, DW_AT_TI_symbol_name("_PCLKCR3")
    1499                      .dwattr $C$DW$333, DW_AT_data_member_location[DW_OP_plus_uconst 0x10]
    1500                      .dwattr $C$DW$333, DW_AT_accessibility(DW_ACCESS_public)
    1501                      .dwendtag $C$DW$T$31
    1502              
    1503              $C$DW$T$49      .dwtag  DW_TAG_pointer_type
    1504                      .dwattr $C$DW$T$49, DW_AT_type(*$C$DW$T$31)
    1505                      .dwattr $C$DW$T$49, DW_AT_address_class(0x20)
    1506              $C$DW$T$50      .dwtag  DW_TAG_typedef, DW_AT_name("CLK_Handle")
    1507                      .dwattr $C$DW$T$50, DW_AT_type(*$C$DW$T$49)
    1508                      .dwattr $C$DW$T$50, DW_AT_language(DW_LANG_C)
    1509              
    1510              $C$DW$T$33      .dwtag  DW_TAG_structure_type
    1511                      .dwattr $C$DW$T$33, DW_AT_name("_CPU_Obj_")
    1512                      .dwattr $C$DW$T$33, DW_AT_byte_size(0x01)
TMS320C2000 Assembler PC v6.4.9 Wed Dec 02 15:59:04 2015

Tools Copyright (c) 1996-2015 Texas Instruments Incorporated
C:\Users\ywcheng\AppData\Local\Temp\1536410                          PAGE   31

    1513              $C$DW$334       .dwtag  DW_TAG_member
    1514                      .dwattr $C$DW$334, DW_AT_type(*$C$DW$T$32)
    1515                      .dwattr $C$DW$334, DW_AT_name("tmp")
    1516                      .dwattr $C$DW$334, DW_AT_TI_symbol_name("_tmp")
    1517                      .dwattr $C$DW$334, DW_AT_data_member_location[DW_OP_plus_uconst 0x0]
    1518                      .dwattr $C$DW$334, DW_AT_accessibility(DW_ACCESS_public)
    1519                      .dwendtag $C$DW$T$33
    1520              
    1521              $C$DW$T$51      .dwtag  DW_TAG_pointer_type
    1522                      .dwattr $C$DW$T$51, DW_AT_type(*$C$DW$T$33)
    1523                      .dwattr $C$DW$T$51, DW_AT_address_class(0x20)
    1524              $C$DW$T$52      .dwtag  DW_TAG_typedef, DW_AT_name("CPU_Handle")
    1525                      .dwattr $C$DW$T$52, DW_AT_type(*$C$DW$T$51)
    1526                      .dwattr $C$DW$T$52, DW_AT_language(DW_LANG_C)
    1527              
    1528              $C$DW$T$36      .dwtag  DW_TAG_structure_type
    1529                      .dwattr $C$DW$T$36, DW_AT_name("_CTRL_Version_")
    1530                      .dwattr $C$DW$T$36, DW_AT_byte_size(0x04)
    1531              $C$DW$335       .dwtag  DW_TAG_member
    1532                      .dwattr $C$DW$335, DW_AT_type(*$C$DW$T$21)
    1533                      .dwattr $C$DW$335, DW_AT_name("rsvd")
    1534                      .dwattr $C$DW$335, DW_AT_TI_symbol_name("_rsvd")
    1535                      .dwattr $C$DW$335, DW_AT_data_member_location[DW_OP_plus_uconst 0x0]
    1536                      .dwattr $C$DW$335, DW_AT_accessibility(DW_ACCESS_public)
    1537              $C$DW$336       .dwtag  DW_TAG_member
    1538                      .dwattr $C$DW$336, DW_AT_type(*$C$DW$T$35)
    1539                      .dwattr $C$DW$336, DW_AT_name("targetProc")
    1540                      .dwattr $C$DW$336, DW_AT_TI_symbol_name("_targetProc")
    1541                      .dwattr $C$DW$336, DW_AT_data_member_location[DW_OP_plus_uconst 0x1]
    1542                      .dwattr $C$DW$336, DW_AT_accessibility(DW_ACCESS_public)
    1543              $C$DW$337       .dwtag  DW_TAG_member
    1544                      .dwattr $C$DW$337, DW_AT_type(*$C$DW$T$21)
    1545                      .dwattr $C$DW$337, DW_AT_name("major")
    1546                      .dwattr $C$DW$337, DW_AT_TI_symbol_name("_major")
    1547                      .dwattr $C$DW$337, DW_AT_data_member_location[DW_OP_plus_uconst 0x2]
    1548                      .dwattr $C$DW$337, DW_AT_accessibility(DW_ACCESS_public)
    1549              $C$DW$338       .dwtag  DW_TAG_member
    1550                      .dwattr $C$DW$338, DW_AT_type(*$C$DW$T$21)
    1551                      .dwattr $C$DW$338, DW_AT_name("minor")
    1552                      .dwattr $C$DW$338, DW_AT_TI_symbol_name("_minor")
    1553                      .dwattr $C$DW$338, DW_AT_data_member_location[DW_OP_plus_uconst 0x3]
    1554                      .dwattr $C$DW$338, DW_AT_accessibility(DW_ACCESS_public)
    1555                      .dwendtag $C$DW$T$36
    1556              
    1557              $C$DW$T$90      .dwtag  DW_TAG_typedef, DW_AT_name("CTRL_Version")
    1558                      .dwattr $C$DW$T$90, DW_AT_type(*$C$DW$T$36)
    1559                      .dwattr $C$DW$T$90, DW_AT_language(DW_LANG_C)
    1560              
    1561              $C$DW$T$38      .dwtag  DW_TAG_structure_type
    1562                      .dwattr $C$DW$T$38, DW_AT_name("_FILTER_FO_")
    1563                      .dwattr $C$DW$T$38, DW_AT_byte_size(0x0a)
    1564              $C$DW$339       .dwtag  DW_TAG_member
    1565                      .dwattr $C$DW$339, DW_AT_type(*$C$DW$T$37)
    1566                      .dwattr $C$DW$339, DW_AT_name("a1")
    1567                      .dwattr $C$DW$339, DW_AT_TI_symbol_name("_a1")
TMS320C2000 Assembler PC v6.4.9 Wed Dec 02 15:59:04 2015

Tools Copyright (c) 1996-2015 Texas Instruments Incorporated
C:\Users\ywcheng\AppData\Local\Temp\1536410                          PAGE   32

    1568                      .dwattr $C$DW$339, DW_AT_data_member_location[DW_OP_plus_uconst 0x0]
    1569                      .dwattr $C$DW$339, DW_AT_accessibility(DW_ACCESS_public)
    1570              $C$DW$340       .dwtag  DW_TAG_member
    1571                      .dwattr $C$DW$340, DW_AT_type(*$C$DW$T$37)
    1572                      .dwattr $C$DW$340, DW_AT_name("b0")
    1573                      .dwattr $C$DW$340, DW_AT_TI_symbol_name("_b0")
    1574                      .dwattr $C$DW$340, DW_AT_data_member_location[DW_OP_plus_uconst 0x2]
    1575                      .dwattr $C$DW$340, DW_AT_accessibility(DW_ACCESS_public)
    1576              $C$DW$341       .dwtag  DW_TAG_member
    1577                      .dwattr $C$DW$341, DW_AT_type(*$C$DW$T$37)
    1578                      .dwattr $C$DW$341, DW_AT_name("b1")
    1579                      .dwattr $C$DW$341, DW_AT_TI_symbol_name("_b1")
    1580                      .dwattr $C$DW$341, DW_AT_data_member_location[DW_OP_plus_uconst 0x4]
    1581                      .dwattr $C$DW$341, DW_AT_accessibility(DW_ACCESS_public)
    1582              $C$DW$342       .dwtag  DW_TAG_member
    1583                      .dwattr $C$DW$342, DW_AT_type(*$C$DW$T$37)
    1584                      .dwattr $C$DW$342, DW_AT_name("x1")
    1585                      .dwattr $C$DW$342, DW_AT_TI_symbol_name("_x1")
    1586                      .dwattr $C$DW$342, DW_AT_data_member_location[DW_OP_plus_uconst 0x6]
    1587                      .dwattr $C$DW$342, DW_AT_accessibility(DW_ACCESS_public)
    1588              $C$DW$343       .dwtag  DW_TAG_member
    1589                      .dwattr $C$DW$343, DW_AT_type(*$C$DW$T$37)
    1590                      .dwattr $C$DW$343, DW_AT_name("y1")
    1591                      .dwattr $C$DW$343, DW_AT_TI_symbol_name("_y1")
    1592                      .dwattr $C$DW$343, DW_AT_data_member_location[DW_OP_plus_uconst 0x8]
    1593                      .dwattr $C$DW$343, DW_AT_accessibility(DW_ACCESS_public)
    1594                      .dwendtag $C$DW$T$38
    1595              
    1596              $C$DW$T$93      .dwtag  DW_TAG_typedef, DW_AT_name("FILTER_FO_Obj")
    1597                      .dwattr $C$DW$T$93, DW_AT_type(*$C$DW$T$38)
    1598                      .dwattr $C$DW$T$93, DW_AT_language(DW_LANG_C)
    1599              
    1600              $C$DW$T$19      .dwtag  DW_TAG_structure_type
    1601                      .dwattr $C$DW$T$19, DW_AT_name("_FILTER_FO_Obj_")
    1602                      .dwattr $C$DW$T$19, DW_AT_declaration
    1603                      .dwendtag $C$DW$T$19
    1604              
    1605              $C$DW$T$94      .dwtag  DW_TAG_pointer_type
    1606                      .dwattr $C$DW$T$94, DW_AT_type(*$C$DW$T$19)
    1607                      .dwattr $C$DW$T$94, DW_AT_address_class(0x20)
    1608              $C$DW$T$95      .dwtag  DW_TAG_typedef, DW_AT_name("FILTER_FO_Handle")
    1609                      .dwattr $C$DW$T$95, DW_AT_type(*$C$DW$T$94)
    1610                      .dwattr $C$DW$T$95, DW_AT_language(DW_LANG_C)
    1611              
    1612              $C$DW$T$39      .dwtag  DW_TAG_structure_type
    1613                      .dwattr $C$DW$T$39, DW_AT_name("_FLASH_Obj_")
    1614                      .dwattr $C$DW$T$39, DW_AT_byte_size(0x08)
    1615              $C$DW$344       .dwtag  DW_TAG_member
    1616                      .dwattr $C$DW$344, DW_AT_type(*$C$DW$T$22)
    1617                      .dwattr $C$DW$344, DW_AT_name("FOPT")
    1618                      .dwattr $C$DW$344, DW_AT_TI_symbol_name("_FOPT")
    1619                      .dwattr $C$DW$344, DW_AT_data_member_location[DW_OP_plus_uconst 0x0]
    1620                      .dwattr $C$DW$344, DW_AT_accessibility(DW_ACCESS_public)
    1621              $C$DW$345       .dwtag  DW_TAG_member
    1622                      .dwattr $C$DW$345, DW_AT_type(*$C$DW$T$22)
TMS320C2000 Assembler PC v6.4.9 Wed Dec 02 15:59:04 2015

Tools Copyright (c) 1996-2015 Texas Instruments Incorporated
C:\Users\ywcheng\AppData\Local\Temp\1536410                          PAGE   33

    1623                      .dwattr $C$DW$345, DW_AT_name("rsvd_1")
    1624                      .dwattr $C$DW$345, DW_AT_TI_symbol_name("_rsvd_1")
    1625                      .dwattr $C$DW$345, DW_AT_data_member_location[DW_OP_plus_uconst 0x1]
    1626                      .dwattr $C$DW$345, DW_AT_accessibility(DW_ACCESS_public)
    1627              $C$DW$346       .dwtag  DW_TAG_member
    1628                      .dwattr $C$DW$346, DW_AT_type(*$C$DW$T$22)
    1629                      .dwattr $C$DW$346, DW_AT_name("FPWR")
    1630                      .dwattr $C$DW$346, DW_AT_TI_symbol_name("_FPWR")
    1631                      .dwattr $C$DW$346, DW_AT_data_member_location[DW_OP_plus_uconst 0x2]
    1632                      .dwattr $C$DW$346, DW_AT_accessibility(DW_ACCESS_public)
    1633              $C$DW$347       .dwtag  DW_TAG_member
    1634                      .dwattr $C$DW$347, DW_AT_type(*$C$DW$T$22)
    1635                      .dwattr $C$DW$347, DW_AT_name("FSTATUS")
    1636                      .dwattr $C$DW$347, DW_AT_TI_symbol_name("_FSTATUS")
    1637                      .dwattr $C$DW$347, DW_AT_data_member_location[DW_OP_plus_uconst 0x3]
    1638                      .dwattr $C$DW$347, DW_AT_accessibility(DW_ACCESS_public)
    1639              $C$DW$348       .dwtag  DW_TAG_member
    1640                      .dwattr $C$DW$348, DW_AT_type(*$C$DW$T$22)
    1641                      .dwattr $C$DW$348, DW_AT_name("FSTDBYWAIT")
    1642                      .dwattr $C$DW$348, DW_AT_TI_symbol_name("_FSTDBYWAIT")
    1643                      .dwattr $C$DW$348, DW_AT_data_member_location[DW_OP_plus_uconst 0x4]
    1644                      .dwattr $C$DW$348, DW_AT_accessibility(DW_ACCESS_public)
    1645              $C$DW$349       .dwtag  DW_TAG_member
    1646                      .dwattr $C$DW$349, DW_AT_type(*$C$DW$T$22)
    1647                      .dwattr $C$DW$349, DW_AT_name("FACTIVEWAIT")
    1648                      .dwattr $C$DW$349, DW_AT_TI_symbol_name("_FACTIVEWAIT")
    1649                      .dwattr $C$DW$349, DW_AT_data_member_location[DW_OP_plus_uconst 0x5]
    1650                      .dwattr $C$DW$349, DW_AT_accessibility(DW_ACCESS_public)
    1651              $C$DW$350       .dwtag  DW_TAG_member
    1652                      .dwattr $C$DW$350, DW_AT_type(*$C$DW$T$22)
    1653                      .dwattr $C$DW$350, DW_AT_name("FBANKWAIT")
    1654                      .dwattr $C$DW$350, DW_AT_TI_symbol_name("_FBANKWAIT")
    1655                      .dwattr $C$DW$350, DW_AT_data_member_location[DW_OP_plus_uconst 0x6]
    1656                      .dwattr $C$DW$350, DW_AT_accessibility(DW_ACCESS_public)
    1657              $C$DW$351       .dwtag  DW_TAG_member
    1658                      .dwattr $C$DW$351, DW_AT_type(*$C$DW$T$22)
    1659                      .dwattr $C$DW$351, DW_AT_name("FOTPWAIT")
    1660                      .dwattr $C$DW$351, DW_AT_TI_symbol_name("_FOTPWAIT")
    1661                      .dwattr $C$DW$351, DW_AT_data_member_location[DW_OP_plus_uconst 0x7]
    1662                      .dwattr $C$DW$351, DW_AT_accessibility(DW_ACCESS_public)
    1663                      .dwendtag $C$DW$T$39
    1664              
    1665              $C$DW$T$53      .dwtag  DW_TAG_pointer_type
    1666                      .dwattr $C$DW$T$53, DW_AT_type(*$C$DW$T$39)
    1667                      .dwattr $C$DW$T$53, DW_AT_address_class(0x20)
    1668              $C$DW$T$54      .dwtag  DW_TAG_typedef, DW_AT_name("FLASH_Handle")
    1669                      .dwattr $C$DW$T$54, DW_AT_type(*$C$DW$T$53)
    1670                      .dwattr $C$DW$T$54, DW_AT_language(DW_LANG_C)
    1671              
    1672              $C$DW$T$44      .dwtag  DW_TAG_structure_type
    1673                      .dwattr $C$DW$T$44, DW_AT_name("_GPIO_Obj_")
    1674                      .dwattr $C$DW$T$44, DW_AT_byte_size(0x6a)
    1675              $C$DW$352       .dwtag  DW_TAG_member
    1676                      .dwattr $C$DW$352, DW_AT_type(*$C$DW$T$41)
    1677                      .dwattr $C$DW$352, DW_AT_name("GPACTRL")
TMS320C2000 Assembler PC v6.4.9 Wed Dec 02 15:59:04 2015

Tools Copyright (c) 1996-2015 Texas Instruments Incorporated
C:\Users\ywcheng\AppData\Local\Temp\1536410                          PAGE   34

    1678                      .dwattr $C$DW$352, DW_AT_TI_symbol_name("_GPACTRL")
    1679                      .dwattr $C$DW$352, DW_AT_data_member_location[DW_OP_plus_uconst 0x0]
    1680                      .dwattr $C$DW$352, DW_AT_accessibility(DW_ACCESS_public)
    1681              $C$DW$353       .dwtag  DW_TAG_member
    1682                      .dwattr $C$DW$353, DW_AT_type(*$C$DW$T$41)
    1683                      .dwattr $C$DW$353, DW_AT_name("GPAQSEL1")
    1684                      .dwattr $C$DW$353, DW_AT_TI_symbol_name("_GPAQSEL1")
    1685                      .dwattr $C$DW$353, DW_AT_data_member_location[DW_OP_plus_uconst 0x2]
    1686                      .dwattr $C$DW$353, DW_AT_accessibility(DW_ACCESS_public)
    1687              $C$DW$354       .dwtag  DW_TAG_member
    1688                      .dwattr $C$DW$354, DW_AT_type(*$C$DW$T$41)
    1689                      .dwattr $C$DW$354, DW_AT_name("GPAQSEL2")
    1690                      .dwattr $C$DW$354, DW_AT_TI_symbol_name("_GPAQSEL2")
    1691                      .dwattr $C$DW$354, DW_AT_data_member_location[DW_OP_plus_uconst 0x4]
    1692                      .dwattr $C$DW$354, DW_AT_accessibility(DW_ACCESS_public)
    1693              $C$DW$355       .dwtag  DW_TAG_member
    1694                      .dwattr $C$DW$355, DW_AT_type(*$C$DW$T$41)
    1695                      .dwattr $C$DW$355, DW_AT_name("GPAMUX1")
    1696                      .dwattr $C$DW$355, DW_AT_TI_symbol_name("_GPAMUX1")
    1697                      .dwattr $C$DW$355, DW_AT_data_member_location[DW_OP_plus_uconst 0x6]
    1698                      .dwattr $C$DW$355, DW_AT_accessibility(DW_ACCESS_public)
    1699              $C$DW$356       .dwtag  DW_TAG_member
    1700                      .dwattr $C$DW$356, DW_AT_type(*$C$DW$T$41)
    1701                      .dwattr $C$DW$356, DW_AT_name("GPAMUX2")
    1702                      .dwattr $C$DW$356, DW_AT_TI_symbol_name("_GPAMUX2")
    1703                      .dwattr $C$DW$356, DW_AT_data_member_location[DW_OP_plus_uconst 0x8]
    1704                      .dwattr $C$DW$356, DW_AT_accessibility(DW_ACCESS_public)
    1705              $C$DW$357       .dwtag  DW_TAG_member
    1706                      .dwattr $C$DW$357, DW_AT_type(*$C$DW$T$41)
    1707                      .dwattr $C$DW$357, DW_AT_name("GPADIR")
    1708                      .dwattr $C$DW$357, DW_AT_TI_symbol_name("_GPADIR")
    1709                      .dwattr $C$DW$357, DW_AT_data_member_location[DW_OP_plus_uconst 0xa]
    1710                      .dwattr $C$DW$357, DW_AT_accessibility(DW_ACCESS_public)
    1711              $C$DW$358       .dwtag  DW_TAG_member
    1712                      .dwattr $C$DW$358, DW_AT_type(*$C$DW$T$41)
    1713                      .dwattr $C$DW$358, DW_AT_name("GPAPUD")
    1714                      .dwattr $C$DW$358, DW_AT_TI_symbol_name("_GPAPUD")
    1715                      .dwattr $C$DW$358, DW_AT_data_member_location[DW_OP_plus_uconst 0xc]
    1716                      .dwattr $C$DW$358, DW_AT_accessibility(DW_ACCESS_public)
    1717              $C$DW$359       .dwtag  DW_TAG_member
    1718                      .dwattr $C$DW$359, DW_AT_type(*$C$DW$T$25)
    1719                      .dwattr $C$DW$359, DW_AT_name("rsvd_1")
    1720                      .dwattr $C$DW$359, DW_AT_TI_symbol_name("_rsvd_1")
    1721                      .dwattr $C$DW$359, DW_AT_data_member_location[DW_OP_plus_uconst 0xe]
    1722                      .dwattr $C$DW$359, DW_AT_accessibility(DW_ACCESS_public)
    1723              $C$DW$360       .dwtag  DW_TAG_member
    1724                      .dwattr $C$DW$360, DW_AT_type(*$C$DW$T$41)
    1725                      .dwattr $C$DW$360, DW_AT_name("GPBCTRL")
    1726                      .dwattr $C$DW$360, DW_AT_TI_symbol_name("_GPBCTRL")
    1727                      .dwattr $C$DW$360, DW_AT_data_member_location[DW_OP_plus_uconst 0x10]
    1728                      .dwattr $C$DW$360, DW_AT_accessibility(DW_ACCESS_public)
    1729              $C$DW$361       .dwtag  DW_TAG_member
    1730                      .dwattr $C$DW$361, DW_AT_type(*$C$DW$T$41)
    1731                      .dwattr $C$DW$361, DW_AT_name("GPBQSEL1")
    1732                      .dwattr $C$DW$361, DW_AT_TI_symbol_name("_GPBQSEL1")
TMS320C2000 Assembler PC v6.4.9 Wed Dec 02 15:59:04 2015

Tools Copyright (c) 1996-2015 Texas Instruments Incorporated
C:\Users\ywcheng\AppData\Local\Temp\1536410                          PAGE   35

    1733                      .dwattr $C$DW$361, DW_AT_data_member_location[DW_OP_plus_uconst 0x12]
    1734                      .dwattr $C$DW$361, DW_AT_accessibility(DW_ACCESS_public)
    1735              $C$DW$362       .dwtag  DW_TAG_member
    1736                      .dwattr $C$DW$362, DW_AT_type(*$C$DW$T$25)
    1737                      .dwattr $C$DW$362, DW_AT_name("rsvd_2")
    1738                      .dwattr $C$DW$362, DW_AT_TI_symbol_name("_rsvd_2")
    1739                      .dwattr $C$DW$362, DW_AT_data_member_location[DW_OP_plus_uconst 0x14]
    1740                      .dwattr $C$DW$362, DW_AT_accessibility(DW_ACCESS_public)
    1741              $C$DW$363       .dwtag  DW_TAG_member
    1742                      .dwattr $C$DW$363, DW_AT_type(*$C$DW$T$41)
    1743                      .dwattr $C$DW$363, DW_AT_name("GPBMUX1")
    1744                      .dwattr $C$DW$363, DW_AT_TI_symbol_name("_GPBMUX1")
    1745                      .dwattr $C$DW$363, DW_AT_data_member_location[DW_OP_plus_uconst 0x16]
    1746                      .dwattr $C$DW$363, DW_AT_accessibility(DW_ACCESS_public)
    1747              $C$DW$364       .dwtag  DW_TAG_member
    1748                      .dwattr $C$DW$364, DW_AT_type(*$C$DW$T$25)
    1749                      .dwattr $C$DW$364, DW_AT_name("rsvd_3")
    1750                      .dwattr $C$DW$364, DW_AT_TI_symbol_name("_rsvd_3")
    1751                      .dwattr $C$DW$364, DW_AT_data_member_location[DW_OP_plus_uconst 0x18]
    1752                      .dwattr $C$DW$364, DW_AT_accessibility(DW_ACCESS_public)
    1753              $C$DW$365       .dwtag  DW_TAG_member
    1754                      .dwattr $C$DW$365, DW_AT_type(*$C$DW$T$41)
    1755                      .dwattr $C$DW$365, DW_AT_name("GPBDIR")
    1756                      .dwattr $C$DW$365, DW_AT_TI_symbol_name("_GPBDIR")
    1757                      .dwattr $C$DW$365, DW_AT_data_member_location[DW_OP_plus_uconst 0x1a]
    1758                      .dwattr $C$DW$365, DW_AT_accessibility(DW_ACCESS_public)
    1759              $C$DW$366       .dwtag  DW_TAG_member
    1760                      .dwattr $C$DW$366, DW_AT_type(*$C$DW$T$41)
    1761                      .dwattr $C$DW$366, DW_AT_name("GPBPUD")
    1762                      .dwattr $C$DW$366, DW_AT_TI_symbol_name("_GPBPUD")
    1763                      .dwattr $C$DW$366, DW_AT_data_member_location[DW_OP_plus_uconst 0x1c]
    1764                      .dwattr $C$DW$366, DW_AT_accessibility(DW_ACCESS_public)
    1765              $C$DW$367       .dwtag  DW_TAG_member
    1766                      .dwattr $C$DW$367, DW_AT_type(*$C$DW$T$42)
    1767                      .dwattr $C$DW$367, DW_AT_name("rsvd_4")
    1768                      .dwattr $C$DW$367, DW_AT_TI_symbol_name("_rsvd_4")
    1769                      .dwattr $C$DW$367, DW_AT_data_member_location[DW_OP_plus_uconst 0x1e]
    1770                      .dwattr $C$DW$367, DW_AT_accessibility(DW_ACCESS_public)
    1771              $C$DW$368       .dwtag  DW_TAG_member
    1772                      .dwattr $C$DW$368, DW_AT_type(*$C$DW$T$41)
    1773                      .dwattr $C$DW$368, DW_AT_name("AIOMUX1")
    1774                      .dwattr $C$DW$368, DW_AT_TI_symbol_name("_AIOMUX1")
    1775                      .dwattr $C$DW$368, DW_AT_data_member_location[DW_OP_plus_uconst 0x36]
    1776                      .dwattr $C$DW$368, DW_AT_accessibility(DW_ACCESS_public)
    1777              $C$DW$369       .dwtag  DW_TAG_member
    1778                      .dwattr $C$DW$369, DW_AT_type(*$C$DW$T$25)
    1779                      .dwattr $C$DW$369, DW_AT_name("rsvd_5")
    1780                      .dwattr $C$DW$369, DW_AT_TI_symbol_name("_rsvd_5")
    1781                      .dwattr $C$DW$369, DW_AT_data_member_location[DW_OP_plus_uconst 0x38]
    1782                      .dwattr $C$DW$369, DW_AT_accessibility(DW_ACCESS_public)
    1783              $C$DW$370       .dwtag  DW_TAG_member
    1784                      .dwattr $C$DW$370, DW_AT_type(*$C$DW$T$41)
    1785                      .dwattr $C$DW$370, DW_AT_name("AIODIR")
    1786                      .dwattr $C$DW$370, DW_AT_TI_symbol_name("_AIODIR")
    1787                      .dwattr $C$DW$370, DW_AT_data_member_location[DW_OP_plus_uconst 0x3a]
TMS320C2000 Assembler PC v6.4.9 Wed Dec 02 15:59:04 2015

Tools Copyright (c) 1996-2015 Texas Instruments Incorporated
C:\Users\ywcheng\AppData\Local\Temp\1536410                          PAGE   36

    1788                      .dwattr $C$DW$370, DW_AT_accessibility(DW_ACCESS_public)
    1789              $C$DW$371       .dwtag  DW_TAG_member
    1790                      .dwattr $C$DW$371, DW_AT_type(*$C$DW$T$43)
    1791                      .dwattr $C$DW$371, DW_AT_name("rsvd_6")
    1792                      .dwattr $C$DW$371, DW_AT_TI_symbol_name("_rsvd_6")
    1793                      .dwattr $C$DW$371, DW_AT_data_member_location[DW_OP_plus_uconst 0x3c]
    1794                      .dwattr $C$DW$371, DW_AT_accessibility(DW_ACCESS_public)
    1795              $C$DW$372       .dwtag  DW_TAG_member
    1796                      .dwattr $C$DW$372, DW_AT_type(*$C$DW$T$41)
    1797                      .dwattr $C$DW$372, DW_AT_name("GPADAT")
    1798                      .dwattr $C$DW$372, DW_AT_TI_symbol_name("_GPADAT")
    1799                      .dwattr $C$DW$372, DW_AT_data_member_location[DW_OP_plus_uconst 0x40]
    1800                      .dwattr $C$DW$372, DW_AT_accessibility(DW_ACCESS_public)
    1801              $C$DW$373       .dwtag  DW_TAG_member
    1802                      .dwattr $C$DW$373, DW_AT_type(*$C$DW$T$41)
    1803                      .dwattr $C$DW$373, DW_AT_name("GPASET")
    1804                      .dwattr $C$DW$373, DW_AT_TI_symbol_name("_GPASET")
    1805                      .dwattr $C$DW$373, DW_AT_data_member_location[DW_OP_plus_uconst 0x42]
    1806                      .dwattr $C$DW$373, DW_AT_accessibility(DW_ACCESS_public)
    1807              $C$DW$374       .dwtag  DW_TAG_member
    1808                      .dwattr $C$DW$374, DW_AT_type(*$C$DW$T$41)
    1809                      .dwattr $C$DW$374, DW_AT_name("GPACLEAR")
    1810                      .dwattr $C$DW$374, DW_AT_TI_symbol_name("_GPACLEAR")
    1811                      .dwattr $C$DW$374, DW_AT_data_member_location[DW_OP_plus_uconst 0x44]
    1812                      .dwattr $C$DW$374, DW_AT_accessibility(DW_ACCESS_public)
    1813              $C$DW$375       .dwtag  DW_TAG_member
    1814                      .dwattr $C$DW$375, DW_AT_type(*$C$DW$T$41)
    1815                      .dwattr $C$DW$375, DW_AT_name("GPATOGGLE")
    1816                      .dwattr $C$DW$375, DW_AT_TI_symbol_name("_GPATOGGLE")
    1817                      .dwattr $C$DW$375, DW_AT_data_member_location[DW_OP_plus_uconst 0x46]
    1818                      .dwattr $C$DW$375, DW_AT_accessibility(DW_ACCESS_public)
    1819              $C$DW$376       .dwtag  DW_TAG_member
    1820                      .dwattr $C$DW$376, DW_AT_type(*$C$DW$T$41)
    1821                      .dwattr $C$DW$376, DW_AT_name("GPBDAT")
    1822                      .dwattr $C$DW$376, DW_AT_TI_symbol_name("_GPBDAT")
    1823                      .dwattr $C$DW$376, DW_AT_data_member_location[DW_OP_plus_uconst 0x48]
    1824                      .dwattr $C$DW$376, DW_AT_accessibility(DW_ACCESS_public)
    1825              $C$DW$377       .dwtag  DW_TAG_member
    1826                      .dwattr $C$DW$377, DW_AT_type(*$C$DW$T$41)
    1827                      .dwattr $C$DW$377, DW_AT_name("GPBSET")
    1828                      .dwattr $C$DW$377, DW_AT_TI_symbol_name("_GPBSET")
    1829                      .dwattr $C$DW$377, DW_AT_data_member_location[DW_OP_plus_uconst 0x4a]
    1830                      .dwattr $C$DW$377, DW_AT_accessibility(DW_ACCESS_public)
    1831              $C$DW$378       .dwtag  DW_TAG_member
    1832                      .dwattr $C$DW$378, DW_AT_type(*$C$DW$T$41)
    1833                      .dwattr $C$DW$378, DW_AT_name("GPBCLEAR")
    1834                      .dwattr $C$DW$378, DW_AT_TI_symbol_name("_GPBCLEAR")
    1835                      .dwattr $C$DW$378, DW_AT_data_member_location[DW_OP_plus_uconst 0x4c]
    1836                      .dwattr $C$DW$378, DW_AT_accessibility(DW_ACCESS_public)
    1837              $C$DW$379       .dwtag  DW_TAG_member
    1838                      .dwattr $C$DW$379, DW_AT_type(*$C$DW$T$41)
    1839                      .dwattr $C$DW$379, DW_AT_name("GPBTOGGLE")
    1840                      .dwattr $C$DW$379, DW_AT_TI_symbol_name("_GPBTOGGLE")
    1841                      .dwattr $C$DW$379, DW_AT_data_member_location[DW_OP_plus_uconst 0x4e]
    1842                      .dwattr $C$DW$379, DW_AT_accessibility(DW_ACCESS_public)
TMS320C2000 Assembler PC v6.4.9 Wed Dec 02 15:59:04 2015

Tools Copyright (c) 1996-2015 Texas Instruments Incorporated
C:\Users\ywcheng\AppData\Local\Temp\1536410                          PAGE   37

    1843              $C$DW$380       .dwtag  DW_TAG_member
    1844                      .dwattr $C$DW$380, DW_AT_type(*$C$DW$T$30)
    1845                      .dwattr $C$DW$380, DW_AT_name("rsvd_7")
    1846                      .dwattr $C$DW$380, DW_AT_TI_symbol_name("_rsvd_7")
    1847                      .dwattr $C$DW$380, DW_AT_data_member_location[DW_OP_plus_uconst 0x50]
    1848                      .dwattr $C$DW$380, DW_AT_accessibility(DW_ACCESS_public)
    1849              $C$DW$381       .dwtag  DW_TAG_member
    1850                      .dwattr $C$DW$381, DW_AT_type(*$C$DW$T$41)
    1851                      .dwattr $C$DW$381, DW_AT_name("AIODAT")
    1852                      .dwattr $C$DW$381, DW_AT_TI_symbol_name("_AIODAT")
    1853                      .dwattr $C$DW$381, DW_AT_data_member_location[DW_OP_plus_uconst 0x58]
    1854                      .dwattr $C$DW$381, DW_AT_accessibility(DW_ACCESS_public)
    1855              $C$DW$382       .dwtag  DW_TAG_member
    1856                      .dwattr $C$DW$382, DW_AT_type(*$C$DW$T$41)
    1857                      .dwattr $C$DW$382, DW_AT_name("AIOSET")
    1858                      .dwattr $C$DW$382, DW_AT_TI_symbol_name("_AIOSET")
    1859                      .dwattr $C$DW$382, DW_AT_data_member_location[DW_OP_plus_uconst 0x5a]
    1860                      .dwattr $C$DW$382, DW_AT_accessibility(DW_ACCESS_public)
    1861              $C$DW$383       .dwtag  DW_TAG_member
    1862                      .dwattr $C$DW$383, DW_AT_type(*$C$DW$T$41)
    1863                      .dwattr $C$DW$383, DW_AT_name("AIOCLEAR")
    1864                      .dwattr $C$DW$383, DW_AT_TI_symbol_name("_AIOCLEAR")
    1865                      .dwattr $C$DW$383, DW_AT_data_member_location[DW_OP_plus_uconst 0x5c]
    1866                      .dwattr $C$DW$383, DW_AT_accessibility(DW_ACCESS_public)
    1867              $C$DW$384       .dwtag  DW_TAG_member
    1868                      .dwattr $C$DW$384, DW_AT_type(*$C$DW$T$41)
    1869                      .dwattr $C$DW$384, DW_AT_name("AIOTOGGLE")
    1870                      .dwattr $C$DW$384, DW_AT_TI_symbol_name("_AIOTOGGLE")
    1871                      .dwattr $C$DW$384, DW_AT_data_member_location[DW_OP_plus_uconst 0x5e]
    1872                      .dwattr $C$DW$384, DW_AT_accessibility(DW_ACCESS_public)
    1873              $C$DW$385       .dwtag  DW_TAG_member
    1874                      .dwattr $C$DW$385, DW_AT_type(*$C$DW$T$27)
    1875                      .dwattr $C$DW$385, DW_AT_name("GPIOXINTnSEL")
    1876                      .dwattr $C$DW$385, DW_AT_TI_symbol_name("_GPIOXINTnSEL")
    1877                      .dwattr $C$DW$385, DW_AT_data_member_location[DW_OP_plus_uconst 0x60]
    1878                      .dwattr $C$DW$385, DW_AT_accessibility(DW_ACCESS_public)
    1879              $C$DW$386       .dwtag  DW_TAG_member
    1880                      .dwattr $C$DW$386, DW_AT_type(*$C$DW$T$26)
    1881                      .dwattr $C$DW$386, DW_AT_name("rsvd_8")
    1882                      .dwattr $C$DW$386, DW_AT_TI_symbol_name("_rsvd_8")
    1883                      .dwattr $C$DW$386, DW_AT_data_member_location[DW_OP_plus_uconst 0x63]
    1884                      .dwattr $C$DW$386, DW_AT_accessibility(DW_ACCESS_public)
    1885              $C$DW$387       .dwtag  DW_TAG_member
    1886                      .dwattr $C$DW$387, DW_AT_type(*$C$DW$T$41)
    1887                      .dwattr $C$DW$387, DW_AT_name("GPIOLPMSEL")
    1888                      .dwattr $C$DW$387, DW_AT_TI_symbol_name("_GPIOLPMSEL")
    1889                      .dwattr $C$DW$387, DW_AT_data_member_location[DW_OP_plus_uconst 0x68]
    1890                      .dwattr $C$DW$387, DW_AT_accessibility(DW_ACCESS_public)
    1891                      .dwendtag $C$DW$T$44
    1892              
    1893              $C$DW$T$55      .dwtag  DW_TAG_pointer_type
    1894                      .dwattr $C$DW$T$55, DW_AT_type(*$C$DW$T$44)
    1895                      .dwattr $C$DW$T$55, DW_AT_address_class(0x20)
    1896              $C$DW$T$56      .dwtag  DW_TAG_typedef, DW_AT_name("GPIO_Handle")
    1897                      .dwattr $C$DW$T$56, DW_AT_type(*$C$DW$T$55)
TMS320C2000 Assembler PC v6.4.9 Wed Dec 02 15:59:04 2015

Tools Copyright (c) 1996-2015 Texas Instruments Incorporated
C:\Users\ywcheng\AppData\Local\Temp\1536410                          PAGE   38

    1898                      .dwattr $C$DW$T$56, DW_AT_language(DW_LANG_C)
    1899              
    1900              $C$DW$T$46      .dwtag  DW_TAG_structure_type
    1901                      .dwattr $C$DW$T$46, DW_AT_name("_HAL_AdcData_t_")
    1902                      .dwattr $C$DW$T$46, DW_AT_byte_size(0x0e)
    1903              $C$DW$388       .dwtag  DW_TAG_member
    1904                      .dwattr $C$DW$388, DW_AT_type(*$C$DW$T$45)
    1905                      .dwattr $C$DW$388, DW_AT_name("I")
    1906                      .dwattr $C$DW$388, DW_AT_TI_symbol_name("_I")
    1907                      .dwattr $C$DW$388, DW_AT_data_member_location[DW_OP_plus_uconst 0x0]
    1908                      .dwattr $C$DW$388, DW_AT_accessibility(DW_ACCESS_public)
    1909              $C$DW$389       .dwtag  DW_TAG_member
    1910                      .dwattr $C$DW$389, DW_AT_type(*$C$DW$T$45)
    1911                      .dwattr $C$DW$389, DW_AT_name("V")
    1912                      .dwattr $C$DW$389, DW_AT_TI_symbol_name("_V")
    1913                      .dwattr $C$DW$389, DW_AT_data_member_location[DW_OP_plus_uconst 0x6]
    1914                      .dwattr $C$DW$389, DW_AT_accessibility(DW_ACCESS_public)
    1915              $C$DW$390       .dwtag  DW_TAG_member
    1916                      .dwattr $C$DW$390, DW_AT_type(*$C$DW$T$37)
    1917                      .dwattr $C$DW$390, DW_AT_name("dcBus")
    1918                      .dwattr $C$DW$390, DW_AT_TI_symbol_name("_dcBus")
    1919                      .dwattr $C$DW$390, DW_AT_data_member_location[DW_OP_plus_uconst 0xc]
    1920                      .dwattr $C$DW$390, DW_AT_accessibility(DW_ACCESS_public)
    1921                      .dwendtag $C$DW$T$46
    1922              
    1923              $C$DW$T$78      .dwtag  DW_TAG_typedef, DW_AT_name("HAL_AdcData_t")
    1924                      .dwattr $C$DW$T$78, DW_AT_type(*$C$DW$T$46)
    1925                      .dwattr $C$DW$T$78, DW_AT_language(DW_LANG_C)
    1926              
    1927              $C$DW$T$79      .dwtag  DW_TAG_structure_type
    1928                      .dwattr $C$DW$T$79, DW_AT_name("_HAL_Obj_")
    1929                      .dwattr $C$DW$T$79, DW_AT_byte_size(0xa6)
    1930              $C$DW$391       .dwtag  DW_TAG_member
    1931                      .dwattr $C$DW$391, DW_AT_type(*$C$DW$T$48)
    1932                      .dwattr $C$DW$391, DW_AT_name("adcHandle")
    1933                      .dwattr $C$DW$391, DW_AT_TI_symbol_name("_adcHandle")
    1934                      .dwattr $C$DW$391, DW_AT_data_member_location[DW_OP_plus_uconst 0x0]
    1935                      .dwattr $C$DW$391, DW_AT_accessibility(DW_ACCESS_public)
    1936              $C$DW$392       .dwtag  DW_TAG_member
    1937                      .dwattr $C$DW$392, DW_AT_type(*$C$DW$T$50)
    1938                      .dwattr $C$DW$392, DW_AT_name("clkHandle")
    1939                      .dwattr $C$DW$392, DW_AT_TI_symbol_name("_clkHandle")
    1940                      .dwattr $C$DW$392, DW_AT_data_member_location[DW_OP_plus_uconst 0x2]
    1941                      .dwattr $C$DW$392, DW_AT_accessibility(DW_ACCESS_public)
    1942              $C$DW$393       .dwtag  DW_TAG_member
    1943                      .dwattr $C$DW$393, DW_AT_type(*$C$DW$T$52)
    1944                      .dwattr $C$DW$393, DW_AT_name("cpuHandle")
    1945                      .dwattr $C$DW$393, DW_AT_TI_symbol_name("_cpuHandle")
    1946                      .dwattr $C$DW$393, DW_AT_data_member_location[DW_OP_plus_uconst 0x4]
    1947                      .dwattr $C$DW$393, DW_AT_accessibility(DW_ACCESS_public)
    1948              $C$DW$394       .dwtag  DW_TAG_member
    1949                      .dwattr $C$DW$394, DW_AT_type(*$C$DW$T$54)
    1950                      .dwattr $C$DW$394, DW_AT_name("flashHandle")
    1951                      .dwattr $C$DW$394, DW_AT_TI_symbol_name("_flashHandle")
    1952                      .dwattr $C$DW$394, DW_AT_data_member_location[DW_OP_plus_uconst 0x6]
TMS320C2000 Assembler PC v6.4.9 Wed Dec 02 15:59:04 2015

Tools Copyright (c) 1996-2015 Texas Instruments Incorporated
C:\Users\ywcheng\AppData\Local\Temp\1536410                          PAGE   39

    1953                      .dwattr $C$DW$394, DW_AT_accessibility(DW_ACCESS_public)
    1954              $C$DW$395       .dwtag  DW_TAG_member
    1955                      .dwattr $C$DW$395, DW_AT_type(*$C$DW$T$56)
    1956                      .dwattr $C$DW$395, DW_AT_name("gpioHandle")
    1957                      .dwattr $C$DW$395, DW_AT_TI_symbol_name("_gpioHandle")
    1958                      .dwattr $C$DW$395, DW_AT_data_member_location[DW_OP_plus_uconst 0x8]
    1959                      .dwattr $C$DW$395, DW_AT_accessibility(DW_ACCESS_public)
    1960              $C$DW$396       .dwtag  DW_TAG_member
    1961                      .dwattr $C$DW$396, DW_AT_type(*$C$DW$T$59)
    1962                      .dwattr $C$DW$396, DW_AT_name("offsetHandle_I")
    1963                      .dwattr $C$DW$396, DW_AT_TI_symbol_name("_offsetHandle_I")
    1964                      .dwattr $C$DW$396, DW_AT_data_member_location[DW_OP_plus_uconst 0xa]
    1965                      .dwattr $C$DW$396, DW_AT_accessibility(DW_ACCESS_public)
    1966              $C$DW$397       .dwtag  DW_TAG_member
    1967                      .dwattr $C$DW$397, DW_AT_type(*$C$DW$T$61)
    1968                      .dwattr $C$DW$397, DW_AT_name("offset_I")
    1969                      .dwattr $C$DW$397, DW_AT_TI_symbol_name("_offset_I")
    1970                      .dwattr $C$DW$397, DW_AT_data_member_location[DW_OP_plus_uconst 0x10]
    1971                      .dwattr $C$DW$397, DW_AT_accessibility(DW_ACCESS_public)
    1972              $C$DW$398       .dwtag  DW_TAG_member
    1973                      .dwattr $C$DW$398, DW_AT_type(*$C$DW$T$59)
    1974                      .dwattr $C$DW$398, DW_AT_name("offsetHandle_V")
    1975                      .dwattr $C$DW$398, DW_AT_TI_symbol_name("_offsetHandle_V")
    1976                      .dwattr $C$DW$398, DW_AT_data_member_location[DW_OP_plus_uconst 0x40]
    1977                      .dwattr $C$DW$398, DW_AT_accessibility(DW_ACCESS_public)
    1978              $C$DW$399       .dwtag  DW_TAG_member
    1979                      .dwattr $C$DW$399, DW_AT_type(*$C$DW$T$61)
    1980                      .dwattr $C$DW$399, DW_AT_name("offset_V")
    1981                      .dwattr $C$DW$399, DW_AT_TI_symbol_name("_offset_V")
    1982                      .dwattr $C$DW$399, DW_AT_data_member_location[DW_OP_plus_uconst 0x46]
    1983                      .dwattr $C$DW$399, DW_AT_accessibility(DW_ACCESS_public)
    1984              $C$DW$400       .dwtag  DW_TAG_member
    1985                      .dwattr $C$DW$400, DW_AT_type(*$C$DW$T$63)
    1986                      .dwattr $C$DW$400, DW_AT_name("oscHandle")
    1987                      .dwattr $C$DW$400, DW_AT_TI_symbol_name("_oscHandle")
    1988                      .dwattr $C$DW$400, DW_AT_data_member_location[DW_OP_plus_uconst 0x76]
    1989                      .dwattr $C$DW$400, DW_AT_accessibility(DW_ACCESS_public)
    1990              $C$DW$401       .dwtag  DW_TAG_member
    1991                      .dwattr $C$DW$401, DW_AT_type(*$C$DW$T$65)
    1992                      .dwattr $C$DW$401, DW_AT_name("pieHandle")
    1993                      .dwattr $C$DW$401, DW_AT_TI_symbol_name("_pieHandle")
    1994                      .dwattr $C$DW$401, DW_AT_data_member_location[DW_OP_plus_uconst 0x78]
    1995                      .dwattr $C$DW$401, DW_AT_accessibility(DW_ACCESS_public)
    1996              $C$DW$402       .dwtag  DW_TAG_member
    1997                      .dwattr $C$DW$402, DW_AT_type(*$C$DW$T$67)
    1998                      .dwattr $C$DW$402, DW_AT_name("pllHandle")
    1999                      .dwattr $C$DW$402, DW_AT_TI_symbol_name("_pllHandle")
    2000                      .dwattr $C$DW$402, DW_AT_data_member_location[DW_OP_plus_uconst 0x7a]
    2001                      .dwattr $C$DW$402, DW_AT_accessibility(DW_ACCESS_public)
    2002              $C$DW$403       .dwtag  DW_TAG_member
    2003                      .dwattr $C$DW$403, DW_AT_type(*$C$DW$T$70)
    2004                      .dwattr $C$DW$403, DW_AT_name("pwmHandle")
    2005                      .dwattr $C$DW$403, DW_AT_TI_symbol_name("_pwmHandle")
    2006                      .dwattr $C$DW$403, DW_AT_data_member_location[DW_OP_plus_uconst 0x7c]
    2007                      .dwattr $C$DW$403, DW_AT_accessibility(DW_ACCESS_public)
TMS320C2000 Assembler PC v6.4.9 Wed Dec 02 15:59:04 2015

Tools Copyright (c) 1996-2015 Texas Instruments Incorporated
C:\Users\ywcheng\AppData\Local\Temp\1536410                          PAGE   40

    2008              $C$DW$404       .dwtag  DW_TAG_member
    2009                      .dwattr $C$DW$404, DW_AT_type(*$C$DW$T$70)
    2010                      .dwattr $C$DW$404, DW_AT_name("pwmDacHandle")
    2011                      .dwattr $C$DW$404, DW_AT_TI_symbol_name("_pwmDacHandle")
    2012                      .dwattr $C$DW$404, DW_AT_data_member_location[DW_OP_plus_uconst 0x82]
    2013                      .dwattr $C$DW$404, DW_AT_accessibility(DW_ACCESS_public)
    2014              $C$DW$405       .dwtag  DW_TAG_member
    2015                      .dwattr $C$DW$405, DW_AT_type(*$C$DW$T$72)
    2016                      .dwattr $C$DW$405, DW_AT_name("pwrHandle")
    2017                      .dwattr $C$DW$405, DW_AT_TI_symbol_name("_pwrHandle")
    2018                      .dwattr $C$DW$405, DW_AT_data_member_location[DW_OP_plus_uconst 0x88]
    2019                      .dwattr $C$DW$405, DW_AT_accessibility(DW_ACCESS_public)
    2020              $C$DW$406       .dwtag  DW_TAG_member
    2021                      .dwattr $C$DW$406, DW_AT_type(*$C$DW$T$75)
    2022                      .dwattr $C$DW$406, DW_AT_name("timerHandle")
    2023                      .dwattr $C$DW$406, DW_AT_TI_symbol_name("_timerHandle")
    2024                      .dwattr $C$DW$406, DW_AT_data_member_location[DW_OP_plus_uconst 0x8a]
    2025                      .dwattr $C$DW$406, DW_AT_accessibility(DW_ACCESS_public)
    2026              $C$DW$407       .dwtag  DW_TAG_member
    2027                      .dwattr $C$DW$407, DW_AT_type(*$C$DW$T$77)
    2028                      .dwattr $C$DW$407, DW_AT_name("wdogHandle")
    2029                      .dwattr $C$DW$407, DW_AT_TI_symbol_name("_wdogHandle")
    2030                      .dwattr $C$DW$407, DW_AT_data_member_location[DW_OP_plus_uconst 0x90]
    2031                      .dwattr $C$DW$407, DW_AT_accessibility(DW_ACCESS_public)
    2032              $C$DW$408       .dwtag  DW_TAG_member
    2033                      .dwattr $C$DW$408, DW_AT_type(*$C$DW$T$78)
    2034                      .dwattr $C$DW$408, DW_AT_name("adcBias")
    2035                      .dwattr $C$DW$408, DW_AT_TI_symbol_name("_adcBias")
    2036                      .dwattr $C$DW$408, DW_AT_data_member_location[DW_OP_plus_uconst 0x92]
    2037                      .dwattr $C$DW$408, DW_AT_accessibility(DW_ACCESS_public)
    2038              $C$DW$409       .dwtag  DW_TAG_member
    2039                      .dwattr $C$DW$409, DW_AT_type(*$C$DW$T$37)
    2040                      .dwattr $C$DW$409, DW_AT_name("current_sf")
    2041                      .dwattr $C$DW$409, DW_AT_TI_symbol_name("_current_sf")
    2042                      .dwattr $C$DW$409, DW_AT_data_member_location[DW_OP_plus_uconst 0xa0]
    2043                      .dwattr $C$DW$409, DW_AT_accessibility(DW_ACCESS_public)
    2044              $C$DW$410       .dwtag  DW_TAG_member
    2045                      .dwattr $C$DW$410, DW_AT_type(*$C$DW$T$37)
    2046                      .dwattr $C$DW$410, DW_AT_name("voltage_sf")
    2047                      .dwattr $C$DW$410, DW_AT_TI_symbol_name("_voltage_sf")
    2048                      .dwattr $C$DW$410, DW_AT_data_member_location[DW_OP_plus_uconst 0xa2]
    2049                      .dwattr $C$DW$410, DW_AT_accessibility(DW_ACCESS_public)
    2050              $C$DW$411       .dwtag  DW_TAG_member
    2051                      .dwattr $C$DW$411, DW_AT_type(*$C$DW$T$32)
    2052                      .dwattr $C$DW$411, DW_AT_name("numCurrentSensors")
    2053                      .dwattr $C$DW$411, DW_AT_TI_symbol_name("_numCurrentSensors")
    2054                      .dwattr $C$DW$411, DW_AT_data_member_location[DW_OP_plus_uconst 0xa4]
    2055                      .dwattr $C$DW$411, DW_AT_accessibility(DW_ACCESS_public)
    2056              $C$DW$412       .dwtag  DW_TAG_member
    2057                      .dwattr $C$DW$412, DW_AT_type(*$C$DW$T$32)
    2058                      .dwattr $C$DW$412, DW_AT_name("numVoltageSensors")
    2059                      .dwattr $C$DW$412, DW_AT_TI_symbol_name("_numVoltageSensors")
    2060                      .dwattr $C$DW$412, DW_AT_data_member_location[DW_OP_plus_uconst 0xa5]
    2061                      .dwattr $C$DW$412, DW_AT_accessibility(DW_ACCESS_public)
    2062                      .dwendtag $C$DW$T$79
TMS320C2000 Assembler PC v6.4.9 Wed Dec 02 15:59:04 2015

Tools Copyright (c) 1996-2015 Texas Instruments Incorporated
C:\Users\ywcheng\AppData\Local\Temp\1536410                          PAGE   41

    2063              
    2064              $C$DW$T$144     .dwtag  DW_TAG_typedef, DW_AT_name("HAL_Obj")
    2065                      .dwattr $C$DW$T$144, DW_AT_type(*$C$DW$T$79)
    2066                      .dwattr $C$DW$T$144, DW_AT_language(DW_LANG_C)
    2067              $C$DW$T$145     .dwtag  DW_TAG_pointer_type
    2068                      .dwattr $C$DW$T$145, DW_AT_type(*$C$DW$T$144)
    2069                      .dwattr $C$DW$T$145, DW_AT_address_class(0x20)
    2070              $C$DW$T$146     .dwtag  DW_TAG_pointer_type
    2071                      .dwattr $C$DW$T$146, DW_AT_type(*$C$DW$T$79)
    2072                      .dwattr $C$DW$T$146, DW_AT_address_class(0x20)
    2073              $C$DW$T$147     .dwtag  DW_TAG_typedef, DW_AT_name("HAL_Handle")
    2074                      .dwattr $C$DW$T$147, DW_AT_type(*$C$DW$T$146)
    2075                      .dwattr $C$DW$T$147, DW_AT_language(DW_LANG_C)
    2076              
    2077              $C$DW$T$80      .dwtag  DW_TAG_structure_type
    2078                      .dwattr $C$DW$T$80, DW_AT_name("_HAL_PwmData_t_")
    2079                      .dwattr $C$DW$T$80, DW_AT_byte_size(0x06)
    2080              $C$DW$413       .dwtag  DW_TAG_member
    2081                      .dwattr $C$DW$413, DW_AT_type(*$C$DW$T$45)
    2082                      .dwattr $C$DW$413, DW_AT_name("Tabc")
    2083                      .dwattr $C$DW$413, DW_AT_TI_symbol_name("_Tabc")
    2084                      .dwattr $C$DW$413, DW_AT_data_member_location[DW_OP_plus_uconst 0x0]
    2085                      .dwattr $C$DW$413, DW_AT_accessibility(DW_ACCESS_public)
    2086                      .dwendtag $C$DW$T$80
    2087              
    2088              $C$DW$T$153     .dwtag  DW_TAG_typedef, DW_AT_name("HAL_PwmData_t")
    2089                      .dwattr $C$DW$T$153, DW_AT_type(*$C$DW$T$80)
    2090                      .dwattr $C$DW$T$153, DW_AT_language(DW_LANG_C)
    2091              
    2092              $C$DW$T$82      .dwtag  DW_TAG_structure_type
    2093                      .dwattr $C$DW$T$82, DW_AT_name("_MATH_vec3_")
    2094                      .dwattr $C$DW$T$82, DW_AT_byte_size(0x06)
    2095              $C$DW$414       .dwtag  DW_TAG_member
    2096                      .dwattr $C$DW$414, DW_AT_type(*$C$DW$T$81)
    2097                      .dwattr $C$DW$414, DW_AT_name("value")
    2098                      .dwattr $C$DW$414, DW_AT_TI_symbol_name("_value")
    2099                      .dwattr $C$DW$414, DW_AT_data_member_location[DW_OP_plus_uconst 0x0]
    2100                      .dwattr $C$DW$414, DW_AT_accessibility(DW_ACCESS_public)
    2101                      .dwendtag $C$DW$T$82
    2102              
    2103              $C$DW$T$45      .dwtag  DW_TAG_typedef, DW_AT_name("MATH_vec3")
    2104                      .dwattr $C$DW$T$45, DW_AT_type(*$C$DW$T$82)
    2105                      .dwattr $C$DW$T$45, DW_AT_language(DW_LANG_C)
    2106              
    2107              $C$DW$T$92      .dwtag  DW_TAG_structure_type
    2108                      .dwattr $C$DW$T$92, DW_AT_name("_MOTOR_Vars_t_")
    2109                      .dwattr $C$DW$T$92, DW_AT_byte_size(0x68)
    2110              $C$DW$415       .dwtag  DW_TAG_member
    2111                      .dwattr $C$DW$415, DW_AT_type(*$C$DW$T$83)
    2112                      .dwattr $C$DW$415, DW_AT_name("Flag_enableSys")
    2113                      .dwattr $C$DW$415, DW_AT_TI_symbol_name("_Flag_enableSys")
    2114                      .dwattr $C$DW$415, DW_AT_data_member_location[DW_OP_plus_uconst 0x0]
    2115                      .dwattr $C$DW$415, DW_AT_accessibility(DW_ACCESS_public)
    2116              $C$DW$416       .dwtag  DW_TAG_member
    2117                      .dwattr $C$DW$416, DW_AT_type(*$C$DW$T$83)
TMS320C2000 Assembler PC v6.4.9 Wed Dec 02 15:59:04 2015

Tools Copyright (c) 1996-2015 Texas Instruments Incorporated
C:\Users\ywcheng\AppData\Local\Temp\1536410                          PAGE   42

    2118                      .dwattr $C$DW$416, DW_AT_name("Flag_Run_Identify")
    2119                      .dwattr $C$DW$416, DW_AT_TI_symbol_name("_Flag_Run_Identify")
    2120                      .dwattr $C$DW$416, DW_AT_data_member_location[DW_OP_plus_uconst 0x1]
    2121                      .dwattr $C$DW$416, DW_AT_accessibility(DW_ACCESS_public)
    2122              $C$DW$417       .dwtag  DW_TAG_member
    2123                      .dwattr $C$DW$417, DW_AT_type(*$C$DW$T$83)
    2124                      .dwattr $C$DW$417, DW_AT_name("Flag_MotorIdentified")
    2125                      .dwattr $C$DW$417, DW_AT_TI_symbol_name("_Flag_MotorIdentified")
    2126                      .dwattr $C$DW$417, DW_AT_data_member_location[DW_OP_plus_uconst 0x2]
    2127                      .dwattr $C$DW$417, DW_AT_accessibility(DW_ACCESS_public)
    2128              $C$DW$418       .dwtag  DW_TAG_member
    2129                      .dwattr $C$DW$418, DW_AT_type(*$C$DW$T$83)
    2130                      .dwattr $C$DW$418, DW_AT_name("Flag_enableForceAngle")
    2131                      .dwattr $C$DW$418, DW_AT_TI_symbol_name("_Flag_enableForceAngle")
    2132                      .dwattr $C$DW$418, DW_AT_data_member_location[DW_OP_plus_uconst 0x3]
    2133                      .dwattr $C$DW$418, DW_AT_accessibility(DW_ACCESS_public)
    2134              $C$DW$419       .dwtag  DW_TAG_member
    2135                      .dwattr $C$DW$419, DW_AT_type(*$C$DW$T$83)
    2136                      .dwattr $C$DW$419, DW_AT_name("Flag_enableFieldWeakening")
    2137                      .dwattr $C$DW$419, DW_AT_TI_symbol_name("_Flag_enableFieldWeakening")
    2138                      .dwattr $C$DW$419, DW_AT_data_member_location[DW_OP_plus_uconst 0x4]
    2139                      .dwattr $C$DW$419, DW_AT_accessibility(DW_ACCESS_public)
    2140              $C$DW$420       .dwtag  DW_TAG_member
    2141                      .dwattr $C$DW$420, DW_AT_type(*$C$DW$T$83)
    2142                      .dwattr $C$DW$420, DW_AT_name("Flag_enableRsRecalc")
    2143                      .dwattr $C$DW$420, DW_AT_TI_symbol_name("_Flag_enableRsRecalc")
    2144                      .dwattr $C$DW$420, DW_AT_data_member_location[DW_OP_plus_uconst 0x5]
    2145                      .dwattr $C$DW$420, DW_AT_accessibility(DW_ACCESS_public)
    2146              $C$DW$421       .dwtag  DW_TAG_member
    2147                      .dwattr $C$DW$421, DW_AT_type(*$C$DW$T$83)
    2148                      .dwattr $C$DW$421, DW_AT_name("Flag_enableUserParams")
    2149                      .dwattr $C$DW$421, DW_AT_TI_symbol_name("_Flag_enableUserParams")
    2150                      .dwattr $C$DW$421, DW_AT_data_member_location[DW_OP_plus_uconst 0x6]
    2151                      .dwattr $C$DW$421, DW_AT_accessibility(DW_ACCESS_public)
    2152              $C$DW$422       .dwtag  DW_TAG_member
    2153                      .dwattr $C$DW$422, DW_AT_type(*$C$DW$T$83)
    2154                      .dwattr $C$DW$422, DW_AT_name("Flag_enableOffsetcalc")
    2155                      .dwattr $C$DW$422, DW_AT_TI_symbol_name("_Flag_enableOffsetcalc")
    2156                      .dwattr $C$DW$422, DW_AT_data_member_location[DW_OP_plus_uconst 0x7]
    2157                      .dwattr $C$DW$422, DW_AT_accessibility(DW_ACCESS_public)
    2158              $C$DW$423       .dwtag  DW_TAG_member
    2159                      .dwattr $C$DW$423, DW_AT_type(*$C$DW$T$83)
    2160                      .dwattr $C$DW$423, DW_AT_name("Flag_enablePowerWarp")
    2161                      .dwattr $C$DW$423, DW_AT_TI_symbol_name("_Flag_enablePowerWarp")
    2162                      .dwattr $C$DW$423, DW_AT_data_member_location[DW_OP_plus_uconst 0x8]
    2163                      .dwattr $C$DW$423, DW_AT_accessibility(DW_ACCESS_public)
    2164              $C$DW$424       .dwtag  DW_TAG_member
    2165                      .dwattr $C$DW$424, DW_AT_type(*$C$DW$T$83)
    2166                      .dwattr $C$DW$424, DW_AT_name("Flag_enableSpeedCtrl")
    2167                      .dwattr $C$DW$424, DW_AT_TI_symbol_name("_Flag_enableSpeedCtrl")
    2168                      .dwattr $C$DW$424, DW_AT_data_member_location[DW_OP_plus_uconst 0x9]
    2169                      .dwattr $C$DW$424, DW_AT_accessibility(DW_ACCESS_public)
    2170              $C$DW$425       .dwtag  DW_TAG_member
    2171                      .dwattr $C$DW$425, DW_AT_type(*$C$DW$T$85)
    2172                      .dwattr $C$DW$425, DW_AT_name("CtrlState")
TMS320C2000 Assembler PC v6.4.9 Wed Dec 02 15:59:04 2015

Tools Copyright (c) 1996-2015 Texas Instruments Incorporated
C:\Users\ywcheng\AppData\Local\Temp\1536410                          PAGE   43

    2173                      .dwattr $C$DW$425, DW_AT_TI_symbol_name("_CtrlState")
    2174                      .dwattr $C$DW$425, DW_AT_data_member_location[DW_OP_plus_uconst 0xa]
    2175                      .dwattr $C$DW$425, DW_AT_accessibility(DW_ACCESS_public)
    2176              $C$DW$426       .dwtag  DW_TAG_member
    2177                      .dwattr $C$DW$426, DW_AT_type(*$C$DW$T$87)
    2178                      .dwattr $C$DW$426, DW_AT_name("EstState")
    2179                      .dwattr $C$DW$426, DW_AT_TI_symbol_name("_EstState")
    2180                      .dwattr $C$DW$426, DW_AT_data_member_location[DW_OP_plus_uconst 0xb]
    2181                      .dwattr $C$DW$426, DW_AT_accessibility(DW_ACCESS_public)
    2182              $C$DW$427       .dwtag  DW_TAG_member
    2183                      .dwattr $C$DW$427, DW_AT_type(*$C$DW$T$89)
    2184                      .dwattr $C$DW$427, DW_AT_name("UserErrorCode")
    2185                      .dwattr $C$DW$427, DW_AT_TI_symbol_name("_UserErrorCode")
    2186                      .dwattr $C$DW$427, DW_AT_data_member_location[DW_OP_plus_uconst 0xc]
    2187                      .dwattr $C$DW$427, DW_AT_accessibility(DW_ACCESS_public)
    2188              $C$DW$428       .dwtag  DW_TAG_member
    2189                      .dwattr $C$DW$428, DW_AT_type(*$C$DW$T$90)
    2190                      .dwattr $C$DW$428, DW_AT_name("CtrlVersion")
    2191                      .dwattr $C$DW$428, DW_AT_TI_symbol_name("_CtrlVersion")
    2192                      .dwattr $C$DW$428, DW_AT_data_member_location[DW_OP_plus_uconst 0xd]
    2193                      .dwattr $C$DW$428, DW_AT_accessibility(DW_ACCESS_public)
    2194              $C$DW$429       .dwtag  DW_TAG_member
    2195                      .dwattr $C$DW$429, DW_AT_type(*$C$DW$T$37)
    2196                      .dwattr $C$DW$429, DW_AT_name("IdRef_A")
    2197                      .dwattr $C$DW$429, DW_AT_TI_symbol_name("_IdRef_A")
    2198                      .dwattr $C$DW$429, DW_AT_data_member_location[DW_OP_plus_uconst 0x12]
    2199                      .dwattr $C$DW$429, DW_AT_accessibility(DW_ACCESS_public)
    2200              $C$DW$430       .dwtag  DW_TAG_member
    2201                      .dwattr $C$DW$430, DW_AT_type(*$C$DW$T$37)
    2202                      .dwattr $C$DW$430, DW_AT_name("IqRef_A")
    2203                      .dwattr $C$DW$430, DW_AT_TI_symbol_name("_IqRef_A")
    2204                      .dwattr $C$DW$430, DW_AT_data_member_location[DW_OP_plus_uconst 0x14]
    2205                      .dwattr $C$DW$430, DW_AT_accessibility(DW_ACCESS_public)
    2206              $C$DW$431       .dwtag  DW_TAG_member
    2207                      .dwattr $C$DW$431, DW_AT_type(*$C$DW$T$37)
    2208                      .dwattr $C$DW$431, DW_AT_name("SpeedRef_pu")
    2209                      .dwattr $C$DW$431, DW_AT_TI_symbol_name("_SpeedRef_pu")
    2210                      .dwattr $C$DW$431, DW_AT_data_member_location[DW_OP_plus_uconst 0x16]
    2211                      .dwattr $C$DW$431, DW_AT_accessibility(DW_ACCESS_public)
    2212              $C$DW$432       .dwtag  DW_TAG_member
    2213                      .dwattr $C$DW$432, DW_AT_type(*$C$DW$T$37)
    2214                      .dwattr $C$DW$432, DW_AT_name("SpeedRef_krpm")
    2215                      .dwattr $C$DW$432, DW_AT_TI_symbol_name("_SpeedRef_krpm")
    2216                      .dwattr $C$DW$432, DW_AT_data_member_location[DW_OP_plus_uconst 0x18]
    2217                      .dwattr $C$DW$432, DW_AT_accessibility(DW_ACCESS_public)
    2218              $C$DW$433       .dwtag  DW_TAG_member
    2219                      .dwattr $C$DW$433, DW_AT_type(*$C$DW$T$37)
    2220                      .dwattr $C$DW$433, DW_AT_name("SpeedTraj_krpm")
    2221                      .dwattr $C$DW$433, DW_AT_TI_symbol_name("_SpeedTraj_krpm")
    2222                      .dwattr $C$DW$433, DW_AT_data_member_location[DW_OP_plus_uconst 0x1a]
    2223                      .dwattr $C$DW$433, DW_AT_accessibility(DW_ACCESS_public)
    2224              $C$DW$434       .dwtag  DW_TAG_member
    2225                      .dwattr $C$DW$434, DW_AT_type(*$C$DW$T$37)
    2226                      .dwattr $C$DW$434, DW_AT_name("MaxAccel_krpmps")
    2227                      .dwattr $C$DW$434, DW_AT_TI_symbol_name("_MaxAccel_krpmps")
TMS320C2000 Assembler PC v6.4.9 Wed Dec 02 15:59:04 2015

Tools Copyright (c) 1996-2015 Texas Instruments Incorporated
C:\Users\ywcheng\AppData\Local\Temp\1536410                          PAGE   44

    2228                      .dwattr $C$DW$434, DW_AT_data_member_location[DW_OP_plus_uconst 0x1c]
    2229                      .dwattr $C$DW$434, DW_AT_accessibility(DW_ACCESS_public)
    2230              $C$DW$435       .dwtag  DW_TAG_member
    2231                      .dwattr $C$DW$435, DW_AT_type(*$C$DW$T$37)
    2232                      .dwattr $C$DW$435, DW_AT_name("Speed_krpm")
    2233                      .dwattr $C$DW$435, DW_AT_TI_symbol_name("_Speed_krpm")
    2234                      .dwattr $C$DW$435, DW_AT_data_member_location[DW_OP_plus_uconst 0x1e]
    2235                      .dwattr $C$DW$435, DW_AT_accessibility(DW_ACCESS_public)
    2236              $C$DW$436       .dwtag  DW_TAG_member
    2237                      .dwattr $C$DW$436, DW_AT_type(*$C$DW$T$37)
    2238                      .dwattr $C$DW$436, DW_AT_name("OverModulation")
    2239                      .dwattr $C$DW$436, DW_AT_TI_symbol_name("_OverModulation")
    2240                      .dwattr $C$DW$436, DW_AT_data_member_location[DW_OP_plus_uconst 0x20]
    2241                      .dwattr $C$DW$436, DW_AT_accessibility(DW_ACCESS_public)
    2242              $C$DW$437       .dwtag  DW_TAG_member
    2243                      .dwattr $C$DW$437, DW_AT_type(*$C$DW$T$37)
    2244                      .dwattr $C$DW$437, DW_AT_name("RsOnLineCurrent_A")
    2245                      .dwattr $C$DW$437, DW_AT_TI_symbol_name("_RsOnLineCurrent_A")
    2246                      .dwattr $C$DW$437, DW_AT_data_member_location[DW_OP_plus_uconst 0x22]
    2247                      .dwattr $C$DW$437, DW_AT_accessibility(DW_ACCESS_public)
    2248              $C$DW$438       .dwtag  DW_TAG_member
    2249                      .dwattr $C$DW$438, DW_AT_type(*$C$DW$T$37)
    2250                      .dwattr $C$DW$438, DW_AT_name("SvgenMaxModulation_ticks")
    2251                      .dwattr $C$DW$438, DW_AT_TI_symbol_name("_SvgenMaxModulation_ticks")
    2252                      .dwattr $C$DW$438, DW_AT_data_member_location[DW_OP_plus_uconst 0x24]
    2253                      .dwattr $C$DW$438, DW_AT_accessibility(DW_ACCESS_public)
    2254              $C$DW$439       .dwtag  DW_TAG_member
    2255                      .dwattr $C$DW$439, DW_AT_type(*$C$DW$T$37)
    2256                      .dwattr $C$DW$439, DW_AT_name("Flux_Wb")
    2257                      .dwattr $C$DW$439, DW_AT_TI_symbol_name("_Flux_Wb")
    2258                      .dwattr $C$DW$439, DW_AT_data_member_location[DW_OP_plus_uconst 0x26]
    2259                      .dwattr $C$DW$439, DW_AT_accessibility(DW_ACCESS_public)
    2260              $C$DW$440       .dwtag  DW_TAG_member
    2261                      .dwattr $C$DW$440, DW_AT_type(*$C$DW$T$37)
    2262                      .dwattr $C$DW$440, DW_AT_name("Torque_Nm")
    2263                      .dwattr $C$DW$440, DW_AT_TI_symbol_name("_Torque_Nm")
    2264                      .dwattr $C$DW$440, DW_AT_data_member_location[DW_OP_plus_uconst 0x28]
    2265                      .dwattr $C$DW$440, DW_AT_accessibility(DW_ACCESS_public)
    2266              $C$DW$441       .dwtag  DW_TAG_member
    2267                      .dwattr $C$DW$441, DW_AT_type(*$C$DW$T$91)
    2268                      .dwattr $C$DW$441, DW_AT_name("MagnCurr_A")
    2269                      .dwattr $C$DW$441, DW_AT_TI_symbol_name("_MagnCurr_A")
    2270                      .dwattr $C$DW$441, DW_AT_data_member_location[DW_OP_plus_uconst 0x2a]
    2271                      .dwattr $C$DW$441, DW_AT_accessibility(DW_ACCESS_public)
    2272              $C$DW$442       .dwtag  DW_TAG_member
    2273                      .dwattr $C$DW$442, DW_AT_type(*$C$DW$T$91)
    2274                      .dwattr $C$DW$442, DW_AT_name("Rr_Ohm")
    2275                      .dwattr $C$DW$442, DW_AT_TI_symbol_name("_Rr_Ohm")
    2276                      .dwattr $C$DW$442, DW_AT_data_member_location[DW_OP_plus_uconst 0x2c]
    2277                      .dwattr $C$DW$442, DW_AT_accessibility(DW_ACCESS_public)
    2278              $C$DW$443       .dwtag  DW_TAG_member
    2279                      .dwattr $C$DW$443, DW_AT_type(*$C$DW$T$91)
    2280                      .dwattr $C$DW$443, DW_AT_name("Rs_Ohm")
    2281                      .dwattr $C$DW$443, DW_AT_TI_symbol_name("_Rs_Ohm")
    2282                      .dwattr $C$DW$443, DW_AT_data_member_location[DW_OP_plus_uconst 0x2e]
TMS320C2000 Assembler PC v6.4.9 Wed Dec 02 15:59:04 2015

Tools Copyright (c) 1996-2015 Texas Instruments Incorporated
C:\Users\ywcheng\AppData\Local\Temp\1536410                          PAGE   45

    2283                      .dwattr $C$DW$443, DW_AT_accessibility(DW_ACCESS_public)
    2284              $C$DW$444       .dwtag  DW_TAG_member
    2285                      .dwattr $C$DW$444, DW_AT_type(*$C$DW$T$91)
    2286                      .dwattr $C$DW$444, DW_AT_name("RsOnLine_Ohm")
    2287                      .dwattr $C$DW$444, DW_AT_TI_symbol_name("_RsOnLine_Ohm")
    2288                      .dwattr $C$DW$444, DW_AT_data_member_location[DW_OP_plus_uconst 0x30]
    2289                      .dwattr $C$DW$444, DW_AT_accessibility(DW_ACCESS_public)
    2290              $C$DW$445       .dwtag  DW_TAG_member
    2291                      .dwattr $C$DW$445, DW_AT_type(*$C$DW$T$91)
    2292                      .dwattr $C$DW$445, DW_AT_name("Lsd_H")
    2293                      .dwattr $C$DW$445, DW_AT_TI_symbol_name("_Lsd_H")
    2294                      .dwattr $C$DW$445, DW_AT_data_member_location[DW_OP_plus_uconst 0x32]
    2295                      .dwattr $C$DW$445, DW_AT_accessibility(DW_ACCESS_public)
    2296              $C$DW$446       .dwtag  DW_TAG_member
    2297                      .dwattr $C$DW$446, DW_AT_type(*$C$DW$T$91)
    2298                      .dwattr $C$DW$446, DW_AT_name("Lsq_H")
    2299                      .dwattr $C$DW$446, DW_AT_TI_symbol_name("_Lsq_H")
    2300                      .dwattr $C$DW$446, DW_AT_data_member_location[DW_OP_plus_uconst 0x34]
    2301                      .dwattr $C$DW$446, DW_AT_accessibility(DW_ACCESS_public)
    2302              $C$DW$447       .dwtag  DW_TAG_member
    2303                      .dwattr $C$DW$447, DW_AT_type(*$C$DW$T$91)
    2304                      .dwattr $C$DW$447, DW_AT_name("Flux_VpHz")
    2305                      .dwattr $C$DW$447, DW_AT_TI_symbol_name("_Flux_VpHz")
    2306                      .dwattr $C$DW$447, DW_AT_data_member_location[DW_OP_plus_uconst 0x36]
    2307                      .dwattr $C$DW$447, DW_AT_accessibility(DW_ACCESS_public)
    2308              $C$DW$448       .dwtag  DW_TAG_member
    2309                      .dwattr $C$DW$448, DW_AT_type(*$C$DW$T$91)
    2310                      .dwattr $C$DW$448, DW_AT_name("ipd_excFreq_Hz")
    2311                      .dwattr $C$DW$448, DW_AT_TI_symbol_name("_ipd_excFreq_Hz")
    2312                      .dwattr $C$DW$448, DW_AT_data_member_location[DW_OP_plus_uconst 0x38]
    2313                      .dwattr $C$DW$448, DW_AT_accessibility(DW_ACCESS_public)
    2314              $C$DW$449       .dwtag  DW_TAG_member
    2315                      .dwattr $C$DW$449, DW_AT_type(*$C$DW$T$37)
    2316                      .dwattr $C$DW$449, DW_AT_name("ipd_Kspd")
    2317                      .dwattr $C$DW$449, DW_AT_TI_symbol_name("_ipd_Kspd")
    2318                      .dwattr $C$DW$449, DW_AT_data_member_location[DW_OP_plus_uconst 0x3a]
    2319                      .dwattr $C$DW$449, DW_AT_accessibility(DW_ACCESS_public)
    2320              $C$DW$450       .dwtag  DW_TAG_member
    2321                      .dwattr $C$DW$450, DW_AT_type(*$C$DW$T$37)
    2322                      .dwattr $C$DW$450, DW_AT_name("ipd_excMag_coarse_pu")
    2323                      .dwattr $C$DW$450, DW_AT_TI_symbol_name("_ipd_excMag_coarse_pu")
    2324                      .dwattr $C$DW$450, DW_AT_data_member_location[DW_OP_plus_uconst 0x3c]
    2325                      .dwattr $C$DW$450, DW_AT_accessibility(DW_ACCESS_public)
    2326              $C$DW$451       .dwtag  DW_TAG_member
    2327                      .dwattr $C$DW$451, DW_AT_type(*$C$DW$T$37)
    2328                      .dwattr $C$DW$451, DW_AT_name("ipd_excMag_fine_pu")
    2329                      .dwattr $C$DW$451, DW_AT_TI_symbol_name("_ipd_excMag_fine_pu")
    2330                      .dwattr $C$DW$451, DW_AT_data_member_location[DW_OP_plus_uconst 0x3e]
    2331                      .dwattr $C$DW$451, DW_AT_accessibility(DW_ACCESS_public)
    2332              $C$DW$452       .dwtag  DW_TAG_member
    2333                      .dwattr $C$DW$452, DW_AT_type(*$C$DW$T$16)
    2334                      .dwattr $C$DW$452, DW_AT_name("ipd_waitTime_coarse_sec")
    2335                      .dwattr $C$DW$452, DW_AT_TI_symbol_name("_ipd_waitTime_coarse_sec")
    2336                      .dwattr $C$DW$452, DW_AT_data_member_location[DW_OP_plus_uconst 0x40]
    2337                      .dwattr $C$DW$452, DW_AT_accessibility(DW_ACCESS_public)
TMS320C2000 Assembler PC v6.4.9 Wed Dec 02 15:59:04 2015

Tools Copyright (c) 1996-2015 Texas Instruments Incorporated
C:\Users\ywcheng\AppData\Local\Temp\1536410                          PAGE   46

    2338              $C$DW$453       .dwtag  DW_TAG_member
    2339                      .dwattr $C$DW$453, DW_AT_type(*$C$DW$T$16)
    2340                      .dwattr $C$DW$453, DW_AT_name("ipd_waitTime_fine_sec")
    2341                      .dwattr $C$DW$453, DW_AT_TI_symbol_name("_ipd_waitTime_fine_sec")
    2342                      .dwattr $C$DW$453, DW_AT_data_member_location[DW_OP_plus_uconst 0x42]
    2343                      .dwattr $C$DW$453, DW_AT_accessibility(DW_ACCESS_public)
    2344              $C$DW$454       .dwtag  DW_TAG_member
    2345                      .dwattr $C$DW$454, DW_AT_type(*$C$DW$T$37)
    2346                      .dwattr $C$DW$454, DW_AT_name("Kp_spd")
    2347                      .dwattr $C$DW$454, DW_AT_TI_symbol_name("_Kp_spd")
    2348                      .dwattr $C$DW$454, DW_AT_data_member_location[DW_OP_plus_uconst 0x44]
    2349                      .dwattr $C$DW$454, DW_AT_accessibility(DW_ACCESS_public)
    2350              $C$DW$455       .dwtag  DW_TAG_member
    2351                      .dwattr $C$DW$455, DW_AT_type(*$C$DW$T$37)
    2352                      .dwattr $C$DW$455, DW_AT_name("Ki_spd")
    2353                      .dwattr $C$DW$455, DW_AT_TI_symbol_name("_Ki_spd")
    2354                      .dwattr $C$DW$455, DW_AT_data_member_location[DW_OP_plus_uconst 0x46]
    2355                      .dwattr $C$DW$455, DW_AT_accessibility(DW_ACCESS_public)
    2356              $C$DW$456       .dwtag  DW_TAG_member
    2357                      .dwattr $C$DW$456, DW_AT_type(*$C$DW$T$37)
    2358                      .dwattr $C$DW$456, DW_AT_name("Kp_Idq")
    2359                      .dwattr $C$DW$456, DW_AT_TI_symbol_name("_Kp_Idq")
    2360                      .dwattr $C$DW$456, DW_AT_data_member_location[DW_OP_plus_uconst 0x48]
    2361                      .dwattr $C$DW$456, DW_AT_accessibility(DW_ACCESS_public)
    2362              $C$DW$457       .dwtag  DW_TAG_member
    2363                      .dwattr $C$DW$457, DW_AT_type(*$C$DW$T$37)
    2364                      .dwattr $C$DW$457, DW_AT_name("Ki_Idq")
    2365                      .dwattr $C$DW$457, DW_AT_TI_symbol_name("_Ki_Idq")
    2366                      .dwattr $C$DW$457, DW_AT_data_member_location[DW_OP_plus_uconst 0x4a]
    2367                      .dwattr $C$DW$457, DW_AT_accessibility(DW_ACCESS_public)
    2368              $C$DW$458       .dwtag  DW_TAG_member
    2369                      .dwattr $C$DW$458, DW_AT_type(*$C$DW$T$37)
    2370                      .dwattr $C$DW$458, DW_AT_name("Vd")
    2371                      .dwattr $C$DW$458, DW_AT_TI_symbol_name("_Vd")
    2372                      .dwattr $C$DW$458, DW_AT_data_member_location[DW_OP_plus_uconst 0x4c]
    2373                      .dwattr $C$DW$458, DW_AT_accessibility(DW_ACCESS_public)
    2374              $C$DW$459       .dwtag  DW_TAG_member
    2375                      .dwattr $C$DW$459, DW_AT_type(*$C$DW$T$37)
    2376                      .dwattr $C$DW$459, DW_AT_name("Vq")
    2377                      .dwattr $C$DW$459, DW_AT_TI_symbol_name("_Vq")
    2378                      .dwattr $C$DW$459, DW_AT_data_member_location[DW_OP_plus_uconst 0x4e]
    2379                      .dwattr $C$DW$459, DW_AT_accessibility(DW_ACCESS_public)
    2380              $C$DW$460       .dwtag  DW_TAG_member
    2381                      .dwattr $C$DW$460, DW_AT_type(*$C$DW$T$37)
    2382                      .dwattr $C$DW$460, DW_AT_name("Vs")
    2383                      .dwattr $C$DW$460, DW_AT_TI_symbol_name("_Vs")
    2384                      .dwattr $C$DW$460, DW_AT_data_member_location[DW_OP_plus_uconst 0x50]
    2385                      .dwattr $C$DW$460, DW_AT_accessibility(DW_ACCESS_public)
    2386              $C$DW$461       .dwtag  DW_TAG_member
    2387                      .dwattr $C$DW$461, DW_AT_type(*$C$DW$T$37)
    2388                      .dwattr $C$DW$461, DW_AT_name("VsRef")
    2389                      .dwattr $C$DW$461, DW_AT_TI_symbol_name("_VsRef")
    2390                      .dwattr $C$DW$461, DW_AT_data_member_location[DW_OP_plus_uconst 0x52]
    2391                      .dwattr $C$DW$461, DW_AT_accessibility(DW_ACCESS_public)
    2392              $C$DW$462       .dwtag  DW_TAG_member
TMS320C2000 Assembler PC v6.4.9 Wed Dec 02 15:59:04 2015

Tools Copyright (c) 1996-2015 Texas Instruments Incorporated
C:\Users\ywcheng\AppData\Local\Temp\1536410                          PAGE   47

    2393                      .dwattr $C$DW$462, DW_AT_type(*$C$DW$T$37)
    2394                      .dwattr $C$DW$462, DW_AT_name("VdcBus_kV")
    2395                      .dwattr $C$DW$462, DW_AT_TI_symbol_name("_VdcBus_kV")
    2396                      .dwattr $C$DW$462, DW_AT_data_member_location[DW_OP_plus_uconst 0x54]
    2397                      .dwattr $C$DW$462, DW_AT_accessibility(DW_ACCESS_public)
    2398              $C$DW$463       .dwtag  DW_TAG_member
    2399                      .dwattr $C$DW$463, DW_AT_type(*$C$DW$T$37)
    2400                      .dwattr $C$DW$463, DW_AT_name("Id_A")
    2401                      .dwattr $C$DW$463, DW_AT_TI_symbol_name("_Id_A")
    2402                      .dwattr $C$DW$463, DW_AT_data_member_location[DW_OP_plus_uconst 0x56]
    2403                      .dwattr $C$DW$463, DW_AT_accessibility(DW_ACCESS_public)
    2404              $C$DW$464       .dwtag  DW_TAG_member
    2405                      .dwattr $C$DW$464, DW_AT_type(*$C$DW$T$37)
    2406                      .dwattr $C$DW$464, DW_AT_name("Iq_A")
    2407                      .dwattr $C$DW$464, DW_AT_TI_symbol_name("_Iq_A")
    2408                      .dwattr $C$DW$464, DW_AT_data_member_location[DW_OP_plus_uconst 0x58]
    2409                      .dwattr $C$DW$464, DW_AT_accessibility(DW_ACCESS_public)
    2410              $C$DW$465       .dwtag  DW_TAG_member
    2411                      .dwattr $C$DW$465, DW_AT_type(*$C$DW$T$37)
    2412                      .dwattr $C$DW$465, DW_AT_name("Is_A")
    2413                      .dwattr $C$DW$465, DW_AT_TI_symbol_name("_Is_A")
    2414                      .dwattr $C$DW$465, DW_AT_data_member_location[DW_OP_plus_uconst 0x5a]
    2415                      .dwattr $C$DW$465, DW_AT_accessibility(DW_ACCESS_public)
    2416              $C$DW$466       .dwtag  DW_TAG_member
    2417                      .dwattr $C$DW$466, DW_AT_type(*$C$DW$T$45)
    2418                      .dwattr $C$DW$466, DW_AT_name("I_bias")
    2419                      .dwattr $C$DW$466, DW_AT_TI_symbol_name("_I_bias")
    2420                      .dwattr $C$DW$466, DW_AT_data_member_location[DW_OP_plus_uconst 0x5c]
    2421                      .dwattr $C$DW$466, DW_AT_accessibility(DW_ACCESS_public)
    2422              $C$DW$467       .dwtag  DW_TAG_member
    2423                      .dwattr $C$DW$467, DW_AT_type(*$C$DW$T$45)
    2424                      .dwattr $C$DW$467, DW_AT_name("V_bias")
    2425                      .dwattr $C$DW$467, DW_AT_TI_symbol_name("_V_bias")
    2426                      .dwattr $C$DW$467, DW_AT_data_member_location[DW_OP_plus_uconst 0x62]
    2427                      .dwattr $C$DW$467, DW_AT_accessibility(DW_ACCESS_public)
    2428                      .dwendtag $C$DW$T$92
    2429              
    2430              $C$DW$T$156     .dwtag  DW_TAG_typedef, DW_AT_name("MOTOR_Vars_t")
    2431                      .dwattr $C$DW$T$156, DW_AT_type(*$C$DW$T$92)
    2432                      .dwattr $C$DW$T$156, DW_AT_language(DW_LANG_C)
    2433              $C$DW$468       .dwtag  DW_TAG_TI_far_type
    2434                      .dwattr $C$DW$468, DW_AT_type(*$C$DW$T$156)
    2435              $C$DW$T$157     .dwtag  DW_TAG_volatile_type
    2436                      .dwattr $C$DW$T$157, DW_AT_type(*$C$DW$468)
    2437              
    2438              $C$DW$T$96      .dwtag  DW_TAG_structure_type
    2439                      .dwattr $C$DW$T$96, DW_AT_name("_OFFSET_")
    2440                      .dwattr $C$DW$T$96, DW_AT_byte_size(0x10)
    2441              $C$DW$469       .dwtag  DW_TAG_member
    2442                      .dwattr $C$DW$469, DW_AT_type(*$C$DW$T$37)
    2443                      .dwattr $C$DW$469, DW_AT_name("value")
    2444                      .dwattr $C$DW$469, DW_AT_TI_symbol_name("_value")
    2445                      .dwattr $C$DW$469, DW_AT_data_member_location[DW_OP_plus_uconst 0x0]
    2446                      .dwattr $C$DW$469, DW_AT_accessibility(DW_ACCESS_public)
    2447              $C$DW$470       .dwtag  DW_TAG_member
TMS320C2000 Assembler PC v6.4.9 Wed Dec 02 15:59:04 2015

Tools Copyright (c) 1996-2015 Texas Instruments Incorporated
C:\Users\ywcheng\AppData\Local\Temp\1536410                          PAGE   48

    2448                      .dwattr $C$DW$470, DW_AT_type(*$C$DW$T$37)
    2449                      .dwattr $C$DW$470, DW_AT_name("bias")
    2450                      .dwattr $C$DW$470, DW_AT_TI_symbol_name("_bias")
    2451                      .dwattr $C$DW$470, DW_AT_data_member_location[DW_OP_plus_uconst 0x2]
    2452                      .dwattr $C$DW$470, DW_AT_accessibility(DW_ACCESS_public)
    2453              $C$DW$471       .dwtag  DW_TAG_member
    2454                      .dwattr $C$DW$471, DW_AT_type(*$C$DW$T$93)
    2455                      .dwattr $C$DW$471, DW_AT_name("filter")
    2456                      .dwattr $C$DW$471, DW_AT_TI_symbol_name("_filter")
    2457                      .dwattr $C$DW$471, DW_AT_data_member_location[DW_OP_plus_uconst 0x4]
    2458                      .dwattr $C$DW$471, DW_AT_accessibility(DW_ACCESS_public)
    2459              $C$DW$472       .dwtag  DW_TAG_member
    2460                      .dwattr $C$DW$472, DW_AT_type(*$C$DW$T$95)
    2461                      .dwattr $C$DW$472, DW_AT_name("filterHandle")
    2462                      .dwattr $C$DW$472, DW_AT_TI_symbol_name("_filterHandle")
    2463                      .dwattr $C$DW$472, DW_AT_data_member_location[DW_OP_plus_uconst 0xe]
    2464                      .dwattr $C$DW$472, DW_AT_accessibility(DW_ACCESS_public)
    2465                      .dwendtag $C$DW$T$96
    2466              
    2467              $C$DW$T$60      .dwtag  DW_TAG_typedef, DW_AT_name("OFFSET_Obj")
    2468                      .dwattr $C$DW$T$60, DW_AT_type(*$C$DW$T$96)
    2469                      .dwattr $C$DW$T$60, DW_AT_language(DW_LANG_C)
    2470              
    2471              $C$DW$T$61      .dwtag  DW_TAG_array_type
    2472                      .dwattr $C$DW$T$61, DW_AT_type(*$C$DW$T$60)
    2473                      .dwattr $C$DW$T$61, DW_AT_language(DW_LANG_C)
    2474                      .dwattr $C$DW$T$61, DW_AT_byte_size(0x30)
    2475              $C$DW$473       .dwtag  DW_TAG_subrange_type
    2476                      .dwattr $C$DW$473, DW_AT_upper_bound(0x02)
    2477                      .dwendtag $C$DW$T$61
    2478              
    2479              
    2480              $C$DW$T$20      .dwtag  DW_TAG_structure_type
    2481                      .dwattr $C$DW$T$20, DW_AT_name("_OFFSET_Obj_")
    2482                      .dwattr $C$DW$T$20, DW_AT_declaration
    2483                      .dwendtag $C$DW$T$20
    2484              
    2485              $C$DW$T$57      .dwtag  DW_TAG_pointer_type
    2486                      .dwattr $C$DW$T$57, DW_AT_type(*$C$DW$T$20)
    2487                      .dwattr $C$DW$T$57, DW_AT_address_class(0x20)
    2488              $C$DW$T$58      .dwtag  DW_TAG_typedef, DW_AT_name("OFFSET_Handle")
    2489                      .dwattr $C$DW$T$58, DW_AT_type(*$C$DW$T$57)
    2490                      .dwattr $C$DW$T$58, DW_AT_language(DW_LANG_C)
    2491              
    2492              $C$DW$T$59      .dwtag  DW_TAG_array_type
    2493                      .dwattr $C$DW$T$59, DW_AT_type(*$C$DW$T$58)
    2494                      .dwattr $C$DW$T$59, DW_AT_language(DW_LANG_C)
    2495                      .dwattr $C$DW$T$59, DW_AT_byte_size(0x06)
    2496              $C$DW$474       .dwtag  DW_TAG_subrange_type
    2497                      .dwattr $C$DW$474, DW_AT_upper_bound(0x02)
    2498                      .dwendtag $C$DW$T$59
    2499              
    2500              
    2501              $C$DW$T$97      .dwtag  DW_TAG_structure_type
    2502                      .dwattr $C$DW$T$97, DW_AT_name("_OSC_Obj_")
TMS320C2000 Assembler PC v6.4.9 Wed Dec 02 15:59:04 2015

Tools Copyright (c) 1996-2015 Texas Instruments Incorporated
C:\Users\ywcheng\AppData\Local\Temp\1536410                          PAGE   49

    2503                      .dwattr $C$DW$T$97, DW_AT_byte_size(0x03)
    2504              $C$DW$475       .dwtag  DW_TAG_member
    2505                      .dwattr $C$DW$475, DW_AT_type(*$C$DW$T$22)
    2506                      .dwattr $C$DW$475, DW_AT_name("INTOSC1TRIM")
    2507                      .dwattr $C$DW$475, DW_AT_TI_symbol_name("_INTOSC1TRIM")
    2508                      .dwattr $C$DW$475, DW_AT_data_member_location[DW_OP_plus_uconst 0x0]
    2509                      .dwattr $C$DW$475, DW_AT_accessibility(DW_ACCESS_public)
    2510              $C$DW$476       .dwtag  DW_TAG_member
    2511                      .dwattr $C$DW$476, DW_AT_type(*$C$DW$T$22)
    2512                      .dwattr $C$DW$476, DW_AT_name("rsvd_1")
    2513                      .dwattr $C$DW$476, DW_AT_TI_symbol_name("_rsvd_1")
    2514                      .dwattr $C$DW$476, DW_AT_data_member_location[DW_OP_plus_uconst 0x1]
    2515                      .dwattr $C$DW$476, DW_AT_accessibility(DW_ACCESS_public)
    2516              $C$DW$477       .dwtag  DW_TAG_member
    2517                      .dwattr $C$DW$477, DW_AT_type(*$C$DW$T$22)
    2518                      .dwattr $C$DW$477, DW_AT_name("INTOSC2TRIM")
    2519                      .dwattr $C$DW$477, DW_AT_TI_symbol_name("_INTOSC2TRIM")
    2520                      .dwattr $C$DW$477, DW_AT_data_member_location[DW_OP_plus_uconst 0x2]
    2521                      .dwattr $C$DW$477, DW_AT_accessibility(DW_ACCESS_public)
    2522                      .dwendtag $C$DW$T$97
    2523              
    2524              $C$DW$T$62      .dwtag  DW_TAG_pointer_type
    2525                      .dwattr $C$DW$T$62, DW_AT_type(*$C$DW$T$97)
    2526                      .dwattr $C$DW$T$62, DW_AT_address_class(0x20)
    2527              $C$DW$T$63      .dwtag  DW_TAG_typedef, DW_AT_name("OSC_Handle")
    2528                      .dwattr $C$DW$T$63, DW_AT_type(*$C$DW$T$62)
    2529                      .dwattr $C$DW$T$63, DW_AT_language(DW_LANG_C)
    2530              
    2531              $C$DW$T$98      .dwtag  DW_TAG_structure_type
    2532                      .dwattr $C$DW$T$98, DW_AT_name("_PIE_IERIFR_t")
    2533                      .dwattr $C$DW$T$98, DW_AT_byte_size(0x02)
    2534              $C$DW$478       .dwtag  DW_TAG_member
    2535                      .dwattr $C$DW$478, DW_AT_type(*$C$DW$T$22)
    2536                      .dwattr $C$DW$478, DW_AT_name("IER")
    2537                      .dwattr $C$DW$478, DW_AT_TI_symbol_name("_IER")
    2538                      .dwattr $C$DW$478, DW_AT_data_member_location[DW_OP_plus_uconst 0x0]
    2539                      .dwattr $C$DW$478, DW_AT_accessibility(DW_ACCESS_public)
    2540              $C$DW$479       .dwtag  DW_TAG_member
    2541                      .dwattr $C$DW$479, DW_AT_type(*$C$DW$T$22)
    2542                      .dwattr $C$DW$479, DW_AT_name("IFR")
    2543                      .dwattr $C$DW$479, DW_AT_TI_symbol_name("_IFR")
    2544                      .dwattr $C$DW$479, DW_AT_data_member_location[DW_OP_plus_uconst 0x1]
    2545                      .dwattr $C$DW$479, DW_AT_accessibility(DW_ACCESS_public)
    2546                      .dwendtag $C$DW$T$98
    2547              
    2548              $C$DW$T$99      .dwtag  DW_TAG_typedef, DW_AT_name("PIE_IERIFR_t")
    2549                      .dwattr $C$DW$T$99, DW_AT_type(*$C$DW$T$98)
    2550                      .dwattr $C$DW$T$99, DW_AT_language(DW_LANG_C)
    2551              $C$DW$480       .dwtag  DW_TAG_TI_far_type
    2552                      .dwattr $C$DW$480, DW_AT_type(*$C$DW$T$99)
    2553              $C$DW$T$100     .dwtag  DW_TAG_volatile_type
    2554                      .dwattr $C$DW$T$100, DW_AT_type(*$C$DW$480)
    2555              
    2556              $C$DW$T$101     .dwtag  DW_TAG_array_type
    2557                      .dwattr $C$DW$T$101, DW_AT_type(*$C$DW$T$100)
TMS320C2000 Assembler PC v6.4.9 Wed Dec 02 15:59:04 2015

Tools Copyright (c) 1996-2015 Texas Instruments Incorporated
C:\Users\ywcheng\AppData\Local\Temp\1536410                          PAGE   50

    2558                      .dwattr $C$DW$T$101, DW_AT_language(DW_LANG_C)
    2559                      .dwattr $C$DW$T$101, DW_AT_byte_size(0x18)
    2560              $C$DW$481       .dwtag  DW_TAG_subrange_type
    2561                      .dwattr $C$DW$481, DW_AT_upper_bound(0x0b)
    2562                      .dwendtag $C$DW$T$101
    2563              
    2564              
    2565              $C$DW$T$108     .dwtag  DW_TAG_structure_type
    2566                      .dwattr $C$DW$T$108, DW_AT_name("_PIE_Obj_")
    2567                      .dwattr $C$DW$T$108, DW_AT_byte_size(0x639c)
    2568              $C$DW$482       .dwtag  DW_TAG_member
    2569                      .dwattr $C$DW$482, DW_AT_type(*$C$DW$T$22)
    2570                      .dwattr $C$DW$482, DW_AT_name("PIECTRL")
    2571                      .dwattr $C$DW$482, DW_AT_TI_symbol_name("_PIECTRL")
    2572                      .dwattr $C$DW$482, DW_AT_data_member_location[DW_OP_plus_uconst 0x0]
    2573                      .dwattr $C$DW$482, DW_AT_accessibility(DW_ACCESS_public)
    2574              $C$DW$483       .dwtag  DW_TAG_member
    2575                      .dwattr $C$DW$483, DW_AT_type(*$C$DW$T$22)
    2576                      .dwattr $C$DW$483, DW_AT_name("PIEACK")
    2577                      .dwattr $C$DW$483, DW_AT_TI_symbol_name("_PIEACK")
    2578                      .dwattr $C$DW$483, DW_AT_data_member_location[DW_OP_plus_uconst 0x1]
    2579                      .dwattr $C$DW$483, DW_AT_accessibility(DW_ACCESS_public)
    2580              $C$DW$484       .dwtag  DW_TAG_member
    2581                      .dwattr $C$DW$484, DW_AT_type(*$C$DW$T$101)
    2582                      .dwattr $C$DW$484, DW_AT_name("PIEIER_PIEIFR")
    2583                      .dwattr $C$DW$484, DW_AT_TI_symbol_name("_PIEIER_PIEIFR")
    2584                      .dwattr $C$DW$484, DW_AT_data_member_location[DW_OP_plus_uconst 0x2]
    2585                      .dwattr $C$DW$484, DW_AT_accessibility(DW_ACCESS_public)
    2586              $C$DW$485       .dwtag  DW_TAG_member
    2587                      .dwattr $C$DW$485, DW_AT_type(*$C$DW$T$102)
    2588                      .dwattr $C$DW$485, DW_AT_name("rsvd_1")
    2589                      .dwattr $C$DW$485, DW_AT_TI_symbol_name("_rsvd_1")
    2590                      .dwattr $C$DW$485, DW_AT_data_member_location[DW_OP_plus_uconst 0x1a]
    2591                      .dwattr $C$DW$485, DW_AT_accessibility(DW_ACCESS_public)
    2592              $C$DW$486       .dwtag  DW_TAG_member
    2593                      .dwattr $C$DW$486, DW_AT_type(*$C$DW$T$106)
    2594                      .dwattr $C$DW$486, DW_AT_name("Reset")
    2595                      .dwattr $C$DW$486, DW_AT_TI_symbol_name("_Reset")
    2596                      .dwattr $C$DW$486, DW_AT_data_member_location[DW_OP_plus_uconst 0x20]
    2597                      .dwattr $C$DW$486, DW_AT_accessibility(DW_ACCESS_public)
    2598              $C$DW$487       .dwtag  DW_TAG_member
    2599                      .dwattr $C$DW$487, DW_AT_type(*$C$DW$T$106)
    2600                      .dwattr $C$DW$487, DW_AT_name("INT1")
    2601                      .dwattr $C$DW$487, DW_AT_TI_symbol_name("_INT1")
    2602                      .dwattr $C$DW$487, DW_AT_data_member_location[DW_OP_plus_uconst 0x22]
    2603                      .dwattr $C$DW$487, DW_AT_accessibility(DW_ACCESS_public)
    2604              $C$DW$488       .dwtag  DW_TAG_member
    2605                      .dwattr $C$DW$488, DW_AT_type(*$C$DW$T$106)
    2606                      .dwattr $C$DW$488, DW_AT_name("INT2")
    2607                      .dwattr $C$DW$488, DW_AT_TI_symbol_name("_INT2")
    2608                      .dwattr $C$DW$488, DW_AT_data_member_location[DW_OP_plus_uconst 0x24]
    2609                      .dwattr $C$DW$488, DW_AT_accessibility(DW_ACCESS_public)
    2610              $C$DW$489       .dwtag  DW_TAG_member
    2611                      .dwattr $C$DW$489, DW_AT_type(*$C$DW$T$106)
    2612                      .dwattr $C$DW$489, DW_AT_name("INT3")
TMS320C2000 Assembler PC v6.4.9 Wed Dec 02 15:59:04 2015

Tools Copyright (c) 1996-2015 Texas Instruments Incorporated
C:\Users\ywcheng\AppData\Local\Temp\1536410                          PAGE   51

    2613                      .dwattr $C$DW$489, DW_AT_TI_symbol_name("_INT3")
    2614                      .dwattr $C$DW$489, DW_AT_data_member_location[DW_OP_plus_uconst 0x26]
    2615                      .dwattr $C$DW$489, DW_AT_accessibility(DW_ACCESS_public)
    2616              $C$DW$490       .dwtag  DW_TAG_member
    2617                      .dwattr $C$DW$490, DW_AT_type(*$C$DW$T$106)
    2618                      .dwattr $C$DW$490, DW_AT_name("INT4")
    2619                      .dwattr $C$DW$490, DW_AT_TI_symbol_name("_INT4")
    2620                      .dwattr $C$DW$490, DW_AT_data_member_location[DW_OP_plus_uconst 0x28]
    2621                      .dwattr $C$DW$490, DW_AT_accessibility(DW_ACCESS_public)
    2622              $C$DW$491       .dwtag  DW_TAG_member
    2623                      .dwattr $C$DW$491, DW_AT_type(*$C$DW$T$106)
    2624                      .dwattr $C$DW$491, DW_AT_name("INT5")
    2625                      .dwattr $C$DW$491, DW_AT_TI_symbol_name("_INT5")
    2626                      .dwattr $C$DW$491, DW_AT_data_member_location[DW_OP_plus_uconst 0x2a]
    2627                      .dwattr $C$DW$491, DW_AT_accessibility(DW_ACCESS_public)
    2628              $C$DW$492       .dwtag  DW_TAG_member
    2629                      .dwattr $C$DW$492, DW_AT_type(*$C$DW$T$106)
    2630                      .dwattr $C$DW$492, DW_AT_name("INT6")
    2631                      .dwattr $C$DW$492, DW_AT_TI_symbol_name("_INT6")
    2632                      .dwattr $C$DW$492, DW_AT_data_member_location[DW_OP_plus_uconst 0x2c]
    2633                      .dwattr $C$DW$492, DW_AT_accessibility(DW_ACCESS_public)
    2634              $C$DW$493       .dwtag  DW_TAG_member
    2635                      .dwattr $C$DW$493, DW_AT_type(*$C$DW$T$106)
    2636                      .dwattr $C$DW$493, DW_AT_name("INT7")
    2637                      .dwattr $C$DW$493, DW_AT_TI_symbol_name("_INT7")
    2638                      .dwattr $C$DW$493, DW_AT_data_member_location[DW_OP_plus_uconst 0x2e]
    2639                      .dwattr $C$DW$493, DW_AT_accessibility(DW_ACCESS_public)
    2640              $C$DW$494       .dwtag  DW_TAG_member
    2641                      .dwattr $C$DW$494, DW_AT_type(*$C$DW$T$106)
    2642                      .dwattr $C$DW$494, DW_AT_name("INT8")
    2643                      .dwattr $C$DW$494, DW_AT_TI_symbol_name("_INT8")
    2644                      .dwattr $C$DW$494, DW_AT_data_member_location[DW_OP_plus_uconst 0x30]
    2645                      .dwattr $C$DW$494, DW_AT_accessibility(DW_ACCESS_public)
    2646              $C$DW$495       .dwtag  DW_TAG_member
    2647                      .dwattr $C$DW$495, DW_AT_type(*$C$DW$T$106)
    2648                      .dwattr $C$DW$495, DW_AT_name("INT9")
    2649                      .dwattr $C$DW$495, DW_AT_TI_symbol_name("_INT9")
    2650                      .dwattr $C$DW$495, DW_AT_data_member_location[DW_OP_plus_uconst 0x32]
    2651                      .dwattr $C$DW$495, DW_AT_accessibility(DW_ACCESS_public)
    2652              $C$DW$496       .dwtag  DW_TAG_member
    2653                      .dwattr $C$DW$496, DW_AT_type(*$C$DW$T$106)
    2654                      .dwattr $C$DW$496, DW_AT_name("INT10")
    2655                      .dwattr $C$DW$496, DW_AT_TI_symbol_name("_INT10")
    2656                      .dwattr $C$DW$496, DW_AT_data_member_location[DW_OP_plus_uconst 0x34]
    2657                      .dwattr $C$DW$496, DW_AT_accessibility(DW_ACCESS_public)
    2658              $C$DW$497       .dwtag  DW_TAG_member
    2659                      .dwattr $C$DW$497, DW_AT_type(*$C$DW$T$106)
    2660                      .dwattr $C$DW$497, DW_AT_name("INT11")
    2661                      .dwattr $C$DW$497, DW_AT_TI_symbol_name("_INT11")
    2662                      .dwattr $C$DW$497, DW_AT_data_member_location[DW_OP_plus_uconst 0x36]
    2663                      .dwattr $C$DW$497, DW_AT_accessibility(DW_ACCESS_public)
    2664              $C$DW$498       .dwtag  DW_TAG_member
    2665                      .dwattr $C$DW$498, DW_AT_type(*$C$DW$T$106)
    2666                      .dwattr $C$DW$498, DW_AT_name("INT12")
    2667                      .dwattr $C$DW$498, DW_AT_TI_symbol_name("_INT12")
TMS320C2000 Assembler PC v6.4.9 Wed Dec 02 15:59:04 2015

Tools Copyright (c) 1996-2015 Texas Instruments Incorporated
C:\Users\ywcheng\AppData\Local\Temp\1536410                          PAGE   52

    2668                      .dwattr $C$DW$498, DW_AT_data_member_location[DW_OP_plus_uconst 0x38]
    2669                      .dwattr $C$DW$498, DW_AT_accessibility(DW_ACCESS_public)
    2670              $C$DW$499       .dwtag  DW_TAG_member
    2671                      .dwattr $C$DW$499, DW_AT_type(*$C$DW$T$106)
    2672                      .dwattr $C$DW$499, DW_AT_name("TINT1")
    2673                      .dwattr $C$DW$499, DW_AT_TI_symbol_name("_TINT1")
    2674                      .dwattr $C$DW$499, DW_AT_data_member_location[DW_OP_plus_uconst 0x3a]
    2675                      .dwattr $C$DW$499, DW_AT_accessibility(DW_ACCESS_public)
    2676              $C$DW$500       .dwtag  DW_TAG_member
    2677                      .dwattr $C$DW$500, DW_AT_type(*$C$DW$T$106)
    2678                      .dwattr $C$DW$500, DW_AT_name("TINT2")
    2679                      .dwattr $C$DW$500, DW_AT_TI_symbol_name("_TINT2")
    2680                      .dwattr $C$DW$500, DW_AT_data_member_location[DW_OP_plus_uconst 0x3c]
    2681                      .dwattr $C$DW$500, DW_AT_accessibility(DW_ACCESS_public)
    2682              $C$DW$501       .dwtag  DW_TAG_member
    2683                      .dwattr $C$DW$501, DW_AT_type(*$C$DW$T$106)
    2684                      .dwattr $C$DW$501, DW_AT_name("DATALOG")
    2685                      .dwattr $C$DW$501, DW_AT_TI_symbol_name("_DATALOG")
    2686                      .dwattr $C$DW$501, DW_AT_data_member_location[DW_OP_plus_uconst 0x3e]
    2687                      .dwattr $C$DW$501, DW_AT_accessibility(DW_ACCESS_public)
    2688              $C$DW$502       .dwtag  DW_TAG_member
    2689                      .dwattr $C$DW$502, DW_AT_type(*$C$DW$T$106)
    2690                      .dwattr $C$DW$502, DW_AT_name("RTOSINT")
    2691                      .dwattr $C$DW$502, DW_AT_TI_symbol_name("_RTOSINT")
    2692                      .dwattr $C$DW$502, DW_AT_data_member_location[DW_OP_plus_uconst 0x40]
    2693                      .dwattr $C$DW$502, DW_AT_accessibility(DW_ACCESS_public)
    2694              $C$DW$503       .dwtag  DW_TAG_member
    2695                      .dwattr $C$DW$503, DW_AT_type(*$C$DW$T$106)
    2696                      .dwattr $C$DW$503, DW_AT_name("EMUINT")
    2697                      .dwattr $C$DW$503, DW_AT_TI_symbol_name("_EMUINT")
    2698                      .dwattr $C$DW$503, DW_AT_data_member_location[DW_OP_plus_uconst 0x42]
    2699                      .dwattr $C$DW$503, DW_AT_accessibility(DW_ACCESS_public)
    2700              $C$DW$504       .dwtag  DW_TAG_member
    2701                      .dwattr $C$DW$504, DW_AT_type(*$C$DW$T$106)
    2702                      .dwattr $C$DW$504, DW_AT_name("NMI")
    2703                      .dwattr $C$DW$504, DW_AT_TI_symbol_name("_NMI")
    2704                      .dwattr $C$DW$504, DW_AT_data_member_location[DW_OP_plus_uconst 0x44]
    2705                      .dwattr $C$DW$504, DW_AT_accessibility(DW_ACCESS_public)
    2706              $C$DW$505       .dwtag  DW_TAG_member
    2707                      .dwattr $C$DW$505, DW_AT_type(*$C$DW$T$106)
    2708                      .dwattr $C$DW$505, DW_AT_name("ILLEGAL")
    2709                      .dwattr $C$DW$505, DW_AT_TI_symbol_name("_ILLEGAL")
    2710                      .dwattr $C$DW$505, DW_AT_data_member_location[DW_OP_plus_uconst 0x46]
    2711                      .dwattr $C$DW$505, DW_AT_accessibility(DW_ACCESS_public)
    2712              $C$DW$506       .dwtag  DW_TAG_member
    2713                      .dwattr $C$DW$506, DW_AT_type(*$C$DW$T$106)
    2714                      .dwattr $C$DW$506, DW_AT_name("USER1")
    2715                      .dwattr $C$DW$506, DW_AT_TI_symbol_name("_USER1")
    2716                      .dwattr $C$DW$506, DW_AT_data_member_location[DW_OP_plus_uconst 0x48]
    2717                      .dwattr $C$DW$506, DW_AT_accessibility(DW_ACCESS_public)
    2718              $C$DW$507       .dwtag  DW_TAG_member
    2719                      .dwattr $C$DW$507, DW_AT_type(*$C$DW$T$106)
    2720                      .dwattr $C$DW$507, DW_AT_name("USER2")
    2721                      .dwattr $C$DW$507, DW_AT_TI_symbol_name("_USER2")
    2722                      .dwattr $C$DW$507, DW_AT_data_member_location[DW_OP_plus_uconst 0x4a]
TMS320C2000 Assembler PC v6.4.9 Wed Dec 02 15:59:04 2015

Tools Copyright (c) 1996-2015 Texas Instruments Incorporated
C:\Users\ywcheng\AppData\Local\Temp\1536410                          PAGE   53

    2723                      .dwattr $C$DW$507, DW_AT_accessibility(DW_ACCESS_public)
    2724              $C$DW$508       .dwtag  DW_TAG_member
    2725                      .dwattr $C$DW$508, DW_AT_type(*$C$DW$T$106)
    2726                      .dwattr $C$DW$508, DW_AT_name("USER3")
    2727                      .dwattr $C$DW$508, DW_AT_TI_symbol_name("_USER3")
    2728                      .dwattr $C$DW$508, DW_AT_data_member_location[DW_OP_plus_uconst 0x4c]
    2729                      .dwattr $C$DW$508, DW_AT_accessibility(DW_ACCESS_public)
    2730              $C$DW$509       .dwtag  DW_TAG_member
    2731                      .dwattr $C$DW$509, DW_AT_type(*$C$DW$T$106)
    2732                      .dwattr $C$DW$509, DW_AT_name("USER4")
    2733                      .dwattr $C$DW$509, DW_AT_TI_symbol_name("_USER4")
    2734                      .dwattr $C$DW$509, DW_AT_data_member_location[DW_OP_plus_uconst 0x4e]
    2735                      .dwattr $C$DW$509, DW_AT_accessibility(DW_ACCESS_public)
    2736              $C$DW$510       .dwtag  DW_TAG_member
    2737                      .dwattr $C$DW$510, DW_AT_type(*$C$DW$T$106)
    2738                      .dwattr $C$DW$510, DW_AT_name("USER5")
    2739                      .dwattr $C$DW$510, DW_AT_TI_symbol_name("_USER5")
    2740                      .dwattr $C$DW$510, DW_AT_data_member_location[DW_OP_plus_uconst 0x50]
    2741                      .dwattr $C$DW$510, DW_AT_accessibility(DW_ACCESS_public)
    2742              $C$DW$511       .dwtag  DW_TAG_member
    2743                      .dwattr $C$DW$511, DW_AT_type(*$C$DW$T$106)
    2744                      .dwattr $C$DW$511, DW_AT_name("USER6")
    2745                      .dwattr $C$DW$511, DW_AT_TI_symbol_name("_USER6")
    2746                      .dwattr $C$DW$511, DW_AT_data_member_location[DW_OP_plus_uconst 0x52]
    2747                      .dwattr $C$DW$511, DW_AT_accessibility(DW_ACCESS_public)
    2748              $C$DW$512       .dwtag  DW_TAG_member
    2749                      .dwattr $C$DW$512, DW_AT_type(*$C$DW$T$106)
    2750                      .dwattr $C$DW$512, DW_AT_name("USER7")
    2751                      .dwattr $C$DW$512, DW_AT_TI_symbol_name("_USER7")
    2752                      .dwattr $C$DW$512, DW_AT_data_member_location[DW_OP_plus_uconst 0x54]
    2753                      .dwattr $C$DW$512, DW_AT_accessibility(DW_ACCESS_public)
    2754              $C$DW$513       .dwtag  DW_TAG_member
    2755                      .dwattr $C$DW$513, DW_AT_type(*$C$DW$T$106)
    2756                      .dwattr $C$DW$513, DW_AT_name("USER8")
    2757                      .dwattr $C$DW$513, DW_AT_TI_symbol_name("_USER8")
    2758                      .dwattr $C$DW$513, DW_AT_data_member_location[DW_OP_plus_uconst 0x56]
    2759                      .dwattr $C$DW$513, DW_AT_accessibility(DW_ACCESS_public)
    2760              $C$DW$514       .dwtag  DW_TAG_member
    2761                      .dwattr $C$DW$514, DW_AT_type(*$C$DW$T$106)
    2762                      .dwattr $C$DW$514, DW_AT_name("USER9")
    2763                      .dwattr $C$DW$514, DW_AT_TI_symbol_name("_USER9")
    2764                      .dwattr $C$DW$514, DW_AT_data_member_location[DW_OP_plus_uconst 0x58]
    2765                      .dwattr $C$DW$514, DW_AT_accessibility(DW_ACCESS_public)
    2766              $C$DW$515       .dwtag  DW_TAG_member
    2767                      .dwattr $C$DW$515, DW_AT_type(*$C$DW$T$106)
    2768                      .dwattr $C$DW$515, DW_AT_name("USER10")
    2769                      .dwattr $C$DW$515, DW_AT_TI_symbol_name("_USER10")
    2770                      .dwattr $C$DW$515, DW_AT_data_member_location[DW_OP_plus_uconst 0x5a]
    2771                      .dwattr $C$DW$515, DW_AT_accessibility(DW_ACCESS_public)
    2772              $C$DW$516       .dwtag  DW_TAG_member
    2773                      .dwattr $C$DW$516, DW_AT_type(*$C$DW$T$106)
    2774                      .dwattr $C$DW$516, DW_AT_name("USER11")
    2775                      .dwattr $C$DW$516, DW_AT_TI_symbol_name("_USER11")
    2776                      .dwattr $C$DW$516, DW_AT_data_member_location[DW_OP_plus_uconst 0x5c]
    2777                      .dwattr $C$DW$516, DW_AT_accessibility(DW_ACCESS_public)
TMS320C2000 Assembler PC v6.4.9 Wed Dec 02 15:59:04 2015

Tools Copyright (c) 1996-2015 Texas Instruments Incorporated
C:\Users\ywcheng\AppData\Local\Temp\1536410                          PAGE   54

    2778              $C$DW$517       .dwtag  DW_TAG_member
    2779                      .dwattr $C$DW$517, DW_AT_type(*$C$DW$T$106)
    2780                      .dwattr $C$DW$517, DW_AT_name("USER12")
    2781                      .dwattr $C$DW$517, DW_AT_TI_symbol_name("_USER12")
    2782                      .dwattr $C$DW$517, DW_AT_data_member_location[DW_OP_plus_uconst 0x5e]
    2783                      .dwattr $C$DW$517, DW_AT_accessibility(DW_ACCESS_public)
    2784              $C$DW$518       .dwtag  DW_TAG_member
    2785                      .dwattr $C$DW$518, DW_AT_type(*$C$DW$T$106)
    2786                      .dwattr $C$DW$518, DW_AT_name("ADCINT1_HP")
    2787                      .dwattr $C$DW$518, DW_AT_TI_symbol_name("_ADCINT1_HP")
    2788                      .dwattr $C$DW$518, DW_AT_data_member_location[DW_OP_plus_uconst 0x60]
    2789                      .dwattr $C$DW$518, DW_AT_accessibility(DW_ACCESS_public)
    2790              $C$DW$519       .dwtag  DW_TAG_member
    2791                      .dwattr $C$DW$519, DW_AT_type(*$C$DW$T$106)
    2792                      .dwattr $C$DW$519, DW_AT_name("ADCINT2_HP")
    2793                      .dwattr $C$DW$519, DW_AT_TI_symbol_name("_ADCINT2_HP")
    2794                      .dwattr $C$DW$519, DW_AT_data_member_location[DW_OP_plus_uconst 0x62]
    2795                      .dwattr $C$DW$519, DW_AT_accessibility(DW_ACCESS_public)
    2796              $C$DW$520       .dwtag  DW_TAG_member
    2797                      .dwattr $C$DW$520, DW_AT_type(*$C$DW$T$106)
    2798                      .dwattr $C$DW$520, DW_AT_name("rsvd1_3")
    2799                      .dwattr $C$DW$520, DW_AT_TI_symbol_name("_rsvd1_3")
    2800                      .dwattr $C$DW$520, DW_AT_data_member_location[DW_OP_plus_uconst 0x64]
    2801                      .dwattr $C$DW$520, DW_AT_accessibility(DW_ACCESS_public)
    2802              $C$DW$521       .dwtag  DW_TAG_member
    2803                      .dwattr $C$DW$521, DW_AT_type(*$C$DW$T$106)
    2804                      .dwattr $C$DW$521, DW_AT_name("XINT1")
    2805                      .dwattr $C$DW$521, DW_AT_TI_symbol_name("_XINT1")
    2806                      .dwattr $C$DW$521, DW_AT_data_member_location[DW_OP_plus_uconst 0x66]
    2807                      .dwattr $C$DW$521, DW_AT_accessibility(DW_ACCESS_public)
    2808              $C$DW$522       .dwtag  DW_TAG_member
    2809                      .dwattr $C$DW$522, DW_AT_type(*$C$DW$T$106)
    2810                      .dwattr $C$DW$522, DW_AT_name("XINT2")
    2811                      .dwattr $C$DW$522, DW_AT_TI_symbol_name("_XINT2")
    2812                      .dwattr $C$DW$522, DW_AT_data_member_location[DW_OP_plus_uconst 0x68]
    2813                      .dwattr $C$DW$522, DW_AT_accessibility(DW_ACCESS_public)
    2814              $C$DW$523       .dwtag  DW_TAG_member
    2815                      .dwattr $C$DW$523, DW_AT_type(*$C$DW$T$106)
    2816                      .dwattr $C$DW$523, DW_AT_name("ADCINT9")
    2817                      .dwattr $C$DW$523, DW_AT_TI_symbol_name("_ADCINT9")
    2818                      .dwattr $C$DW$523, DW_AT_data_member_location[DW_OP_plus_uconst 0x6a]
    2819                      .dwattr $C$DW$523, DW_AT_accessibility(DW_ACCESS_public)
    2820              $C$DW$524       .dwtag  DW_TAG_member
    2821                      .dwattr $C$DW$524, DW_AT_type(*$C$DW$T$106)
    2822                      .dwattr $C$DW$524, DW_AT_name("TINT0")
    2823                      .dwattr $C$DW$524, DW_AT_TI_symbol_name("_TINT0")
    2824                      .dwattr $C$DW$524, DW_AT_data_member_location[DW_OP_plus_uconst 0x6c]
    2825                      .dwattr $C$DW$524, DW_AT_accessibility(DW_ACCESS_public)
    2826              $C$DW$525       .dwtag  DW_TAG_member
    2827                      .dwattr $C$DW$525, DW_AT_type(*$C$DW$T$106)
    2828                      .dwattr $C$DW$525, DW_AT_name("WAKEINT")
    2829                      .dwattr $C$DW$525, DW_AT_TI_symbol_name("_WAKEINT")
    2830                      .dwattr $C$DW$525, DW_AT_data_member_location[DW_OP_plus_uconst 0x6e]
    2831                      .dwattr $C$DW$525, DW_AT_accessibility(DW_ACCESS_public)
    2832              $C$DW$526       .dwtag  DW_TAG_member
TMS320C2000 Assembler PC v6.4.9 Wed Dec 02 15:59:04 2015

Tools Copyright (c) 1996-2015 Texas Instruments Incorporated
C:\Users\ywcheng\AppData\Local\Temp\1536410                          PAGE   55

    2833                      .dwattr $C$DW$526, DW_AT_type(*$C$DW$T$106)
    2834                      .dwattr $C$DW$526, DW_AT_name("EPWM1_TZINT")
    2835                      .dwattr $C$DW$526, DW_AT_TI_symbol_name("_EPWM1_TZINT")
    2836                      .dwattr $C$DW$526, DW_AT_data_member_location[DW_OP_plus_uconst 0x70]
    2837                      .dwattr $C$DW$526, DW_AT_accessibility(DW_ACCESS_public)
    2838              $C$DW$527       .dwtag  DW_TAG_member
    2839                      .dwattr $C$DW$527, DW_AT_type(*$C$DW$T$106)
    2840                      .dwattr $C$DW$527, DW_AT_name("EPWM2_TZINT")
    2841                      .dwattr $C$DW$527, DW_AT_TI_symbol_name("_EPWM2_TZINT")
    2842                      .dwattr $C$DW$527, DW_AT_data_member_location[DW_OP_plus_uconst 0x72]
    2843                      .dwattr $C$DW$527, DW_AT_accessibility(DW_ACCESS_public)
    2844              $C$DW$528       .dwtag  DW_TAG_member
    2845                      .dwattr $C$DW$528, DW_AT_type(*$C$DW$T$106)
    2846                      .dwattr $C$DW$528, DW_AT_name("EPWM3_TZINT")
    2847                      .dwattr $C$DW$528, DW_AT_TI_symbol_name("_EPWM3_TZINT")
    2848                      .dwattr $C$DW$528, DW_AT_data_member_location[DW_OP_plus_uconst 0x74]
    2849                      .dwattr $C$DW$528, DW_AT_accessibility(DW_ACCESS_public)
    2850              $C$DW$529       .dwtag  DW_TAG_member
    2851                      .dwattr $C$DW$529, DW_AT_type(*$C$DW$T$106)
    2852                      .dwattr $C$DW$529, DW_AT_name("EPWM4_TZINT")
    2853                      .dwattr $C$DW$529, DW_AT_TI_symbol_name("_EPWM4_TZINT")
    2854                      .dwattr $C$DW$529, DW_AT_data_member_location[DW_OP_plus_uconst 0x76]
    2855                      .dwattr $C$DW$529, DW_AT_accessibility(DW_ACCESS_public)
    2856              $C$DW$530       .dwtag  DW_TAG_member
    2857                      .dwattr $C$DW$530, DW_AT_type(*$C$DW$T$106)
    2858                      .dwattr $C$DW$530, DW_AT_name("rsvd2_5")
    2859                      .dwattr $C$DW$530, DW_AT_TI_symbol_name("_rsvd2_5")
    2860                      .dwattr $C$DW$530, DW_AT_data_member_location[DW_OP_plus_uconst 0x78]
    2861                      .dwattr $C$DW$530, DW_AT_accessibility(DW_ACCESS_public)
    2862              $C$DW$531       .dwtag  DW_TAG_member
    2863                      .dwattr $C$DW$531, DW_AT_type(*$C$DW$T$106)
    2864                      .dwattr $C$DW$531, DW_AT_name("rsvd2_6")
    2865                      .dwattr $C$DW$531, DW_AT_TI_symbol_name("_rsvd2_6")
    2866                      .dwattr $C$DW$531, DW_AT_data_member_location[DW_OP_plus_uconst 0x7a]
    2867                      .dwattr $C$DW$531, DW_AT_accessibility(DW_ACCESS_public)
    2868              $C$DW$532       .dwtag  DW_TAG_member
    2869                      .dwattr $C$DW$532, DW_AT_type(*$C$DW$T$106)
    2870                      .dwattr $C$DW$532, DW_AT_name("rsvd2_7")
    2871                      .dwattr $C$DW$532, DW_AT_TI_symbol_name("_rsvd2_7")
    2872                      .dwattr $C$DW$532, DW_AT_data_member_location[DW_OP_plus_uconst 0x7c]
    2873                      .dwattr $C$DW$532, DW_AT_accessibility(DW_ACCESS_public)
    2874              $C$DW$533       .dwtag  DW_TAG_member
    2875                      .dwattr $C$DW$533, DW_AT_type(*$C$DW$T$106)
    2876                      .dwattr $C$DW$533, DW_AT_name("rsvd2_8")
    2877                      .dwattr $C$DW$533, DW_AT_TI_symbol_name("_rsvd2_8")
    2878                      .dwattr $C$DW$533, DW_AT_data_member_location[DW_OP_plus_uconst 0x7e]
    2879                      .dwattr $C$DW$533, DW_AT_accessibility(DW_ACCESS_public)
    2880              $C$DW$534       .dwtag  DW_TAG_member
    2881                      .dwattr $C$DW$534, DW_AT_type(*$C$DW$T$106)
    2882                      .dwattr $C$DW$534, DW_AT_name("EPWM1_INT")
    2883                      .dwattr $C$DW$534, DW_AT_TI_symbol_name("_EPWM1_INT")
    2884                      .dwattr $C$DW$534, DW_AT_data_member_location[DW_OP_plus_uconst 0x80]
    2885                      .dwattr $C$DW$534, DW_AT_accessibility(DW_ACCESS_public)
    2886              $C$DW$535       .dwtag  DW_TAG_member
    2887                      .dwattr $C$DW$535, DW_AT_type(*$C$DW$T$106)
TMS320C2000 Assembler PC v6.4.9 Wed Dec 02 15:59:04 2015

Tools Copyright (c) 1996-2015 Texas Instruments Incorporated
C:\Users\ywcheng\AppData\Local\Temp\1536410                          PAGE   56

    2888                      .dwattr $C$DW$535, DW_AT_name("EPWM2_INT")
    2889                      .dwattr $C$DW$535, DW_AT_TI_symbol_name("_EPWM2_INT")
    2890                      .dwattr $C$DW$535, DW_AT_data_member_location[DW_OP_plus_uconst 0x82]
    2891                      .dwattr $C$DW$535, DW_AT_accessibility(DW_ACCESS_public)
    2892              $C$DW$536       .dwtag  DW_TAG_member
    2893                      .dwattr $C$DW$536, DW_AT_type(*$C$DW$T$106)
    2894                      .dwattr $C$DW$536, DW_AT_name("EPWM3_INT")
    2895                      .dwattr $C$DW$536, DW_AT_TI_symbol_name("_EPWM3_INT")
    2896                      .dwattr $C$DW$536, DW_AT_data_member_location[DW_OP_plus_uconst 0x84]
    2897                      .dwattr $C$DW$536, DW_AT_accessibility(DW_ACCESS_public)
    2898              $C$DW$537       .dwtag  DW_TAG_member
    2899                      .dwattr $C$DW$537, DW_AT_type(*$C$DW$T$106)
    2900                      .dwattr $C$DW$537, DW_AT_name("EPWM4_INT")
    2901                      .dwattr $C$DW$537, DW_AT_TI_symbol_name("_EPWM4_INT")
    2902                      .dwattr $C$DW$537, DW_AT_data_member_location[DW_OP_plus_uconst 0x86]
    2903                      .dwattr $C$DW$537, DW_AT_accessibility(DW_ACCESS_public)
    2904              $C$DW$538       .dwtag  DW_TAG_member
    2905                      .dwattr $C$DW$538, DW_AT_type(*$C$DW$T$106)
    2906                      .dwattr $C$DW$538, DW_AT_name("rsvd3_5")
    2907                      .dwattr $C$DW$538, DW_AT_TI_symbol_name("_rsvd3_5")
    2908                      .dwattr $C$DW$538, DW_AT_data_member_location[DW_OP_plus_uconst 0x88]
    2909                      .dwattr $C$DW$538, DW_AT_accessibility(DW_ACCESS_public)
    2910              $C$DW$539       .dwtag  DW_TAG_member
    2911                      .dwattr $C$DW$539, DW_AT_type(*$C$DW$T$106)
    2912                      .dwattr $C$DW$539, DW_AT_name("rsvd3_6")
    2913                      .dwattr $C$DW$539, DW_AT_TI_symbol_name("_rsvd3_6")
    2914                      .dwattr $C$DW$539, DW_AT_data_member_location[DW_OP_plus_uconst 0x8a]
    2915                      .dwattr $C$DW$539, DW_AT_accessibility(DW_ACCESS_public)
    2916              $C$DW$540       .dwtag  DW_TAG_member
    2917                      .dwattr $C$DW$540, DW_AT_type(*$C$DW$T$106)
    2918                      .dwattr $C$DW$540, DW_AT_name("rsvd3_7")
    2919                      .dwattr $C$DW$540, DW_AT_TI_symbol_name("_rsvd3_7")
    2920                      .dwattr $C$DW$540, DW_AT_data_member_location[DW_OP_plus_uconst 0x8c]
    2921                      .dwattr $C$DW$540, DW_AT_accessibility(DW_ACCESS_public)
    2922              $C$DW$541       .dwtag  DW_TAG_member
    2923                      .dwattr $C$DW$541, DW_AT_type(*$C$DW$T$106)
    2924                      .dwattr $C$DW$541, DW_AT_name("rsvd3_8")
    2925                      .dwattr $C$DW$541, DW_AT_TI_symbol_name("_rsvd3_8")
    2926                      .dwattr $C$DW$541, DW_AT_data_member_location[DW_OP_plus_uconst 0x8e]
    2927                      .dwattr $C$DW$541, DW_AT_accessibility(DW_ACCESS_public)
    2928              $C$DW$542       .dwtag  DW_TAG_member
    2929                      .dwattr $C$DW$542, DW_AT_type(*$C$DW$T$106)
    2930                      .dwattr $C$DW$542, DW_AT_name("ECAP1_INT")
    2931                      .dwattr $C$DW$542, DW_AT_TI_symbol_name("_ECAP1_INT")
    2932                      .dwattr $C$DW$542, DW_AT_data_member_location[DW_OP_plus_uconst 0x90]
    2933                      .dwattr $C$DW$542, DW_AT_accessibility(DW_ACCESS_public)
    2934              $C$DW$543       .dwtag  DW_TAG_member
    2935                      .dwattr $C$DW$543, DW_AT_type(*$C$DW$T$106)
    2936                      .dwattr $C$DW$543, DW_AT_name("rsvd4_2")
    2937                      .dwattr $C$DW$543, DW_AT_TI_symbol_name("_rsvd4_2")
    2938                      .dwattr $C$DW$543, DW_AT_data_member_location[DW_OP_plus_uconst 0x92]
    2939                      .dwattr $C$DW$543, DW_AT_accessibility(DW_ACCESS_public)
    2940              $C$DW$544       .dwtag  DW_TAG_member
    2941                      .dwattr $C$DW$544, DW_AT_type(*$C$DW$T$106)
    2942                      .dwattr $C$DW$544, DW_AT_name("rsvd4_3")
TMS320C2000 Assembler PC v6.4.9 Wed Dec 02 15:59:04 2015

Tools Copyright (c) 1996-2015 Texas Instruments Incorporated
C:\Users\ywcheng\AppData\Local\Temp\1536410                          PAGE   57

