TMS320C2000 Assembler PC v6.4.9 Wed Dec 02 17:22:54 2015

Tools Copyright (c) 1996-2015 Texas Instruments Incorporated
C:\Users\ywcheng\AppData\Local\Temp\6082010                          PAGE    1

       1              ;***************************************************************
       2              ;* TMS320C2000 C/C++ Codegen                         PC v6.4.9 *
       3              ;* Date/Time created: Wed Dec 02 17:22:53 2015                 *
       4              ;***************************************************************
       5                      .compiler_opts --float_support=softlib --hll_source=on --mem_model:code=flat --mem_model:data=large -
       6        0002  FP      .set    XAR2
       7              
       8              $C$DW$CU        .dwtag  DW_TAG_compile_unit
       9                      .dwattr $C$DW$CU, DW_AT_name("C:/ti/motorware/motorware_1_01_00_15/sw/modules/hal/boards/hvkit_rev1p1
      10                      .dwattr $C$DW$CU, DW_AT_producer("TI TMS320C2000 C/C++ Codegen PC v6.4.9 Copyright (c) 1996-2015 Texa
      11                      .dwattr $C$DW$CU, DW_AT_TI_version(0x01)
      12                      .dwattr $C$DW$CU, DW_AT_comp_dir("C:\ti\motorware\motorware_1_01_00_15\sw\solutions\instaspin_foc\boa
      13              
      14              $C$DW$1 .dwtag  DW_TAG_subprogram, DW_AT_name("GPIO_setLow")
      15                      .dwattr $C$DW$1, DW_AT_TI_symbol_name("_GPIO_setLow")
      16                      .dwattr $C$DW$1, DW_AT_declaration
      17                      .dwattr $C$DW$1, DW_AT_external
      18              $C$DW$2 .dwtag  DW_TAG_formal_parameter
      19                      .dwattr $C$DW$2, DW_AT_type(*$C$DW$T$53)
      20              $C$DW$3 .dwtag  DW_TAG_formal_parameter
      21                      .dwattr $C$DW$3, DW_AT_type(*$C$DW$T$235)
      22                      .dwendtag $C$DW$1
      23              
      24              
      25              $C$DW$4 .dwtag  DW_TAG_subprogram, DW_AT_name("GPIO_setDirection")
      26                      .dwattr $C$DW$4, DW_AT_TI_symbol_name("_GPIO_setDirection")
      27                      .dwattr $C$DW$4, DW_AT_declaration
      28                      .dwattr $C$DW$4, DW_AT_external
      29              $C$DW$5 .dwtag  DW_TAG_formal_parameter
      30                      .dwattr $C$DW$5, DW_AT_type(*$C$DW$T$53)
      31              $C$DW$6 .dwtag  DW_TAG_formal_parameter
      32                      .dwattr $C$DW$6, DW_AT_type(*$C$DW$T$235)
      33              $C$DW$7 .dwtag  DW_TAG_formal_parameter
      34                      .dwattr $C$DW$7, DW_AT_type(*$C$DW$T$238)
      35                      .dwendtag $C$DW$4
      36              
      37              
      38              $C$DW$8 .dwtag  DW_TAG_subprogram, DW_AT_name("GPIO_setMode")
      39                      .dwattr $C$DW$8, DW_AT_TI_symbol_name("_GPIO_setMode")
      40                      .dwattr $C$DW$8, DW_AT_declaration
      41                      .dwattr $C$DW$8, DW_AT_external
      42              $C$DW$9 .dwtag  DW_TAG_formal_parameter
      43                      .dwattr $C$DW$9, DW_AT_type(*$C$DW$T$53)
      44              $C$DW$10        .dwtag  DW_TAG_formal_parameter
      45                      .dwattr $C$DW$10, DW_AT_type(*$C$DW$T$235)
      46              $C$DW$11        .dwtag  DW_TAG_formal_parameter
      47                      .dwattr $C$DW$11, DW_AT_type(*$C$DW$T$241)
      48                      .dwendtag $C$DW$8
      49              
      50              
      51              $C$DW$12        .dwtag  DW_TAG_subprogram, DW_AT_name("OSC_setTrim")
      52                      .dwattr $C$DW$12, DW_AT_TI_symbol_name("_OSC_setTrim")
      53                      .dwattr $C$DW$12, DW_AT_declaration
      54                      .dwattr $C$DW$12, DW_AT_external
      55              $C$DW$13        .dwtag  DW_TAG_formal_parameter
TMS320C2000 Assembler PC v6.4.9 Wed Dec 02 17:22:54 2015

Tools Copyright (c) 1996-2015 Texas Instruments Incorporated
C:\Users\ywcheng\AppData\Local\Temp\6082010                          PAGE    2

      56                      .dwattr $C$DW$13, DW_AT_type(*$C$DW$T$60)
      57              $C$DW$14        .dwtag  DW_TAG_formal_parameter
      58                      .dwattr $C$DW$14, DW_AT_type(*$C$DW$T$244)
      59              $C$DW$15        .dwtag  DW_TAG_formal_parameter
      60                      .dwattr $C$DW$15, DW_AT_type(*$C$DW$T$369)
      61                      .dwendtag $C$DW$12
      62              
      63              
      64              $C$DW$16        .dwtag  DW_TAG_subprogram, DW_AT_name("FLASH_setNumRandomReadWaitStates")
      65                      .dwattr $C$DW$16, DW_AT_TI_symbol_name("_FLASH_setNumRandomReadWaitStates")
      66                      .dwattr $C$DW$16, DW_AT_declaration
      67                      .dwattr $C$DW$16, DW_AT_external
      68              $C$DW$17        .dwtag  DW_TAG_formal_parameter
      69                      .dwattr $C$DW$17, DW_AT_type(*$C$DW$T$51)
      70              $C$DW$18        .dwtag  DW_TAG_formal_parameter
      71                      .dwattr $C$DW$18, DW_AT_type(*$C$DW$T$229)
      72                      .dwendtag $C$DW$16
      73              
      74              
      75              $C$DW$19        .dwtag  DW_TAG_subprogram, DW_AT_name("FLASH_setNumPagedReadWaitStates")
      76                      .dwattr $C$DW$19, DW_AT_TI_symbol_name("_FLASH_setNumPagedReadWaitStates")
      77                      .dwattr $C$DW$19, DW_AT_declaration
      78                      .dwattr $C$DW$19, DW_AT_external
      79              $C$DW$20        .dwtag  DW_TAG_formal_parameter
      80                      .dwattr $C$DW$20, DW_AT_type(*$C$DW$T$51)
      81              $C$DW$21        .dwtag  DW_TAG_formal_parameter
      82                      .dwattr $C$DW$21, DW_AT_type(*$C$DW$T$226)
      83                      .dwendtag $C$DW$19
      84              
      85              
      86              $C$DW$22        .dwtag  DW_TAG_subprogram, DW_AT_name("FLASH_setStandbyWaitCount")
      87                      .dwattr $C$DW$22, DW_AT_TI_symbol_name("_FLASH_setStandbyWaitCount")
      88                      .dwattr $C$DW$22, DW_AT_declaration
      89                      .dwattr $C$DW$22, DW_AT_external
      90              $C$DW$23        .dwtag  DW_TAG_formal_parameter
      91                      .dwattr $C$DW$23, DW_AT_type(*$C$DW$T$51)
      92              $C$DW$24        .dwtag  DW_TAG_formal_parameter
      93                      .dwattr $C$DW$24, DW_AT_type(*$C$DW$T$369)
      94                      .dwendtag $C$DW$22
      95              
      96              
      97              $C$DW$25        .dwtag  DW_TAG_subprogram, DW_AT_name("FLASH_setOtpWaitStates")
      98                      .dwattr $C$DW$25, DW_AT_TI_symbol_name("_FLASH_setOtpWaitStates")
      99                      .dwattr $C$DW$25, DW_AT_declaration
     100                      .dwattr $C$DW$25, DW_AT_external
     101              $C$DW$26        .dwtag  DW_TAG_formal_parameter
     102                      .dwattr $C$DW$26, DW_AT_type(*$C$DW$T$51)
     103              $C$DW$27        .dwtag  DW_TAG_formal_parameter
     104                      .dwattr $C$DW$27, DW_AT_type(*$C$DW$T$232)
     105                      .dwendtag $C$DW$25
     106              
     107              
     108              $C$DW$28        .dwtag  DW_TAG_subprogram, DW_AT_name("PIE_enableAdcInt")
     109                      .dwattr $C$DW$28, DW_AT_TI_symbol_name("_PIE_enableAdcInt")
     110                      .dwattr $C$DW$28, DW_AT_declaration
TMS320C2000 Assembler PC v6.4.9 Wed Dec 02 17:22:54 2015

Tools Copyright (c) 1996-2015 Texas Instruments Incorporated
C:\Users\ywcheng\AppData\Local\Temp\6082010                          PAGE    3

     111                      .dwattr $C$DW$28, DW_AT_external
     112              $C$DW$29        .dwtag  DW_TAG_formal_parameter
     113                      .dwattr $C$DW$29, DW_AT_type(*$C$DW$T$62)
     114              $C$DW$30        .dwtag  DW_TAG_formal_parameter
     115                      .dwattr $C$DW$30, DW_AT_type(*$C$DW$T$118)
     116                      .dwendtag $C$DW$28
     117              
     118              
     119              $C$DW$31        .dwtag  DW_TAG_subprogram, DW_AT_name("PIE_enable")
     120                      .dwattr $C$DW$31, DW_AT_TI_symbol_name("_PIE_enable")
     121                      .dwattr $C$DW$31, DW_AT_declaration
     122                      .dwattr $C$DW$31, DW_AT_external
     123              $C$DW$32        .dwtag  DW_TAG_formal_parameter
     124                      .dwattr $C$DW$32, DW_AT_type(*$C$DW$T$62)
     125                      .dwendtag $C$DW$31
     126              
     127              
     128              $C$DW$33        .dwtag  DW_TAG_subprogram, DW_AT_name("PIE_enablePwmInt")
     129                      .dwattr $C$DW$33, DW_AT_TI_symbol_name("_PIE_enablePwmInt")
     130                      .dwattr $C$DW$33, DW_AT_declaration
     131                      .dwattr $C$DW$33, DW_AT_external
     132              $C$DW$34        .dwtag  DW_TAG_formal_parameter
     133                      .dwattr $C$DW$34, DW_AT_type(*$C$DW$T$62)
     134              $C$DW$35        .dwtag  DW_TAG_formal_parameter
     135                      .dwattr $C$DW$35, DW_AT_type(*$C$DW$T$214)
     136                      .dwendtag $C$DW$33
     137              
     138              
     139              $C$DW$36        .dwtag  DW_TAG_subprogram, DW_AT_name("PIE_setDefaultIntVectorTable")
     140                      .dwattr $C$DW$36, DW_AT_TI_symbol_name("_PIE_setDefaultIntVectorTable")
     141                      .dwattr $C$DW$36, DW_AT_declaration
     142                      .dwattr $C$DW$36, DW_AT_external
     143              $C$DW$37        .dwtag  DW_TAG_formal_parameter
     144                      .dwattr $C$DW$37, DW_AT_type(*$C$DW$T$62)
     145                      .dwendtag $C$DW$36
     146              
     147              
     148              $C$DW$38        .dwtag  DW_TAG_subprogram, DW_AT_name("PIE_clearAllInts")
     149                      .dwattr $C$DW$38, DW_AT_TI_symbol_name("_PIE_clearAllInts")
     150                      .dwattr $C$DW$38, DW_AT_declaration
     151                      .dwattr $C$DW$38, DW_AT_external
     152              $C$DW$39        .dwtag  DW_TAG_formal_parameter
     153                      .dwattr $C$DW$39, DW_AT_type(*$C$DW$T$62)
     154                      .dwendtag $C$DW$38
     155              
     156              
     157              $C$DW$40        .dwtag  DW_TAG_subprogram, DW_AT_name("PIE_disable")
     158                      .dwattr $C$DW$40, DW_AT_TI_symbol_name("_PIE_disable")
     159                      .dwattr $C$DW$40, DW_AT_declaration
     160                      .dwattr $C$DW$40, DW_AT_external
     161              $C$DW$41        .dwtag  DW_TAG_formal_parameter
     162                      .dwattr $C$DW$41, DW_AT_type(*$C$DW$T$62)
     163                      .dwendtag $C$DW$40
     164              
     165              
TMS320C2000 Assembler PC v6.4.9 Wed Dec 02 17:22:54 2015

Tools Copyright (c) 1996-2015 Texas Instruments Incorporated
C:\Users\ywcheng\AppData\Local\Temp\6082010                          PAGE    4

     166              $C$DW$42        .dwtag  DW_TAG_subprogram, DW_AT_name("PIE_clearAllFlags")
     167                      .dwattr $C$DW$42, DW_AT_TI_symbol_name("_PIE_clearAllFlags")
     168                      .dwattr $C$DW$42, DW_AT_declaration
     169                      .dwattr $C$DW$42, DW_AT_external
     170              $C$DW$43        .dwtag  DW_TAG_formal_parameter
     171                      .dwattr $C$DW$43, DW_AT_type(*$C$DW$T$62)
     172                      .dwendtag $C$DW$42
     173              
     174              
     175              $C$DW$44        .dwtag  DW_TAG_subprogram, DW_AT_name("PIE_disableAllInts")
     176                      .dwattr $C$DW$44, DW_AT_TI_symbol_name("_PIE_disableAllInts")
     177                      .dwattr $C$DW$44, DW_AT_declaration
     178                      .dwattr $C$DW$44, DW_AT_external
     179              $C$DW$45        .dwtag  DW_TAG_formal_parameter
     180                      .dwattr $C$DW$45, DW_AT_type(*$C$DW$T$62)
     181                      .dwendtag $C$DW$44
     182              
     183              
     184              $C$DW$46        .dwtag  DW_TAG_subprogram, DW_AT_name("CLK_enableCompClock")
     185                      .dwattr $C$DW$46, DW_AT_TI_symbol_name("_CLK_enableCompClock")
     186                      .dwattr $C$DW$46, DW_AT_declaration
     187                      .dwattr $C$DW$46, DW_AT_external
     188              $C$DW$47        .dwtag  DW_TAG_formal_parameter
     189                      .dwattr $C$DW$47, DW_AT_type(*$C$DW$T$47)
     190              $C$DW$48        .dwtag  DW_TAG_formal_parameter
     191                      .dwattr $C$DW$48, DW_AT_type(*$C$DW$T$211)
     192                      .dwendtag $C$DW$46
     193              
     194              
     195              $C$DW$49        .dwtag  DW_TAG_subprogram, DW_AT_name("CLK_enableAdcClock")
     196                      .dwattr $C$DW$49, DW_AT_TI_symbol_name("_CLK_enableAdcClock")
     197                      .dwattr $C$DW$49, DW_AT_declaration
     198                      .dwattr $C$DW$49, DW_AT_external
     199              $C$DW$50        .dwtag  DW_TAG_formal_parameter
     200                      .dwattr $C$DW$50, DW_AT_type(*$C$DW$T$47)
     201                      .dwendtag $C$DW$49
     202              
     203              
     204              $C$DW$51        .dwtag  DW_TAG_subprogram, DW_AT_name("CLK_enableOsc1")
     205                      .dwattr $C$DW$51, DW_AT_TI_symbol_name("_CLK_enableOsc1")
     206                      .dwattr $C$DW$51, DW_AT_declaration
     207                      .dwattr $C$DW$51, DW_AT_external
     208              $C$DW$52        .dwtag  DW_TAG_formal_parameter
     209                      .dwattr $C$DW$52, DW_AT_type(*$C$DW$T$47)
     210                      .dwendtag $C$DW$51
     211              
     212              
     213              $C$DW$53        .dwtag  DW_TAG_subprogram, DW_AT_name("CLK_enableEcap1Clock")
     214                      .dwattr $C$DW$53, DW_AT_TI_symbol_name("_CLK_enableEcap1Clock")
     215                      .dwattr $C$DW$53, DW_AT_declaration
     216                      .dwattr $C$DW$53, DW_AT_external
     217              $C$DW$54        .dwtag  DW_TAG_formal_parameter
     218                      .dwattr $C$DW$54, DW_AT_type(*$C$DW$T$47)
     219                      .dwendtag $C$DW$53
     220              
TMS320C2000 Assembler PC v6.4.9 Wed Dec 02 17:22:54 2015

Tools Copyright (c) 1996-2015 Texas Instruments Incorporated
C:\Users\ywcheng\AppData\Local\Temp\6082010                          PAGE    5

     221              
     222              $C$DW$55        .dwtag  DW_TAG_subprogram, DW_AT_name("CLK_enablePwmClock")
     223                      .dwattr $C$DW$55, DW_AT_TI_symbol_name("_CLK_enablePwmClock")
     224                      .dwattr $C$DW$55, DW_AT_declaration
     225                      .dwattr $C$DW$55, DW_AT_external
     226              $C$DW$56        .dwtag  DW_TAG_formal_parameter
     227                      .dwattr $C$DW$56, DW_AT_type(*$C$DW$T$47)
     228              $C$DW$57        .dwtag  DW_TAG_formal_parameter
     229                      .dwattr $C$DW$57, DW_AT_type(*$C$DW$T$214)
     230                      .dwendtag $C$DW$55
     231              
     232              
     233              $C$DW$58        .dwtag  DW_TAG_subprogram, DW_AT_name("CLK_disableI2cClock")
     234                      .dwattr $C$DW$58, DW_AT_TI_symbol_name("_CLK_disableI2cClock")
     235                      .dwattr $C$DW$58, DW_AT_declaration
     236                      .dwattr $C$DW$58, DW_AT_external
     237              $C$DW$59        .dwtag  DW_TAG_formal_parameter
     238                      .dwattr $C$DW$59, DW_AT_type(*$C$DW$T$47)
     239                      .dwendtag $C$DW$58
     240              
     241              
     242              $C$DW$60        .dwtag  DW_TAG_subprogram, DW_AT_name("CLK_disableHrPwmClock")
     243                      .dwattr $C$DW$60, DW_AT_TI_symbol_name("_CLK_disableHrPwmClock")
     244                      .dwattr $C$DW$60, DW_AT_declaration
     245                      .dwattr $C$DW$60, DW_AT_external
     246              $C$DW$61        .dwtag  DW_TAG_formal_parameter
     247                      .dwattr $C$DW$61, DW_AT_type(*$C$DW$T$47)
     248                      .dwendtag $C$DW$60
     249              
     250              
     251              $C$DW$62        .dwtag  DW_TAG_subprogram, DW_AT_name("CLK_disableSpiaClock")
     252                      .dwattr $C$DW$62, DW_AT_TI_symbol_name("_CLK_disableSpiaClock")
     253                      .dwattr $C$DW$62, DW_AT_declaration
     254                      .dwattr $C$DW$62, DW_AT_external
     255              $C$DW$63        .dwtag  DW_TAG_formal_parameter
     256                      .dwattr $C$DW$63, DW_AT_type(*$C$DW$T$47)
     257                      .dwendtag $C$DW$62
     258              
     259              
     260              $C$DW$64        .dwtag  DW_TAG_subprogram, DW_AT_name("CLK_disableOsc2")
     261                      .dwattr $C$DW$64, DW_AT_TI_symbol_name("_CLK_disableOsc2")
     262                      .dwattr $C$DW$64, DW_AT_declaration
     263                      .dwattr $C$DW$64, DW_AT_external
     264              $C$DW$65        .dwtag  DW_TAG_formal_parameter
     265                      .dwattr $C$DW$65, DW_AT_type(*$C$DW$T$47)
     266                      .dwendtag $C$DW$64
     267              
     268              
     269              $C$DW$66        .dwtag  DW_TAG_subprogram, DW_AT_name("CLK_setOscSrc")
     270                      .dwattr $C$DW$66, DW_AT_TI_symbol_name("_CLK_setOscSrc")
     271                      .dwattr $C$DW$66, DW_AT_declaration
     272                      .dwattr $C$DW$66, DW_AT_external
     273              $C$DW$67        .dwtag  DW_TAG_formal_parameter
     274                      .dwattr $C$DW$67, DW_AT_type(*$C$DW$T$47)
     275              $C$DW$68        .dwtag  DW_TAG_formal_parameter
TMS320C2000 Assembler PC v6.4.9 Wed Dec 02 17:22:54 2015

Tools Copyright (c) 1996-2015 Texas Instruments Incorporated
C:\Users\ywcheng\AppData\Local\Temp\6082010                          PAGE    6

     276                      .dwattr $C$DW$68, DW_AT_type(*$C$DW$T$223)
     277                      .dwendtag $C$DW$66
     278              
     279              
     280              $C$DW$69        .dwtag  DW_TAG_subprogram, DW_AT_name("CLK_setLowSpdPreScaler")
     281                      .dwattr $C$DW$69, DW_AT_TI_symbol_name("_CLK_setLowSpdPreScaler")
     282                      .dwattr $C$DW$69, DW_AT_declaration
     283                      .dwattr $C$DW$69, DW_AT_external
     284              $C$DW$70        .dwtag  DW_TAG_formal_parameter
     285                      .dwattr $C$DW$70, DW_AT_type(*$C$DW$T$47)
     286              $C$DW$71        .dwtag  DW_TAG_formal_parameter
     287                      .dwattr $C$DW$71, DW_AT_type(*$C$DW$T$220)
     288                      .dwendtag $C$DW$69
     289              
     290              
     291              $C$DW$72        .dwtag  DW_TAG_subprogram, DW_AT_name("FLASH_enablePipelineMode")
     292                      .dwattr $C$DW$72, DW_AT_TI_symbol_name("_FLASH_enablePipelineMode")
     293                      .dwattr $C$DW$72, DW_AT_declaration
     294                      .dwattr $C$DW$72, DW_AT_external
     295              $C$DW$73        .dwtag  DW_TAG_formal_parameter
     296                      .dwattr $C$DW$73, DW_AT_type(*$C$DW$T$51)
     297                      .dwendtag $C$DW$72
     298              
     299              
     300              $C$DW$74        .dwtag  DW_TAG_subprogram, DW_AT_name("FLASH_setActiveWaitCount")
     301                      .dwattr $C$DW$74, DW_AT_TI_symbol_name("_FLASH_setActiveWaitCount")
     302                      .dwattr $C$DW$74, DW_AT_declaration
     303                      .dwattr $C$DW$74, DW_AT_external
     304              $C$DW$75        .dwtag  DW_TAG_formal_parameter
     305                      .dwattr $C$DW$75, DW_AT_type(*$C$DW$T$51)
     306              $C$DW$76        .dwtag  DW_TAG_formal_parameter
     307                      .dwattr $C$DW$76, DW_AT_type(*$C$DW$T$369)
     308                      .dwendtag $C$DW$74
     309              
     310              
     311              $C$DW$77        .dwtag  DW_TAG_subprogram, DW_AT_name("CLK_enableSciaClock")
     312                      .dwattr $C$DW$77, DW_AT_TI_symbol_name("_CLK_enableSciaClock")
     313                      .dwattr $C$DW$77, DW_AT_declaration
     314                      .dwattr $C$DW$77, DW_AT_external
     315              $C$DW$78        .dwtag  DW_TAG_formal_parameter
     316                      .dwattr $C$DW$78, DW_AT_type(*$C$DW$T$47)
     317                      .dwendtag $C$DW$77
     318              
     319              
     320              $C$DW$79        .dwtag  DW_TAG_subprogram, DW_AT_name("CLK_disableTbClockSync")
     321                      .dwattr $C$DW$79, DW_AT_TI_symbol_name("_CLK_disableTbClockSync")
     322                      .dwattr $C$DW$79, DW_AT_declaration
     323                      .dwattr $C$DW$79, DW_AT_external
     324              $C$DW$80        .dwtag  DW_TAG_formal_parameter
     325                      .dwattr $C$DW$80, DW_AT_type(*$C$DW$T$47)
     326                      .dwendtag $C$DW$79
     327              
     328              
     329              $C$DW$81        .dwtag  DW_TAG_subprogram, DW_AT_name("CLK_enableTbClockSync")
     330                      .dwattr $C$DW$81, DW_AT_TI_symbol_name("_CLK_enableTbClockSync")
TMS320C2000 Assembler PC v6.4.9 Wed Dec 02 17:22:54 2015

Tools Copyright (c) 1996-2015 Texas Instruments Incorporated
C:\Users\ywcheng\AppData\Local\Temp\6082010                          PAGE    7

     331                      .dwattr $C$DW$81, DW_AT_declaration
     332                      .dwattr $C$DW$81, DW_AT_external
     333              $C$DW$82        .dwtag  DW_TAG_formal_parameter
     334                      .dwattr $C$DW$82, DW_AT_type(*$C$DW$T$47)
     335                      .dwendtag $C$DW$81
     336              
     337              
     338              $C$DW$83        .dwtag  DW_TAG_subprogram, DW_AT_name("PLL_setDivideSelect")
     339                      .dwattr $C$DW$83, DW_AT_TI_symbol_name("_PLL_setDivideSelect")
     340                      .dwattr $C$DW$83, DW_AT_declaration
     341                      .dwattr $C$DW$83, DW_AT_external
     342              $C$DW$84        .dwtag  DW_TAG_formal_parameter
     343                      .dwattr $C$DW$84, DW_AT_type(*$C$DW$T$64)
     344              $C$DW$85        .dwtag  DW_TAG_formal_parameter
     345                      .dwattr $C$DW$85, DW_AT_type(*$C$DW$T$258)
     346                      .dwendtag $C$DW$83
     347              
     348              
     349              $C$DW$86        .dwtag  DW_TAG_subprogram, DW_AT_name("PLL_setClkFreq")
     350                      .dwattr $C$DW$86, DW_AT_TI_symbol_name("_PLL_setClkFreq")
     351                      .dwattr $C$DW$86, DW_AT_declaration
     352                      .dwattr $C$DW$86, DW_AT_external
     353              $C$DW$87        .dwtag  DW_TAG_formal_parameter
     354                      .dwattr $C$DW$87, DW_AT_type(*$C$DW$T$64)
     355              $C$DW$88        .dwtag  DW_TAG_formal_parameter
     356                      .dwattr $C$DW$88, DW_AT_type(*$C$DW$T$247)
     357                      .dwendtag $C$DW$86
     358              
     359              
     360              $C$DW$89        .dwtag  DW_TAG_subprogram, DW_AT_name("TIMER_setDecimationFactor")
     361                      .dwattr $C$DW$89, DW_AT_TI_symbol_name("_TIMER_setDecimationFactor")
     362                      .dwattr $C$DW$89, DW_AT_declaration
     363                      .dwattr $C$DW$89, DW_AT_external
     364              $C$DW$90        .dwtag  DW_TAG_formal_parameter
     365                      .dwattr $C$DW$90, DW_AT_type(*$C$DW$T$71)
     366              $C$DW$91        .dwtag  DW_TAG_formal_parameter
     367                      .dwattr $C$DW$91, DW_AT_type(*$C$DW$T$369)
     368                      .dwendtag $C$DW$89
     369              
     370              
     371              $C$DW$92        .dwtag  DW_TAG_subprogram, DW_AT_name("TIMER_setEmulationMode")
     372                      .dwattr $C$DW$92, DW_AT_TI_symbol_name("_TIMER_setEmulationMode")
     373                      .dwattr $C$DW$92, DW_AT_declaration
     374                      .dwattr $C$DW$92, DW_AT_external
     375              $C$DW$93        .dwtag  DW_TAG_formal_parameter
     376                      .dwattr $C$DW$93, DW_AT_type(*$C$DW$T$71)
     377              $C$DW$94        .dwtag  DW_TAG_formal_parameter
     378                      .dwattr $C$DW$94, DW_AT_type(*$C$DW$T$269)
     379                      .dwendtag $C$DW$92
     380              
     381              
     382              $C$DW$95        .dwtag  DW_TAG_subprogram, DW_AT_name("PLL_disableClkDetect")
     383                      .dwattr $C$DW$95, DW_AT_TI_symbol_name("_PLL_disableClkDetect")
     384                      .dwattr $C$DW$95, DW_AT_declaration
     385                      .dwattr $C$DW$95, DW_AT_external
TMS320C2000 Assembler PC v6.4.9 Wed Dec 02 17:22:54 2015

Tools Copyright (c) 1996-2015 Texas Instruments Incorporated
C:\Users\ywcheng\AppData\Local\Temp\6082010                          PAGE    8

     386              $C$DW$96        .dwtag  DW_TAG_formal_parameter
     387                      .dwattr $C$DW$96, DW_AT_type(*$C$DW$T$64)
     388                      .dwendtag $C$DW$95
     389              
     390              
     391              $C$DW$97        .dwtag  DW_TAG_subprogram, DW_AT_name("CLK_setClkOutPreScaler")
     392                      .dwattr $C$DW$97, DW_AT_TI_symbol_name("_CLK_setClkOutPreScaler")
     393                      .dwattr $C$DW$97, DW_AT_declaration
     394                      .dwattr $C$DW$97, DW_AT_external
     395              $C$DW$98        .dwtag  DW_TAG_formal_parameter
     396                      .dwattr $C$DW$98, DW_AT_type(*$C$DW$T$47)
     397              $C$DW$99        .dwtag  DW_TAG_formal_parameter
     398                      .dwattr $C$DW$99, DW_AT_type(*$C$DW$T$217)
     399                      .dwendtag $C$DW$97
     400              
     401              
     402              $C$DW$100       .dwtag  DW_TAG_subprogram, DW_AT_name("PLL_enableClkDetect")
     403                      .dwattr $C$DW$100, DW_AT_TI_symbol_name("_PLL_enableClkDetect")
     404                      .dwattr $C$DW$100, DW_AT_declaration
     405                      .dwattr $C$DW$100, DW_AT_external
     406              $C$DW$101       .dwtag  DW_TAG_formal_parameter
     407                      .dwattr $C$DW$101, DW_AT_type(*$C$DW$T$64)
     408                      .dwendtag $C$DW$100
     409              
     410              
     411              $C$DW$102       .dwtag  DW_TAG_subprogram, DW_AT_name("OFFSET_setBeta")
     412                      .dwattr $C$DW$102, DW_AT_TI_symbol_name("_OFFSET_setBeta")
     413                      .dwattr $C$DW$102, DW_AT_declaration
     414                      .dwattr $C$DW$102, DW_AT_external
     415              $C$DW$103       .dwtag  DW_TAG_formal_parameter
     416                      .dwattr $C$DW$103, DW_AT_type(*$C$DW$T$55)
     417              $C$DW$104       .dwtag  DW_TAG_formal_parameter
     418                      .dwattr $C$DW$104, DW_AT_type(*$C$DW$T$462)
     419                      .dwendtag $C$DW$102
     420              
     421              
     422              $C$DW$105       .dwtag  DW_TAG_subprogram, DW_AT_name("OFFSET_setOffset")
     423                      .dwattr $C$DW$105, DW_AT_TI_symbol_name("_OFFSET_setOffset")
     424                      .dwattr $C$DW$105, DW_AT_declaration
     425                      .dwattr $C$DW$105, DW_AT_external
     426              $C$DW$106       .dwtag  DW_TAG_formal_parameter
     427                      .dwattr $C$DW$106, DW_AT_type(*$C$DW$T$55)
     428              $C$DW$107       .dwtag  DW_TAG_formal_parameter
     429                      .dwattr $C$DW$107, DW_AT_type(*$C$DW$T$34)
     430                      .dwendtag $C$DW$105
     431              
     432              
     433              $C$DW$108       .dwtag  DW_TAG_subprogram, DW_AT_name("OFFSET_setInitCond")
     434                      .dwattr $C$DW$108, DW_AT_TI_symbol_name("_OFFSET_setInitCond")
     435                      .dwattr $C$DW$108, DW_AT_declaration
     436                      .dwattr $C$DW$108, DW_AT_external
     437              $C$DW$109       .dwtag  DW_TAG_formal_parameter
     438                      .dwattr $C$DW$109, DW_AT_type(*$C$DW$T$55)
     439              $C$DW$110       .dwtag  DW_TAG_formal_parameter
     440                      .dwattr $C$DW$110, DW_AT_type(*$C$DW$T$462)
TMS320C2000 Assembler PC v6.4.9 Wed Dec 02 17:22:54 2015

Tools Copyright (c) 1996-2015 Texas Instruments Incorporated
C:\Users\ywcheng\AppData\Local\Temp\6082010                          PAGE    9

     441                      .dwendtag $C$DW$108
     442              
     443              
     444              $C$DW$111       .dwtag  DW_TAG_subprogram, DW_AT_name("usDelay")
     445                      .dwattr $C$DW$111, DW_AT_TI_symbol_name("_usDelay")
     446                      .dwattr $C$DW$111, DW_AT_declaration
     447                      .dwattr $C$DW$111, DW_AT_external
     448              $C$DW$112       .dwtag  DW_TAG_formal_parameter
     449                      .dwattr $C$DW$112, DW_AT_type(*$C$DW$T$467)
     450                      .dwendtag $C$DW$111
     451              
     452              
     453              $C$DW$113       .dwtag  DW_TAG_subprogram, DW_AT_name("PLL_resetClkDetect")
     454                      .dwattr $C$DW$113, DW_AT_TI_symbol_name("_PLL_resetClkDetect")
     455                      .dwattr $C$DW$113, DW_AT_declaration
     456                      .dwattr $C$DW$113, DW_AT_external
     457              $C$DW$114       .dwtag  DW_TAG_formal_parameter
     458                      .dwattr $C$DW$114, DW_AT_type(*$C$DW$T$64)
     459                      .dwendtag $C$DW$113
     460              
     461              
     462              $C$DW$115       .dwtag  DW_TAG_subprogram, DW_AT_name("WDOG_disable")
     463                      .dwattr $C$DW$115, DW_AT_TI_symbol_name("_WDOG_disable")
     464                      .dwattr $C$DW$115, DW_AT_declaration
     465                      .dwattr $C$DW$115, DW_AT_external
     466              $C$DW$116       .dwtag  DW_TAG_formal_parameter
     467                      .dwattr $C$DW$116, DW_AT_type(*$C$DW$T$74)
     468                      .dwendtag $C$DW$115
     469              
     470              
     471              $C$DW$117       .dwtag  DW_TAG_subprogram, DW_AT_name("TIMER_setPreScaler")
     472                      .dwattr $C$DW$117, DW_AT_TI_symbol_name("_TIMER_setPreScaler")
     473                      .dwattr $C$DW$117, DW_AT_declaration
     474                      .dwattr $C$DW$117, DW_AT_external
     475              $C$DW$118       .dwtag  DW_TAG_formal_parameter
     476                      .dwattr $C$DW$118, DW_AT_type(*$C$DW$T$71)
     477              $C$DW$119       .dwtag  DW_TAG_formal_parameter
     478                      .dwattr $C$DW$119, DW_AT_type(*$C$DW$T$369)
     479                      .dwendtag $C$DW$117
     480              
     481              
     482              $C$DW$120       .dwtag  DW_TAG_subprogram, DW_AT_name("CPU_enableDebugInt")
     483                      .dwattr $C$DW$120, DW_AT_TI_symbol_name("_CPU_enableDebugInt")
     484                      .dwattr $C$DW$120, DW_AT_declaration
     485                      .dwattr $C$DW$120, DW_AT_external
     486              $C$DW$121       .dwtag  DW_TAG_formal_parameter
     487                      .dwattr $C$DW$121, DW_AT_type(*$C$DW$T$49)
     488                      .dwendtag $C$DW$120
     489              
     490              
     491              $C$DW$122       .dwtag  DW_TAG_subprogram, DW_AT_name("ADC_setOffTrim")
     492                      .dwattr $C$DW$122, DW_AT_TI_symbol_name("_ADC_setOffTrim")
     493                      .dwattr $C$DW$122, DW_AT_declaration
     494                      .dwattr $C$DW$122, DW_AT_external
     495              $C$DW$123       .dwtag  DW_TAG_formal_parameter
TMS320C2000 Assembler PC v6.4.9 Wed Dec 02 17:22:54 2015

Tools Copyright (c) 1996-2015 Texas Instruments Incorporated
C:\Users\ywcheng\AppData\Local\Temp\6082010                          PAGE   10

     496                      .dwattr $C$DW$123, DW_AT_type(*$C$DW$T$45)
     497              $C$DW$124       .dwtag  DW_TAG_formal_parameter
     498                      .dwattr $C$DW$124, DW_AT_type(*$C$DW$T$369)
     499                      .dwendtag $C$DW$122
     500              
     501              
     502              $C$DW$125       .dwtag  DW_TAG_subprogram, DW_AT_name("ADC_disableVoltRefLoConv")
     503                      .dwattr $C$DW$125, DW_AT_TI_symbol_name("_ADC_disableVoltRefLoConv")
     504                      .dwattr $C$DW$125, DW_AT_declaration
     505                      .dwattr $C$DW$125, DW_AT_external
     506              $C$DW$126       .dwtag  DW_TAG_formal_parameter
     507                      .dwattr $C$DW$126, DW_AT_type(*$C$DW$T$45)
     508                      .dwendtag $C$DW$125
     509              
     510              
     511              $C$DW$127       .dwtag  DW_TAG_subprogram, DW_AT_name("ADC_enableVoltRefLoConv")
     512                      .dwattr $C$DW$127, DW_AT_TI_symbol_name("_ADC_enableVoltRefLoConv")
     513                      .dwattr $C$DW$127, DW_AT_declaration
     514                      .dwattr $C$DW$127, DW_AT_external
     515              $C$DW$128       .dwtag  DW_TAG_formal_parameter
     516                      .dwattr $C$DW$128, DW_AT_type(*$C$DW$T$45)
     517                      .dwendtag $C$DW$127
     518              
     519              
     520              $C$DW$129       .dwtag  DW_TAG_subprogram, DW_AT_name("ADC_setSocFrc")
     521                      .dwattr $C$DW$129, DW_AT_TI_symbol_name("_ADC_setSocFrc")
     522                      .dwattr $C$DW$129, DW_AT_declaration
     523                      .dwattr $C$DW$129, DW_AT_external
     524              $C$DW$130       .dwtag  DW_TAG_formal_parameter
     525                      .dwattr $C$DW$130, DW_AT_type(*$C$DW$T$45)
     526              $C$DW$131       .dwtag  DW_TAG_formal_parameter
     527                      .dwattr $C$DW$131, DW_AT_type(*$C$DW$T$148)
     528                      .dwendtag $C$DW$129
     529              
     530              
     531              $C$DW$132       .dwtag  DW_TAG_subprogram, DW_AT_name("ADC_setSocTrigSrc")
     532                      .dwattr $C$DW$132, DW_AT_TI_symbol_name("_ADC_setSocTrigSrc")
     533                      .dwattr $C$DW$132, DW_AT_declaration
     534                      .dwattr $C$DW$132, DW_AT_external
     535              $C$DW$133       .dwtag  DW_TAG_formal_parameter
     536                      .dwattr $C$DW$133, DW_AT_type(*$C$DW$T$45)
     537              $C$DW$134       .dwtag  DW_TAG_formal_parameter
     538                      .dwattr $C$DW$134, DW_AT_type(*$C$DW$T$136)
     539              $C$DW$135       .dwtag  DW_TAG_formal_parameter
     540                      .dwattr $C$DW$135, DW_AT_type(*$C$DW$T$145)
     541                      .dwendtag $C$DW$132
     542              
     543              
     544              $C$DW$136       .dwtag  DW_TAG_subprogram, DW_AT_name("ADC_setVoltRefSrc")
     545                      .dwattr $C$DW$136, DW_AT_TI_symbol_name("_ADC_setVoltRefSrc")
     546                      .dwattr $C$DW$136, DW_AT_declaration
     547                      .dwattr $C$DW$136, DW_AT_external
     548              $C$DW$137       .dwtag  DW_TAG_formal_parameter
     549                      .dwattr $C$DW$137, DW_AT_type(*$C$DW$T$45)
     550              $C$DW$138       .dwtag  DW_TAG_formal_parameter
TMS320C2000 Assembler PC v6.4.9 Wed Dec 02 17:22:54 2015

Tools Copyright (c) 1996-2015 Texas Instruments Incorporated
C:\Users\ywcheng\AppData\Local\Temp\6082010                          PAGE   11

     551                      .dwattr $C$DW$138, DW_AT_type(*$C$DW$T$154)
     552                      .dwendtag $C$DW$136
     553              
     554              
     555              $C$DW$139       .dwtag  DW_TAG_subprogram, DW_AT_name("ADC_setTempSensorSrc")
     556                      .dwattr $C$DW$139, DW_AT_TI_symbol_name("_ADC_setTempSensorSrc")
     557                      .dwattr $C$DW$139, DW_AT_declaration
     558                      .dwattr $C$DW$139, DW_AT_external
     559              $C$DW$140       .dwtag  DW_TAG_formal_parameter
     560                      .dwattr $C$DW$140, DW_AT_type(*$C$DW$T$45)
     561              $C$DW$141       .dwtag  DW_TAG_formal_parameter
     562                      .dwattr $C$DW$141, DW_AT_type(*$C$DW$T$151)
     563                      .dwendtag $C$DW$139
     564              
     565              
     566              $C$DW$142       .dwtag  DW_TAG_subprogram, DW_AT_name("ADC_setupSocTrigSrc")
     567                      .dwattr $C$DW$142, DW_AT_TI_symbol_name("_ADC_setupSocTrigSrc")
     568                      .dwattr $C$DW$142, DW_AT_declaration
     569                      .dwattr $C$DW$142, DW_AT_external
     570              $C$DW$143       .dwtag  DW_TAG_formal_parameter
     571                      .dwattr $C$DW$143, DW_AT_type(*$C$DW$T$45)
     572              $C$DW$144       .dwtag  DW_TAG_formal_parameter
     573                      .dwattr $C$DW$144, DW_AT_type(*$C$DW$T$136)
     574              $C$DW$145       .dwtag  DW_TAG_formal_parameter
     575                      .dwattr $C$DW$145, DW_AT_type(*$C$DW$T$157)
     576                      .dwendtag $C$DW$142
     577              
     578              
     579              $C$DW$146       .dwtag  DW_TAG_subprogram, DW_AT_name("CPU_clearIntFlags")
     580                      .dwattr $C$DW$146, DW_AT_TI_symbol_name("_CPU_clearIntFlags")
     581                      .dwattr $C$DW$146, DW_AT_declaration
     582                      .dwattr $C$DW$146, DW_AT_external
     583              $C$DW$147       .dwtag  DW_TAG_formal_parameter
     584                      .dwattr $C$DW$147, DW_AT_type(*$C$DW$T$49)
     585                      .dwendtag $C$DW$146
     586              
     587              
     588              $C$DW$148       .dwtag  DW_TAG_subprogram, DW_AT_name("PWM_disableChopping")
     589                      .dwattr $C$DW$148, DW_AT_TI_symbol_name("_PWM_disableChopping")
     590                      .dwattr $C$DW$148, DW_AT_declaration
     591                      .dwattr $C$DW$148, DW_AT_external
     592              $C$DW$149       .dwtag  DW_TAG_formal_parameter
     593                      .dwattr $C$DW$149, DW_AT_type(*$C$DW$T$66)
     594                      .dwendtag $C$DW$148
     595              
     596              
     597              $C$DW$150       .dwtag  DW_TAG_subprogram, DW_AT_name("ADC_enableNoOverlapMode")
     598                      .dwattr $C$DW$150, DW_AT_TI_symbol_name("_ADC_enableNoOverlapMode")
     599                      .dwattr $C$DW$150, DW_AT_declaration
     600                      .dwattr $C$DW$150, DW_AT_external
     601              $C$DW$151       .dwtag  DW_TAG_formal_parameter
     602                      .dwattr $C$DW$151, DW_AT_type(*$C$DW$T$45)
     603                      .dwendtag $C$DW$150
     604              
     605              
TMS320C2000 Assembler PC v6.4.9 Wed Dec 02 17:22:54 2015

Tools Copyright (c) 1996-2015 Texas Instruments Incorporated
C:\Users\ywcheng\AppData\Local\Temp\6082010                          PAGE   12

     606              $C$DW$152       .dwtag  DW_TAG_subprogram, DW_AT_name("ADC_setSocFrcWord")
     607                      .dwattr $C$DW$152, DW_AT_TI_symbol_name("_ADC_setSocFrcWord")
     608                      .dwattr $C$DW$152, DW_AT_declaration
     609                      .dwattr $C$DW$152, DW_AT_external
     610              $C$DW$153       .dwtag  DW_TAG_formal_parameter
     611                      .dwattr $C$DW$153, DW_AT_type(*$C$DW$T$45)
     612              $C$DW$154       .dwtag  DW_TAG_formal_parameter
     613                      .dwattr $C$DW$154, DW_AT_type(*$C$DW$T$369)
     614                      .dwendtag $C$DW$152
     615              
     616              
     617              $C$DW$155       .dwtag  DW_TAG_subprogram, DW_AT_name("CPU_disableGlobalInts")
     618                      .dwattr $C$DW$155, DW_AT_TI_symbol_name("_CPU_disableGlobalInts")
     619                      .dwattr $C$DW$155, DW_AT_declaration
     620                      .dwattr $C$DW$155, DW_AT_external
     621              $C$DW$156       .dwtag  DW_TAG_formal_parameter
     622                      .dwattr $C$DW$156, DW_AT_type(*$C$DW$T$49)
     623                      .dwendtag $C$DW$155
     624              
     625              
     626              $C$DW$157       .dwtag  DW_TAG_subprogram, DW_AT_name("CPU_disableInts")
     627                      .dwattr $C$DW$157, DW_AT_TI_symbol_name("_CPU_disableInts")
     628                      .dwattr $C$DW$157, DW_AT_declaration
     629                      .dwattr $C$DW$157, DW_AT_external
     630              $C$DW$158       .dwtag  DW_TAG_formal_parameter
     631                      .dwattr $C$DW$158, DW_AT_type(*$C$DW$T$49)
     632                      .dwendtag $C$DW$157
     633              
     634              
     635              $C$DW$159       .dwtag  DW_TAG_subprogram, DW_AT_name("PWM_disableCounterLoad")
     636                      .dwattr $C$DW$159, DW_AT_TI_symbol_name("_PWM_disableCounterLoad")
     637                      .dwattr $C$DW$159, DW_AT_declaration
     638                      .dwattr $C$DW$159, DW_AT_external
     639              $C$DW$160       .dwtag  DW_TAG_formal_parameter
     640                      .dwattr $C$DW$160, DW_AT_type(*$C$DW$T$66)
     641                      .dwendtag $C$DW$159
     642              
     643              
     644              $C$DW$161       .dwtag  DW_TAG_subprogram, DW_AT_name("ADC_enableBandGap")
     645                      .dwattr $C$DW$161, DW_AT_TI_symbol_name("_ADC_enableBandGap")
     646                      .dwattr $C$DW$161, DW_AT_declaration
     647                      .dwattr $C$DW$161, DW_AT_external
     648              $C$DW$162       .dwtag  DW_TAG_formal_parameter
     649                      .dwattr $C$DW$162, DW_AT_type(*$C$DW$T$45)
     650                      .dwendtag $C$DW$161
     651              
     652              
     653              $C$DW$163       .dwtag  DW_TAG_subprogram, DW_AT_name("ADC_enable")
     654                      .dwattr $C$DW$163, DW_AT_TI_symbol_name("_ADC_enable")
     655                      .dwattr $C$DW$163, DW_AT_declaration
     656                      .dwattr $C$DW$163, DW_AT_external
     657              $C$DW$164       .dwtag  DW_TAG_formal_parameter
     658                      .dwattr $C$DW$164, DW_AT_type(*$C$DW$T$45)
     659                      .dwendtag $C$DW$163
     660              
TMS320C2000 Assembler PC v6.4.9 Wed Dec 02 17:22:54 2015

Tools Copyright (c) 1996-2015 Texas Instruments Incorporated
C:\Users\ywcheng\AppData\Local\Temp\6082010                          PAGE   13

     661              
     662              $C$DW$165       .dwtag  DW_TAG_subprogram, DW_AT_name("ADC_enableRefBuffers")
     663                      .dwattr $C$DW$165, DW_AT_TI_symbol_name("_ADC_enableRefBuffers")
     664                      .dwattr $C$DW$165, DW_AT_declaration
     665                      .dwattr $C$DW$165, DW_AT_external
     666              $C$DW$166       .dwtag  DW_TAG_formal_parameter
     667                      .dwattr $C$DW$166, DW_AT_type(*$C$DW$T$45)
     668                      .dwendtag $C$DW$165
     669              
     670              
     671              $C$DW$167       .dwtag  DW_TAG_subprogram, DW_AT_name("ADC_enableInt")
     672                      .dwattr $C$DW$167, DW_AT_TI_symbol_name("_ADC_enableInt")
     673                      .dwattr $C$DW$167, DW_AT_declaration
     674                      .dwattr $C$DW$167, DW_AT_external
     675              $C$DW$168       .dwtag  DW_TAG_formal_parameter
     676                      .dwattr $C$DW$168, DW_AT_type(*$C$DW$T$45)
     677              $C$DW$169       .dwtag  DW_TAG_formal_parameter
     678                      .dwattr $C$DW$169, DW_AT_type(*$C$DW$T$118)
     679                      .dwendtag $C$DW$167
     680              
     681              
     682              $C$DW$170       .dwtag  DW_TAG_subprogram, DW_AT_name("ADC_disableInt")
     683                      .dwattr $C$DW$170, DW_AT_TI_symbol_name("_ADC_disableInt")
     684                      .dwattr $C$DW$170, DW_AT_declaration
     685                      .dwattr $C$DW$170, DW_AT_external
     686              $C$DW$171       .dwtag  DW_TAG_formal_parameter
     687                      .dwattr $C$DW$171, DW_AT_type(*$C$DW$T$45)
     688              $C$DW$172       .dwtag  DW_TAG_formal_parameter
     689                      .dwattr $C$DW$172, DW_AT_type(*$C$DW$T$118)
     690                      .dwendtag $C$DW$170
     691              
     692              
     693              $C$DW$173       .dwtag  DW_TAG_subprogram, DW_AT_name("ADC_disable")
     694                      .dwattr $C$DW$173, DW_AT_TI_symbol_name("_ADC_disable")
     695                      .dwattr $C$DW$173, DW_AT_declaration
     696                      .dwattr $C$DW$173, DW_AT_external
     697              $C$DW$174       .dwtag  DW_TAG_formal_parameter
     698                      .dwattr $C$DW$174, DW_AT_type(*$C$DW$T$45)
     699                      .dwendtag $C$DW$173
     700              
     701              
     702              $C$DW$175       .dwtag  DW_TAG_subprogram, DW_AT_name("ADC_setIntPulseGenMode")
     703                      .dwattr $C$DW$175, DW_AT_TI_symbol_name("_ADC_setIntPulseGenMode")
     704                      .dwattr $C$DW$175, DW_AT_declaration
     705                      .dwattr $C$DW$175, DW_AT_external
     706              $C$DW$176       .dwtag  DW_TAG_formal_parameter
     707                      .dwattr $C$DW$176, DW_AT_type(*$C$DW$T$45)
     708              $C$DW$177       .dwtag  DW_TAG_formal_parameter
     709                      .dwattr $C$DW$177, DW_AT_type(*$C$DW$T$130)
     710                      .dwendtag $C$DW$175
     711              
     712              
     713              $C$DW$178       .dwtag  DW_TAG_subprogram, DW_AT_name("ADC_setIntMode")
     714                      .dwattr $C$DW$178, DW_AT_TI_symbol_name("_ADC_setIntMode")
     715                      .dwattr $C$DW$178, DW_AT_declaration
TMS320C2000 Assembler PC v6.4.9 Wed Dec 02 17:22:54 2015

Tools Copyright (c) 1996-2015 Texas Instruments Incorporated
C:\Users\ywcheng\AppData\Local\Temp\6082010                          PAGE   14

     716                      .dwattr $C$DW$178, DW_AT_external
     717              $C$DW$179       .dwtag  DW_TAG_formal_parameter
     718                      .dwattr $C$DW$179, DW_AT_type(*$C$DW$T$45)
     719              $C$DW$180       .dwtag  DW_TAG_formal_parameter
     720                      .dwattr $C$DW$180, DW_AT_type(*$C$DW$T$118)
     721              $C$DW$181       .dwtag  DW_TAG_formal_parameter
     722                      .dwattr $C$DW$181, DW_AT_type(*$C$DW$T$127)
     723                      .dwendtag $C$DW$178
     724              
     725              
     726              $C$DW$182       .dwtag  DW_TAG_subprogram, DW_AT_name("ADC_setSocChanNumber")
     727                      .dwattr $C$DW$182, DW_AT_TI_symbol_name("_ADC_setSocChanNumber")
     728                      .dwattr $C$DW$182, DW_AT_declaration
     729                      .dwattr $C$DW$182, DW_AT_external
     730              $C$DW$183       .dwtag  DW_TAG_formal_parameter
     731                      .dwattr $C$DW$183, DW_AT_type(*$C$DW$T$45)
     732              $C$DW$184       .dwtag  DW_TAG_formal_parameter
     733                      .dwattr $C$DW$184, DW_AT_type(*$C$DW$T$136)
     734              $C$DW$185       .dwtag  DW_TAG_formal_parameter
     735                      .dwattr $C$DW$185, DW_AT_type(*$C$DW$T$139)
     736                      .dwendtag $C$DW$182
     737              
     738              
     739              $C$DW$186       .dwtag  DW_TAG_subprogram, DW_AT_name("ADC_setIntSrc")
     740                      .dwattr $C$DW$186, DW_AT_TI_symbol_name("_ADC_setIntSrc")
     741                      .dwattr $C$DW$186, DW_AT_declaration
     742                      .dwattr $C$DW$186, DW_AT_external
     743              $C$DW$187       .dwtag  DW_TAG_formal_parameter
     744                      .dwattr $C$DW$187, DW_AT_type(*$C$DW$T$45)
     745              $C$DW$188       .dwtag  DW_TAG_formal_parameter
     746                      .dwattr $C$DW$188, DW_AT_type(*$C$DW$T$118)
     747              $C$DW$189       .dwtag  DW_TAG_formal_parameter
     748                      .dwattr $C$DW$189, DW_AT_type(*$C$DW$T$133)
     749                      .dwendtag $C$DW$186
     750              
     751              
     752              $C$DW$190       .dwtag  DW_TAG_subprogram, DW_AT_name("CPU_enableInt")
     753                      .dwattr $C$DW$190, DW_AT_TI_symbol_name("_CPU_enableInt")
     754                      .dwattr $C$DW$190, DW_AT_declaration
     755                      .dwattr $C$DW$190, DW_AT_external
     756              $C$DW$191       .dwtag  DW_TAG_formal_parameter
     757                      .dwattr $C$DW$191, DW_AT_type(*$C$DW$T$49)
     758              $C$DW$192       .dwtag  DW_TAG_formal_parameter
     759                      .dwattr $C$DW$192, DW_AT_type(*$C$DW$T$115)
     760                      .dwendtag $C$DW$190
     761              
     762              
     763              $C$DW$193       .dwtag  DW_TAG_subprogram, DW_AT_name("ADC_powerUp")
     764                      .dwattr $C$DW$193, DW_AT_TI_symbol_name("_ADC_powerUp")
     765                      .dwattr $C$DW$193, DW_AT_declaration
     766                      .dwattr $C$DW$193, DW_AT_external
     767              $C$DW$194       .dwtag  DW_TAG_formal_parameter
     768                      .dwattr $C$DW$194, DW_AT_type(*$C$DW$T$45)
     769                      .dwendtag $C$DW$193
     770              
TMS320C2000 Assembler PC v6.4.9 Wed Dec 02 17:22:54 2015

Tools Copyright (c) 1996-2015 Texas Instruments Incorporated
C:\Users\ywcheng\AppData\Local\Temp\6082010                          PAGE   15

     771              
     772              $C$DW$195       .dwtag  DW_TAG_subprogram, DW_AT_name("ADC_setDivideSelect")
     773                      .dwattr $C$DW$195, DW_AT_TI_symbol_name("_ADC_setDivideSelect")
     774                      .dwattr $C$DW$195, DW_AT_declaration
     775                      .dwattr $C$DW$195, DW_AT_external
     776              $C$DW$196       .dwtag  DW_TAG_formal_parameter
     777                      .dwattr $C$DW$196, DW_AT_type(*$C$DW$T$45)
     778              $C$DW$197       .dwtag  DW_TAG_formal_parameter
     779                      .dwattr $C$DW$197, DW_AT_type(*$C$DW$T$124)
     780                      .dwendtag $C$DW$195
     781              
     782              
     783              $C$DW$198       .dwtag  DW_TAG_subprogram, DW_AT_name("CPU_enableGlobalInts")
     784                      .dwattr $C$DW$198, DW_AT_TI_symbol_name("_CPU_enableGlobalInts")
     785                      .dwattr $C$DW$198, DW_AT_declaration
     786                      .dwattr $C$DW$198, DW_AT_external
     787              $C$DW$199       .dwtag  DW_TAG_formal_parameter
     788                      .dwattr $C$DW$199, DW_AT_type(*$C$DW$T$49)
     789                      .dwendtag $C$DW$198
     790              
     791              
     792              $C$DW$200       .dwtag  DW_TAG_subprogram, DW_AT_name("ADC_setSocSampleDelay")
     793                      .dwattr $C$DW$200, DW_AT_TI_symbol_name("_ADC_setSocSampleDelay")
     794                      .dwattr $C$DW$200, DW_AT_declaration
     795                      .dwattr $C$DW$200, DW_AT_external
     796              $C$DW$201       .dwtag  DW_TAG_formal_parameter
     797                      .dwattr $C$DW$201, DW_AT_type(*$C$DW$T$45)
     798              $C$DW$202       .dwtag  DW_TAG_formal_parameter
     799                      .dwattr $C$DW$202, DW_AT_type(*$C$DW$T$136)
     800              $C$DW$203       .dwtag  DW_TAG_formal_parameter
     801                      .dwattr $C$DW$203, DW_AT_type(*$C$DW$T$142)
     802                      .dwendtag $C$DW$200
     803              
     804              
     805              $C$DW$204       .dwtag  DW_TAG_subprogram, DW_AT_name("PWM_setPhaseDir")
     806                      .dwattr $C$DW$204, DW_AT_TI_symbol_name("_PWM_setPhaseDir")
     807                      .dwattr $C$DW$204, DW_AT_declaration
     808                      .dwattr $C$DW$204, DW_AT_external
     809              $C$DW$205       .dwtag  DW_TAG_formal_parameter
     810                      .dwattr $C$DW$205, DW_AT_type(*$C$DW$T$66)
     811              $C$DW$206       .dwtag  DW_TAG_formal_parameter
     812                      .dwattr $C$DW$206, DW_AT_type(*$C$DW$T$190)
     813                      .dwendtag $C$DW$204
     814              
     815              
     816              $C$DW$207       .dwtag  DW_TAG_subprogram, DW_AT_name("PWM_setPhase")
     817                      .dwattr $C$DW$207, DW_AT_TI_symbol_name("_PWM_setPhase")
     818                      .dwattr $C$DW$207, DW_AT_declaration
     819                      .dwattr $C$DW$207, DW_AT_external
     820              $C$DW$208       .dwtag  DW_TAG_formal_parameter
     821                      .dwattr $C$DW$208, DW_AT_type(*$C$DW$T$66)
     822              $C$DW$209       .dwtag  DW_TAG_formal_parameter
     823                      .dwattr $C$DW$209, DW_AT_type(*$C$DW$T$369)
     824                      .dwendtag $C$DW$207
     825              
TMS320C2000 Assembler PC v6.4.9 Wed Dec 02 17:22:54 2015

Tools Copyright (c) 1996-2015 Texas Instruments Incorporated
C:\Users\ywcheng\AppData\Local\Temp\6082010                          PAGE   16

     826              
     827              $C$DW$210       .dwtag  DW_TAG_subprogram, DW_AT_name("PWM_setSocAPeriod")
     828                      .dwattr $C$DW$210, DW_AT_TI_symbol_name("_PWM_setSocAPeriod")
     829                      .dwattr $C$DW$210, DW_AT_declaration
     830                      .dwattr $C$DW$210, DW_AT_external
     831              $C$DW$211       .dwtag  DW_TAG_formal_parameter
     832                      .dwattr $C$DW$211, DW_AT_type(*$C$DW$T$66)
     833              $C$DW$212       .dwtag  DW_TAG_formal_parameter
     834                      .dwattr $C$DW$212, DW_AT_type(*$C$DW$T$196)
     835                      .dwendtag $C$DW$210
     836              
     837              
     838              $C$DW$213       .dwtag  DW_TAG_subprogram, DW_AT_name("PWM_setRunMode")
     839                      .dwattr $C$DW$213, DW_AT_TI_symbol_name("_PWM_setRunMode")
     840                      .dwattr $C$DW$213, DW_AT_declaration
     841                      .dwattr $C$DW$213, DW_AT_external
     842              $C$DW$214       .dwtag  DW_TAG_formal_parameter
     843                      .dwattr $C$DW$214, DW_AT_type(*$C$DW$T$66)
     844              $C$DW$215       .dwtag  DW_TAG_formal_parameter
     845                      .dwattr $C$DW$215, DW_AT_type(*$C$DW$T$193)
     846                      .dwendtag $C$DW$213
     847              
     848              
     849              $C$DW$216       .dwtag  DW_TAG_subprogram, DW_AT_name("PWM_setSocAPulseSrc")
     850                      .dwattr $C$DW$216, DW_AT_TI_symbol_name("_PWM_setSocAPulseSrc")
     851                      .dwattr $C$DW$216, DW_AT_declaration
     852                      .dwattr $C$DW$216, DW_AT_external
     853              $C$DW$217       .dwtag  DW_TAG_formal_parameter
     854                      .dwattr $C$DW$217, DW_AT_type(*$C$DW$T$66)
     855              $C$DW$218       .dwtag  DW_TAG_formal_parameter
     856                      .dwattr $C$DW$218, DW_AT_type(*$C$DW$T$199)
     857                      .dwendtag $C$DW$216
     858              
     859              
     860              $C$DW$219       .dwtag  DW_TAG_subprogram, DW_AT_name("PWM_setLoadMode_CmpB")
     861                      .dwattr $C$DW$219, DW_AT_TI_symbol_name("_PWM_setLoadMode_CmpB")
     862                      .dwattr $C$DW$219, DW_AT_declaration
     863                      .dwattr $C$DW$219, DW_AT_external
     864              $C$DW$220       .dwtag  DW_TAG_formal_parameter
     865                      .dwattr $C$DW$220, DW_AT_type(*$C$DW$T$66)
     866              $C$DW$221       .dwtag  DW_TAG_formal_parameter
     867                      .dwattr $C$DW$221, DW_AT_type(*$C$DW$T$184)
     868                      .dwendtag $C$DW$219
     869              
     870              
     871              $C$DW$222       .dwtag  DW_TAG_subprogram, DW_AT_name("PWM_setLoadMode_CmpA")
     872                      .dwattr $C$DW$222, DW_AT_TI_symbol_name("_PWM_setLoadMode_CmpA")
     873                      .dwattr $C$DW$222, DW_AT_declaration
     874                      .dwattr $C$DW$222, DW_AT_external
     875              $C$DW$223       .dwtag  DW_TAG_formal_parameter
     876                      .dwattr $C$DW$223, DW_AT_type(*$C$DW$T$66)
     877              $C$DW$224       .dwtag  DW_TAG_formal_parameter
     878                      .dwattr $C$DW$224, DW_AT_type(*$C$DW$T$184)
     879                      .dwendtag $C$DW$222
     880              
TMS320C2000 Assembler PC v6.4.9 Wed Dec 02 17:22:54 2015

Tools Copyright (c) 1996-2015 Texas Instruments Incorporated
C:\Users\ywcheng\AppData\Local\Temp\6082010                          PAGE   17

     881              
     882              $C$DW$225       .dwtag  DW_TAG_subprogram, DW_AT_name("PWM_setPeriodLoad")
     883                      .dwattr $C$DW$225, DW_AT_TI_symbol_name("_PWM_setPeriodLoad")
     884                      .dwattr $C$DW$225, DW_AT_declaration
     885                      .dwattr $C$DW$225, DW_AT_external
     886              $C$DW$226       .dwtag  DW_TAG_formal_parameter
     887                      .dwattr $C$DW$226, DW_AT_type(*$C$DW$T$66)
     888              $C$DW$227       .dwtag  DW_TAG_formal_parameter
     889                      .dwattr $C$DW$227, DW_AT_type(*$C$DW$T$187)
     890                      .dwendtag $C$DW$225
     891              
     892              
     893              $C$DW$228       .dwtag  DW_TAG_subprogram, DW_AT_name("CLK_disableAdcClock")
     894                      .dwattr $C$DW$228, DW_AT_TI_symbol_name("_CLK_disableAdcClock")
     895                      .dwattr $C$DW$228, DW_AT_declaration
     896                      .dwattr $C$DW$228, DW_AT_external
     897              $C$DW$229       .dwtag  DW_TAG_formal_parameter
     898                      .dwattr $C$DW$229, DW_AT_type(*$C$DW$T$47)
     899                      .dwendtag $C$DW$228
     900              
     901              
     902              $C$DW$230       .dwtag  DW_TAG_subprogram, DW_AT_name("PWM_setTripZoneState_TZB")
     903                      .dwattr $C$DW$230, DW_AT_TI_symbol_name("_PWM_setTripZoneState_TZB")
     904                      .dwattr $C$DW$230, DW_AT_declaration
     905                      .dwattr $C$DW$230, DW_AT_external
     906              $C$DW$231       .dwtag  DW_TAG_formal_parameter
     907                      .dwattr $C$DW$231, DW_AT_type(*$C$DW$T$66)
     908              $C$DW$232       .dwtag  DW_TAG_formal_parameter
     909                      .dwattr $C$DW$232, DW_AT_type(*$C$DW$T$208)
     910                      .dwendtag $C$DW$230
     911              
     912              
     913              $C$DW$233       .dwtag  DW_TAG_subprogram, DW_AT_name("CLK_disableCrystalOsc")
     914                      .dwattr $C$DW$233, DW_AT_TI_symbol_name("_CLK_disableCrystalOsc")
     915                      .dwattr $C$DW$233, DW_AT_declaration
     916                      .dwattr $C$DW$233, DW_AT_external
     917              $C$DW$234       .dwtag  DW_TAG_formal_parameter
     918                      .dwattr $C$DW$234, DW_AT_type(*$C$DW$T$47)
     919                      .dwendtag $C$DW$233
     920              
     921              
     922              $C$DW$235       .dwtag  DW_TAG_subprogram, DW_AT_name("CLK_disableClkIn")
     923                      .dwattr $C$DW$235, DW_AT_TI_symbol_name("_CLK_disableClkIn")
     924                      .dwattr $C$DW$235, DW_AT_declaration
     925                      .dwattr $C$DW$235, DW_AT_external
     926              $C$DW$236       .dwtag  DW_TAG_formal_parameter
     927                      .dwattr $C$DW$236, DW_AT_type(*$C$DW$T$47)
     928                      .dwendtag $C$DW$235
     929              
     930              
     931              $C$DW$237       .dwtag  DW_TAG_subprogram, DW_AT_name("PWM_setShadowMode_CmpA")
     932                      .dwattr $C$DW$237, DW_AT_TI_symbol_name("_PWM_setShadowMode_CmpA")
     933                      .dwattr $C$DW$237, DW_AT_declaration
     934                      .dwattr $C$DW$237, DW_AT_external
     935              $C$DW$238       .dwtag  DW_TAG_formal_parameter
TMS320C2000 Assembler PC v6.4.9 Wed Dec 02 17:22:54 2015

Tools Copyright (c) 1996-2015 Texas Instruments Incorporated
C:\Users\ywcheng\AppData\Local\Temp\6082010                          PAGE   18

     936                      .dwattr $C$DW$238, DW_AT_type(*$C$DW$T$66)
     937              $C$DW$239       .dwtag  DW_TAG_formal_parameter
     938                      .dwattr $C$DW$239, DW_AT_type(*$C$DW$T$202)
     939                      .dwendtag $C$DW$237
     940              
     941              
     942              $C$DW$240       .dwtag  DW_TAG_subprogram, DW_AT_name("PWM_setPeriod")
     943                      .dwattr $C$DW$240, DW_AT_TI_symbol_name("_PWM_setPeriod")
     944                      .dwattr $C$DW$240, DW_AT_declaration
     945                      .dwattr $C$DW$240, DW_AT_external
     946              $C$DW$241       .dwtag  DW_TAG_formal_parameter
     947                      .dwattr $C$DW$241, DW_AT_type(*$C$DW$T$66)
     948              $C$DW$242       .dwtag  DW_TAG_formal_parameter
     949                      .dwattr $C$DW$242, DW_AT_type(*$C$DW$T$369)
     950                      .dwendtag $C$DW$240
     951              
     952              
     953              $C$DW$243       .dwtag  DW_TAG_subprogram, DW_AT_name("PWM_setSyncMode")
     954                      .dwattr $C$DW$243, DW_AT_TI_symbol_name("_PWM_setSyncMode")
     955                      .dwattr $C$DW$243, DW_AT_declaration
     956                      .dwattr $C$DW$243, DW_AT_external
     957              $C$DW$244       .dwtag  DW_TAG_formal_parameter
     958                      .dwattr $C$DW$244, DW_AT_type(*$C$DW$T$66)
     959              $C$DW$245       .dwtag  DW_TAG_formal_parameter
     960                      .dwattr $C$DW$245, DW_AT_type(*$C$DW$T$205)
     961                      .dwendtag $C$DW$243
     962              
     963              
     964              $C$DW$246       .dwtag  DW_TAG_subprogram, DW_AT_name("PWM_setShadowMode_CmpB")
     965                      .dwattr $C$DW$246, DW_AT_TI_symbol_name("_PWM_setShadowMode_CmpB")
     966                      .dwattr $C$DW$246, DW_AT_declaration
     967                      .dwattr $C$DW$246, DW_AT_external
     968              $C$DW$247       .dwtag  DW_TAG_formal_parameter
     969                      .dwattr $C$DW$247, DW_AT_type(*$C$DW$T$66)
     970              $C$DW$248       .dwtag  DW_TAG_formal_parameter
     971                      .dwattr $C$DW$248, DW_AT_type(*$C$DW$T$202)
     972                      .dwendtag $C$DW$246
     973              
     974              
     975              $C$DW$249       .dwtag  DW_TAG_subprogram, DW_AT_name("PWM_setActionQual_CntDown_CmpA_PwmA")
     976                      .dwattr $C$DW$249, DW_AT_TI_symbol_name("_PWM_setActionQual_CntDown_CmpA_PwmA")
     977                      .dwattr $C$DW$249, DW_AT_declaration
     978                      .dwattr $C$DW$249, DW_AT_external
     979              $C$DW$250       .dwtag  DW_TAG_formal_parameter
     980                      .dwattr $C$DW$250, DW_AT_type(*$C$DW$T$66)
     981              $C$DW$251       .dwtag  DW_TAG_formal_parameter
     982                      .dwattr $C$DW$251, DW_AT_type(*$C$DW$T$163)
     983                      .dwendtag $C$DW$249
     984              
     985              
     986              $C$DW$252       .dwtag  DW_TAG_subprogram, DW_AT_name("PWM_setClkDiv")
     987                      .dwattr $C$DW$252, DW_AT_TI_symbol_name("_PWM_setClkDiv")
     988                      .dwattr $C$DW$252, DW_AT_declaration
     989                      .dwattr $C$DW$252, DW_AT_external
     990              $C$DW$253       .dwtag  DW_TAG_formal_parameter
TMS320C2000 Assembler PC v6.4.9 Wed Dec 02 17:22:54 2015

Tools Copyright (c) 1996-2015 Texas Instruments Incorporated
C:\Users\ywcheng\AppData\Local\Temp\6082010                          PAGE   19

     991                      .dwattr $C$DW$253, DW_AT_type(*$C$DW$T$66)
     992              $C$DW$254       .dwtag  DW_TAG_formal_parameter
     993                      .dwattr $C$DW$254, DW_AT_type(*$C$DW$T$166)
     994                      .dwendtag $C$DW$252
     995              
     996              
     997              $C$DW$255       .dwtag  DW_TAG_subprogram, DW_AT_name("PWM_setActionQual_CntUp_CmpA_PwmA")
     998                      .dwattr $C$DW$255, DW_AT_TI_symbol_name("_PWM_setActionQual_CntUp_CmpA_PwmA")
     999                      .dwattr $C$DW$255, DW_AT_declaration
    1000                      .dwattr $C$DW$255, DW_AT_external
    1001              $C$DW$256       .dwtag  DW_TAG_formal_parameter
    1002                      .dwattr $C$DW$256, DW_AT_type(*$C$DW$T$66)
    1003              $C$DW$257       .dwtag  DW_TAG_formal_parameter
    1004                      .dwattr $C$DW$257, DW_AT_type(*$C$DW$T$163)
    1005                      .dwendtag $C$DW$255
    1006              
    1007              
    1008              $C$DW$258       .dwtag  DW_TAG_subprogram, DW_AT_name("PWM_setCount")
    1009                      .dwattr $C$DW$258, DW_AT_TI_symbol_name("_PWM_setCount")
    1010                      .dwattr $C$DW$258, DW_AT_declaration
    1011                      .dwattr $C$DW$258, DW_AT_external
    1012              $C$DW$259       .dwtag  DW_TAG_formal_parameter
    1013                      .dwattr $C$DW$259, DW_AT_type(*$C$DW$T$66)
    1014              $C$DW$260       .dwtag  DW_TAG_formal_parameter
    1015                      .dwattr $C$DW$260, DW_AT_type(*$C$DW$T$369)
    1016                      .dwendtag $C$DW$258
    1017              
    1018              
    1019              $C$DW$261       .dwtag  DW_TAG_subprogram, DW_AT_name("PWM_disableTripZones")
    1020                      .dwattr $C$DW$261, DW_AT_TI_symbol_name("_PWM_disableTripZones")
    1021                      .dwattr $C$DW$261, DW_AT_declaration
    1022                      .dwattr $C$DW$261, DW_AT_external
    1023              $C$DW$262       .dwtag  DW_TAG_formal_parameter
    1024                      .dwattr $C$DW$262, DW_AT_type(*$C$DW$T$66)
    1025                      .dwendtag $C$DW$261
    1026              
    1027              
    1028              $C$DW$263       .dwtag  DW_TAG_subprogram, DW_AT_name("PWM_disableInt")
    1029                      .dwattr $C$DW$263, DW_AT_TI_symbol_name("_PWM_disableInt")
    1030                      .dwattr $C$DW$263, DW_AT_declaration
    1031                      .dwattr $C$DW$263, DW_AT_external
    1032              $C$DW$264       .dwtag  DW_TAG_formal_parameter
    1033                      .dwattr $C$DW$264, DW_AT_type(*$C$DW$T$66)
    1034                      .dwendtag $C$DW$263
    1035              
    1036              
    1037              $C$DW$265       .dwtag  DW_TAG_subprogram, DW_AT_name("PWM_enableSocAPulse")
    1038                      .dwattr $C$DW$265, DW_AT_TI_symbol_name("_PWM_enableSocAPulse")
    1039                      .dwattr $C$DW$265, DW_AT_declaration
    1040                      .dwattr $C$DW$265, DW_AT_external
    1041              $C$DW$266       .dwtag  DW_TAG_formal_parameter
    1042                      .dwattr $C$DW$266, DW_AT_type(*$C$DW$T$66)
    1043                      .dwendtag $C$DW$265
    1044              
    1045              
TMS320C2000 Assembler PC v6.4.9 Wed Dec 02 17:22:54 2015

Tools Copyright (c) 1996-2015 Texas Instruments Incorporated
C:\Users\ywcheng\AppData\Local\Temp\6082010                          PAGE   20

    1046              $C$DW$267       .dwtag  DW_TAG_subprogram, DW_AT_name("PWM_enableInt")
    1047                      .dwattr $C$DW$267, DW_AT_TI_symbol_name("_PWM_enableInt")
    1048                      .dwattr $C$DW$267, DW_AT_declaration
    1049                      .dwattr $C$DW$267, DW_AT_external
    1050              $C$DW$268       .dwtag  DW_TAG_formal_parameter
    1051                      .dwattr $C$DW$268, DW_AT_type(*$C$DW$T$66)
    1052                      .dwendtag $C$DW$267
    1053              
    1054              
    1055              $C$DW$269       .dwtag  DW_TAG_subprogram, DW_AT_name("PWM_setDeadBandPolarity")
    1056                      .dwattr $C$DW$269, DW_AT_TI_symbol_name("_PWM_setDeadBandPolarity")
    1057                      .dwattr $C$DW$269, DW_AT_declaration
    1058                      .dwattr $C$DW$269, DW_AT_external
    1059              $C$DW$270       .dwtag  DW_TAG_formal_parameter
    1060                      .dwattr $C$DW$270, DW_AT_type(*$C$DW$T$66)
    1061              $C$DW$271       .dwtag  DW_TAG_formal_parameter
    1062                      .dwattr $C$DW$271, DW_AT_type(*$C$DW$T$175)
    1063                      .dwendtag $C$DW$269
    1064              
    1065              
    1066              $C$DW$272       .dwtag  DW_TAG_subprogram, DW_AT_name("PWM_setDeadBandOutputMode")
    1067                      .dwattr $C$DW$272, DW_AT_TI_symbol_name("_PWM_setDeadBandOutputMode")
    1068                      .dwattr $C$DW$272, DW_AT_declaration
    1069                      .dwattr $C$DW$272, DW_AT_external
    1070              $C$DW$273       .dwtag  DW_TAG_formal_parameter
    1071                      .dwattr $C$DW$273, DW_AT_type(*$C$DW$T$66)
    1072              $C$DW$274       .dwtag  DW_TAG_formal_parameter
    1073                      .dwattr $C$DW$274, DW_AT_type(*$C$DW$T$172)
    1074                      .dwendtag $C$DW$272
    1075              
    1076              
    1077              $C$DW$275       .dwtag  DW_TAG_subprogram, DW_AT_name("PWM_setDeadBandRisingEdgeDelay")
    1078                      .dwattr $C$DW$275, DW_AT_TI_symbol_name("_PWM_setDeadBandRisingEdgeDelay")
    1079                      .dwattr $C$DW$275, DW_AT_declaration
    1080                      .dwattr $C$DW$275, DW_AT_external
    1081              $C$DW$276       .dwtag  DW_TAG_formal_parameter
    1082                      .dwattr $C$DW$276, DW_AT_type(*$C$DW$T$66)
    1083              $C$DW$277       .dwtag  DW_TAG_formal_parameter
    1084                      .dwattr $C$DW$277, DW_AT_type(*$C$DW$T$369)
    1085                      .dwendtag $C$DW$275
    1086              
    1087              
    1088              $C$DW$278       .dwtag  DW_TAG_subprogram, DW_AT_name("PWM_setIntPeriod")
    1089                      .dwattr $C$DW$278, DW_AT_TI_symbol_name("_PWM_setIntPeriod")
    1090                      .dwattr $C$DW$278, DW_AT_declaration
    1091                      .dwattr $C$DW$278, DW_AT_external
    1092              $C$DW$279       .dwtag  DW_TAG_formal_parameter
    1093                      .dwattr $C$DW$279, DW_AT_type(*$C$DW$T$66)
    1094              $C$DW$280       .dwtag  DW_TAG_formal_parameter
    1095                      .dwattr $C$DW$280, DW_AT_type(*$C$DW$T$181)
    1096                      .dwendtag $C$DW$278
    1097              
    1098              
    1099              $C$DW$281       .dwtag  DW_TAG_subprogram, DW_AT_name("PWM_setCounterMode")
    1100                      .dwattr $C$DW$281, DW_AT_TI_symbol_name("_PWM_setCounterMode")
TMS320C2000 Assembler PC v6.4.9 Wed Dec 02 17:22:54 2015

Tools Copyright (c) 1996-2015 Texas Instruments Incorporated
C:\Users\ywcheng\AppData\Local\Temp\6082010                          PAGE   21

    1101                      .dwattr $C$DW$281, DW_AT_declaration
    1102                      .dwattr $C$DW$281, DW_AT_external
    1103              $C$DW$282       .dwtag  DW_TAG_formal_parameter
    1104                      .dwattr $C$DW$282, DW_AT_type(*$C$DW$T$66)
    1105              $C$DW$283       .dwtag  DW_TAG_formal_parameter
    1106                      .dwattr $C$DW$283, DW_AT_type(*$C$DW$T$169)
    1107                      .dwendtag $C$DW$281
    1108              
    1109              
    1110              $C$DW$284       .dwtag  DW_TAG_subprogram, DW_AT_name("PWM_enableTripZoneSrc")
    1111                      .dwattr $C$DW$284, DW_AT_TI_symbol_name("_PWM_enableTripZoneSrc")
    1112                      .dwattr $C$DW$284, DW_AT_declaration
    1113                      .dwattr $C$DW$284, DW_AT_external
    1114              $C$DW$285       .dwtag  DW_TAG_formal_parameter
    1115                      .dwattr $C$DW$285, DW_AT_type(*$C$DW$T$66)
    1116              $C$DW$286       .dwtag  DW_TAG_formal_parameter
    1117                      .dwattr $C$DW$286, DW_AT_type(*$C$DW$T$160)
    1118                      .dwendtag $C$DW$284
    1119              
    1120              
    1121              $C$DW$287       .dwtag  DW_TAG_subprogram, DW_AT_name("PWM_setDeadBandFallingEdgeDelay")
    1122                      .dwattr $C$DW$287, DW_AT_TI_symbol_name("_PWM_setDeadBandFallingEdgeDelay")
    1123                      .dwattr $C$DW$287, DW_AT_declaration
    1124                      .dwattr $C$DW$287, DW_AT_external
    1125              $C$DW$288       .dwtag  DW_TAG_formal_parameter
    1126                      .dwattr $C$DW$288, DW_AT_type(*$C$DW$T$66)
    1127              $C$DW$289       .dwtag  DW_TAG_formal_parameter
    1128                      .dwattr $C$DW$289, DW_AT_type(*$C$DW$T$369)
    1129                      .dwendtag $C$DW$287
    1130              
    1131              
    1132              $C$DW$290       .dwtag  DW_TAG_subprogram, DW_AT_name("PWM_setTripZoneState_TZA")
    1133                      .dwattr $C$DW$290, DW_AT_TI_symbol_name("_PWM_setTripZoneState_TZA")
    1134                      .dwattr $C$DW$290, DW_AT_declaration
    1135                      .dwattr $C$DW$290, DW_AT_external
    1136              $C$DW$291       .dwtag  DW_TAG_formal_parameter
    1137                      .dwattr $C$DW$291, DW_AT_type(*$C$DW$T$66)
    1138              $C$DW$292       .dwtag  DW_TAG_formal_parameter
    1139                      .dwattr $C$DW$292, DW_AT_type(*$C$DW$T$208)
    1140                      .dwendtag $C$DW$290
    1141              
    1142              
    1143              $C$DW$293       .dwtag  DW_TAG_subprogram, DW_AT_name("PWM_setHighSpeedClkDiv")
    1144                      .dwattr $C$DW$293, DW_AT_TI_symbol_name("_PWM_setHighSpeedClkDiv")
    1145                      .dwattr $C$DW$293, DW_AT_declaration
    1146                      .dwattr $C$DW$293, DW_AT_external
    1147              $C$DW$294       .dwtag  DW_TAG_formal_parameter
    1148                      .dwattr $C$DW$294, DW_AT_type(*$C$DW$T$66)
    1149              $C$DW$295       .dwtag  DW_TAG_formal_parameter
    1150                      .dwattr $C$DW$295, DW_AT_type(*$C$DW$T$178)
    1151                      .dwendtag $C$DW$293
    1152              
    1153              $C$DW$296       .dwtag  DW_TAG_variable, DW_AT_name("cpu")
    1154                      .dwattr $C$DW$296, DW_AT_TI_symbol_name("_cpu")
    1155                      .dwattr $C$DW$296, DW_AT_type(*$C$DW$T$282)
TMS320C2000 Assembler PC v6.4.9 Wed Dec 02 17:22:54 2015

Tools Copyright (c) 1996-2015 Texas Instruments Incorporated
C:\Users\ywcheng\AppData\Local\Temp\6082010                          PAGE   22

    1156                      .dwattr $C$DW$296, DW_AT_declaration
    1157                      .dwattr $C$DW$296, DW_AT_external
    1158              
    1159              $C$DW$297       .dwtag  DW_TAG_subprogram, DW_AT_name("PLL_getLockStatus")
    1160                      .dwattr $C$DW$297, DW_AT_TI_symbol_name("_PLL_getLockStatus")
    1161                      .dwattr $C$DW$297, DW_AT_type(*$C$DW$T$263)
    1162                      .dwattr $C$DW$297, DW_AT_declaration
    1163                      .dwattr $C$DW$297, DW_AT_external
    1164              $C$DW$298       .dwtag  DW_TAG_formal_parameter
    1165                      .dwattr $C$DW$298, DW_AT_type(*$C$DW$T$64)
    1166                      .dwendtag $C$DW$297
    1167              
    1168              
    1169              $C$DW$299       .dwtag  DW_TAG_subprogram, DW_AT_name("PLL_getClkFreq")
    1170                      .dwattr $C$DW$299, DW_AT_TI_symbol_name("_PLL_getClkFreq")
    1171                      .dwattr $C$DW$299, DW_AT_type(*$C$DW$T$246)
    1172                      .dwattr $C$DW$299, DW_AT_declaration
    1173                      .dwattr $C$DW$299, DW_AT_external
    1174              $C$DW$300       .dwtag  DW_TAG_formal_parameter
    1175                      .dwattr $C$DW$300, DW_AT_type(*$C$DW$T$64)
    1176                      .dwendtag $C$DW$299
    1177              
    1178              
    1179              $C$DW$301       .dwtag  DW_TAG_subprogram, DW_AT_name("PLL_getClkStatus")
    1180                      .dwattr $C$DW$301, DW_AT_TI_symbol_name("_PLL_getClkStatus")
    1181                      .dwattr $C$DW$301, DW_AT_type(*$C$DW$T$252)
    1182                      .dwattr $C$DW$301, DW_AT_declaration
    1183                      .dwattr $C$DW$301, DW_AT_external
    1184              $C$DW$302       .dwtag  DW_TAG_formal_parameter
    1185                      .dwattr $C$DW$302, DW_AT_type(*$C$DW$T$64)
    1186                      .dwendtag $C$DW$301
    1187              
    1188              
    1189              $C$DW$303       .dwtag  DW_TAG_subprogram, DW_AT_name("PLL_getDivideSelect")
    1190                      .dwattr $C$DW$303, DW_AT_TI_symbol_name("_PLL_getDivideSelect")
    1191                      .dwattr $C$DW$303, DW_AT_type(*$C$DW$T$257)
    1192                      .dwattr $C$DW$303, DW_AT_declaration
    1193                      .dwattr $C$DW$303, DW_AT_external
    1194              $C$DW$304       .dwtag  DW_TAG_formal_parameter
    1195                      .dwattr $C$DW$304, DW_AT_type(*$C$DW$T$64)
    1196                      .dwendtag $C$DW$303
    1197              
    1198              
    1199              $C$DW$305       .dwtag  DW_TAG_subprogram, DW_AT_name("CLK_init")
    1200                      .dwattr $C$DW$305, DW_AT_TI_symbol_name("_CLK_init")
    1201                      .dwattr $C$DW$305, DW_AT_type(*$C$DW$T$47)
    1202                      .dwattr $C$DW$305, DW_AT_declaration
    1203                      .dwattr $C$DW$305, DW_AT_external
    1204              $C$DW$306       .dwtag  DW_TAG_formal_parameter
    1205                      .dwattr $C$DW$306, DW_AT_type(*$C$DW$T$3)
    1206              $C$DW$307       .dwtag  DW_TAG_formal_parameter
    1207                      .dwattr $C$DW$307, DW_AT_type(*$C$DW$T$275)
    1208                      .dwendtag $C$DW$305
    1209              
    1210              
TMS320C2000 Assembler PC v6.4.9 Wed Dec 02 17:22:54 2015

Tools Copyright (c) 1996-2015 Texas Instruments Incorporated
C:\Users\ywcheng\AppData\Local\Temp\6082010                          PAGE   23

    1211              $C$DW$308       .dwtag  DW_TAG_subprogram, DW_AT_name("PWM_init")
    1212                      .dwattr $C$DW$308, DW_AT_TI_symbol_name("_PWM_init")
    1213                      .dwattr $C$DW$308, DW_AT_type(*$C$DW$T$66)
    1214                      .dwattr $C$DW$308, DW_AT_declaration
    1215                      .dwattr $C$DW$308, DW_AT_external
    1216              $C$DW$309       .dwtag  DW_TAG_formal_parameter
    1217                      .dwattr $C$DW$309, DW_AT_type(*$C$DW$T$3)
    1218              $C$DW$310       .dwtag  DW_TAG_formal_parameter
    1219                      .dwattr $C$DW$310, DW_AT_type(*$C$DW$T$275)
    1220                      .dwendtag $C$DW$308
    1221              
    1222              
    1223              $C$DW$311       .dwtag  DW_TAG_subprogram, DW_AT_name("GPIO_init")
    1224                      .dwattr $C$DW$311, DW_AT_TI_symbol_name("_GPIO_init")
    1225                      .dwattr $C$DW$311, DW_AT_type(*$C$DW$T$53)
    1226                      .dwattr $C$DW$311, DW_AT_declaration
    1227                      .dwattr $C$DW$311, DW_AT_external
    1228              $C$DW$312       .dwtag  DW_TAG_formal_parameter
    1229                      .dwattr $C$DW$312, DW_AT_type(*$C$DW$T$3)
    1230              $C$DW$313       .dwtag  DW_TAG_formal_parameter
    1231                      .dwattr $C$DW$313, DW_AT_type(*$C$DW$T$275)
    1232                      .dwendtag $C$DW$311
    1233              
    1234              
    1235              $C$DW$314       .dwtag  DW_TAG_subprogram, DW_AT_name("CPU_init")
    1236                      .dwattr $C$DW$314, DW_AT_TI_symbol_name("_CPU_init")
    1237                      .dwattr $C$DW$314, DW_AT_type(*$C$DW$T$49)
    1238                      .dwattr $C$DW$314, DW_AT_declaration
    1239                      .dwattr $C$DW$314, DW_AT_external
    1240              $C$DW$315       .dwtag  DW_TAG_formal_parameter
    1241                      .dwattr $C$DW$315, DW_AT_type(*$C$DW$T$3)
    1242              $C$DW$316       .dwtag  DW_TAG_formal_parameter
    1243                      .dwattr $C$DW$316, DW_AT_type(*$C$DW$T$275)
    1244                      .dwendtag $C$DW$314
    1245              
    1246              
    1247              $C$DW$317       .dwtag  DW_TAG_subprogram, DW_AT_name("__IQmpy")
    1248                      .dwattr $C$DW$317, DW_AT_TI_symbol_name("___IQmpy")
    1249                      .dwattr $C$DW$317, DW_AT_type(*$C$DW$T$12)
    1250                      .dwattr $C$DW$317, DW_AT_declaration
    1251                      .dwattr $C$DW$317, DW_AT_external
    1252              $C$DW$318       .dwtag  DW_TAG_formal_parameter
    1253                      .dwattr $C$DW$318, DW_AT_type(*$C$DW$T$12)
    1254              $C$DW$319       .dwtag  DW_TAG_formal_parameter
    1255                      .dwattr $C$DW$319, DW_AT_type(*$C$DW$T$12)
    1256              $C$DW$320       .dwtag  DW_TAG_formal_parameter
    1257                      .dwattr $C$DW$320, DW_AT_type(*$C$DW$T$10)
    1258                      .dwendtag $C$DW$317
    1259              
    1260              
    1261              $C$DW$321       .dwtag  DW_TAG_subprogram, DW_AT_name("FLASH_init")
    1262                      .dwattr $C$DW$321, DW_AT_TI_symbol_name("_FLASH_init")
    1263                      .dwattr $C$DW$321, DW_AT_type(*$C$DW$T$51)
    1264                      .dwattr $C$DW$321, DW_AT_declaration
    1265                      .dwattr $C$DW$321, DW_AT_external
TMS320C2000 Assembler PC v6.4.9 Wed Dec 02 17:22:54 2015

Tools Copyright (c) 1996-2015 Texas Instruments Incorporated
C:\Users\ywcheng\AppData\Local\Temp\6082010                          PAGE   24

    1266              $C$DW$322       .dwtag  DW_TAG_formal_parameter
    1267                      .dwattr $C$DW$322, DW_AT_type(*$C$DW$T$3)
    1268              $C$DW$323       .dwtag  DW_TAG_formal_parameter
    1269                      .dwattr $C$DW$323, DW_AT_type(*$C$DW$T$275)
    1270                      .dwendtag $C$DW$321
    1271              
    1272              
    1273              $C$DW$324       .dwtag  DW_TAG_subprogram, DW_AT_name("ADC_init")
    1274                      .dwattr $C$DW$324, DW_AT_TI_symbol_name("_ADC_init")
    1275                      .dwattr $C$DW$324, DW_AT_type(*$C$DW$T$45)
    1276                      .dwattr $C$DW$324, DW_AT_declaration
    1277                      .dwattr $C$DW$324, DW_AT_external
    1278              $C$DW$325       .dwtag  DW_TAG_formal_parameter
    1279                      .dwattr $C$DW$325, DW_AT_type(*$C$DW$T$3)
    1280              $C$DW$326       .dwtag  DW_TAG_formal_parameter
    1281                      .dwattr $C$DW$326, DW_AT_type(*$C$DW$T$275)
    1282                      .dwendtag $C$DW$324
    1283              
    1284              
    1285              $C$DW$327       .dwtag  DW_TAG_subprogram, DW_AT_name("TIMER_init")
    1286                      .dwattr $C$DW$327, DW_AT_TI_symbol_name("_TIMER_init")
    1287                      .dwattr $C$DW$327, DW_AT_type(*$C$DW$T$71)
    1288                      .dwattr $C$DW$327, DW_AT_declaration
    1289                      .dwattr $C$DW$327, DW_AT_external
    1290              $C$DW$328       .dwtag  DW_TAG_formal_parameter
    1291                      .dwattr $C$DW$328, DW_AT_type(*$C$DW$T$3)
    1292              $C$DW$329       .dwtag  DW_TAG_formal_parameter
    1293                      .dwattr $C$DW$329, DW_AT_type(*$C$DW$T$275)
    1294                      .dwendtag $C$DW$327
    1295              
    1296              
    1297              $C$DW$330       .dwtag  DW_TAG_subprogram, DW_AT_name("PWR_init")
    1298                      .dwattr $C$DW$330, DW_AT_TI_symbol_name("_PWR_init")
    1299                      .dwattr $C$DW$330, DW_AT_type(*$C$DW$T$69)
    1300                      .dwattr $C$DW$330, DW_AT_declaration
    1301                      .dwattr $C$DW$330, DW_AT_external
    1302              $C$DW$331       .dwtag  DW_TAG_formal_parameter
    1303                      .dwattr $C$DW$331, DW_AT_type(*$C$DW$T$3)
    1304              $C$DW$332       .dwtag  DW_TAG_formal_parameter
    1305                      .dwattr $C$DW$332, DW_AT_type(*$C$DW$T$275)
    1306                      .dwendtag $C$DW$330
    1307              
    1308              
    1309              $C$DW$333       .dwtag  DW_TAG_subprogram, DW_AT_name("OFFSET_init")
    1310                      .dwattr $C$DW$333, DW_AT_TI_symbol_name("_OFFSET_init")
    1311                      .dwattr $C$DW$333, DW_AT_type(*$C$DW$T$55)
    1312                      .dwattr $C$DW$333, DW_AT_declaration
    1313                      .dwattr $C$DW$333, DW_AT_external
    1314              $C$DW$334       .dwtag  DW_TAG_formal_parameter
    1315                      .dwattr $C$DW$334, DW_AT_type(*$C$DW$T$3)
    1316              $C$DW$335       .dwtag  DW_TAG_formal_parameter
    1317                      .dwattr $C$DW$335, DW_AT_type(*$C$DW$T$275)
    1318                      .dwendtag $C$DW$333
    1319              
    1320              
TMS320C2000 Assembler PC v6.4.9 Wed Dec 02 17:22:54 2015

Tools Copyright (c) 1996-2015 Texas Instruments Incorporated
C:\Users\ywcheng\AppData\Local\Temp\6082010                          PAGE   25

    1321              $C$DW$336       .dwtag  DW_TAG_subprogram, DW_AT_name("PIE_init")
    1322                      .dwattr $C$DW$336, DW_AT_TI_symbol_name("_PIE_init")
    1323                      .dwattr $C$DW$336, DW_AT_type(*$C$DW$T$62)
    1324                      .dwattr $C$DW$336, DW_AT_declaration
    1325                      .dwattr $C$DW$336, DW_AT_external
    1326              $C$DW$337       .dwtag  DW_TAG_formal_parameter
    1327                      .dwattr $C$DW$337, DW_AT_type(*$C$DW$T$3)
    1328              $C$DW$338       .dwtag  DW_TAG_formal_parameter
    1329                      .dwattr $C$DW$338, DW_AT_type(*$C$DW$T$275)
    1330                      .dwendtag $C$DW$336
    1331              
    1332              
    1333              $C$DW$339       .dwtag  DW_TAG_subprogram, DW_AT_name("OSC_init")
    1334                      .dwattr $C$DW$339, DW_AT_TI_symbol_name("_OSC_init")
    1335                      .dwattr $C$DW$339, DW_AT_type(*$C$DW$T$60)
    1336                      .dwattr $C$DW$339, DW_AT_declaration
    1337                      .dwattr $C$DW$339, DW_AT_external
    1338              $C$DW$340       .dwtag  DW_TAG_formal_parameter
    1339                      .dwattr $C$DW$340, DW_AT_type(*$C$DW$T$3)
    1340              $C$DW$341       .dwtag  DW_TAG_formal_parameter
    1341                      .dwattr $C$DW$341, DW_AT_type(*$C$DW$T$275)
    1342                      .dwendtag $C$DW$339
    1343              
    1344              
    1345              $C$DW$342       .dwtag  DW_TAG_subprogram, DW_AT_name("WDOG_init")
    1346                      .dwattr $C$DW$342, DW_AT_TI_symbol_name("_WDOG_init")
    1347                      .dwattr $C$DW$342, DW_AT_type(*$C$DW$T$74)
    1348                      .dwattr $C$DW$342, DW_AT_declaration
    1349                      .dwattr $C$DW$342, DW_AT_external
    1350              $C$DW$343       .dwtag  DW_TAG_formal_parameter
    1351                      .dwattr $C$DW$343, DW_AT_type(*$C$DW$T$3)
    1352              $C$DW$344       .dwtag  DW_TAG_formal_parameter
    1353                      .dwattr $C$DW$344, DW_AT_type(*$C$DW$T$275)
    1354                      .dwendtag $C$DW$342
    1355              
    1356              
    1357              $C$DW$345       .dwtag  DW_TAG_subprogram, DW_AT_name("PLL_init")
    1358                      .dwattr $C$DW$345, DW_AT_TI_symbol_name("_PLL_init")
    1359                      .dwattr $C$DW$345, DW_AT_type(*$C$DW$T$64)
    1360                      .dwattr $C$DW$345, DW_AT_declaration
    1361                      .dwattr $C$DW$345, DW_AT_external
    1362              $C$DW$346       .dwtag  DW_TAG_formal_parameter
    1363                      .dwattr $C$DW$346, DW_AT_type(*$C$DW$T$3)
    1364              $C$DW$347       .dwtag  DW_TAG_formal_parameter
    1365                      .dwattr $C$DW$347, DW_AT_type(*$C$DW$T$275)
    1366                      .dwendtag $C$DW$345
    1367              
    1368                      .global _hal
    1369 00000000       _hal:   .usect  "rom_accessed_data",166,1,1
    1370              $C$DW$348       .dwtag  DW_TAG_variable, DW_AT_name("hal")
    1371                      .dwattr $C$DW$348, DW_AT_TI_symbol_name("_hal")
    1372                      .dwattr $C$DW$348, DW_AT_location[DW_OP_addr _hal]
    1373                      .dwattr $C$DW$348, DW_AT_type(*$C$DW$T$292)
    1374                      .dwattr $C$DW$348, DW_AT_external
    1375              ;       C:\ti\ccsv6\tools\compiler\ti-cgt-c2000_6.4.9\bin\opt2000.exe C:\\Users\\ywcheng\\AppData\\Local\\Tem
TMS320C2000 Assembler PC v6.4.9 Wed Dec 02 17:22:54 2015

Tools Copyright (c) 1996-2015 Texas Instruments Incorporated
C:\Users\ywcheng\AppData\Local\Temp\6082010                          PAGE   26

    1376              ;       C:\ti\ccsv6\tools\compiler\ti-cgt-c2000_6.4.9\bin\ac2000.exe -@C:\\Users\\ywcheng\\AppData\\Local\\Te
    1377 00000000               .sect   ".text"
    1378                      .clink
    1379                      .global _HAL_setupTimers
    1380              
    1381              $C$DW$349       .dwtag  DW_TAG_subprogram, DW_AT_name("HAL_setupTimers")
    1382                      .dwattr $C$DW$349, DW_AT_low_pc(_HAL_setupTimers)
    1383                      .dwattr $C$DW$349, DW_AT_high_pc(0x00)
    1384                      .dwattr $C$DW$349, DW_AT_TI_symbol_name("_HAL_setupTimers")
    1385                      .dwattr $C$DW$349, DW_AT_external
    1386                      .dwattr $C$DW$349, DW_AT_TI_begin_file("C:/ti/motorware/motorware_1_01_00_15/sw/modules/hal/boards/hv
    1387                      .dwattr $C$DW$349, DW_AT_TI_begin_line(0x4b0)
    1388                      .dwattr $C$DW$349, DW_AT_TI_begin_column(0x06)
    1389                      .dwattr $C$DW$349, DW_AT_TI_max_frame_size(-8)
    1390                      .dwpsn  file "C:/ti/motorware/motorware_1_01_00_15/sw/modules/hal/boards/hvkit_rev1p1/f28x/f2802x/src
    1391              
    1392                      .dwfde $C$DW$CIE, _HAL_setupTimers
    1393              $C$DW$350       .dwtag  DW_TAG_formal_parameter, DW_AT_name("handle")
    1394                      .dwattr $C$DW$350, DW_AT_TI_symbol_name("_handle")
    1395                      .dwattr $C$DW$350, DW_AT_type(*$C$DW$T$295)
    1396                      .dwattr $C$DW$350, DW_AT_location[DW_OP_reg12]
    1397              $C$DW$351       .dwtag  DW_TAG_formal_parameter, DW_AT_name("systemFreq_MHz")
    1398                      .dwattr $C$DW$351, DW_AT_TI_symbol_name("_systemFreq_MHz")
    1399                      .dwattr $C$DW$351, DW_AT_type(*$C$DW$T$486)
    1400                      .dwattr $C$DW$351, DW_AT_location[DW_OP_reg0]
    1401              
    1402              ;***************************************************************
    1403              ;* FNAME: _HAL_setupTimers              FR SIZE:   6           *
    1404              ;*                                                             *
    1405              ;* FUNCTION ENVIRONMENT                                        *
    1406              ;*                                                             *
    1407              ;* FUNCTION PROPERTIES                                         *
    1408              ;*                            2 Parameter,  0 Auto,  4 SOE     *
    1409              ;***************************************************************
    1410              
    1411              _HAL_setupTimers:
    1412              ;* AR2   assigned to $O$C1
    1413              ;* AR1   assigned to _handle
    1414              $C$DW$352       .dwtag  DW_TAG_variable, DW_AT_name("handle")
    1415                      .dwattr $C$DW$352, DW_AT_TI_symbol_name("_handle")
    1416                      .dwattr $C$DW$352, DW_AT_type(*$C$DW$T$296)
    1417                      .dwattr $C$DW$352, DW_AT_location[DW_OP_reg6]
    1418              ;* AR2   assigned to _systemFreq_MHz
    1419              $C$DW$353       .dwtag  DW_TAG_variable, DW_AT_name("systemFreq_MHz")
    1420                      .dwattr $C$DW$353, DW_AT_TI_symbol_name("_systemFreq_MHz")
    1421                      .dwattr $C$DW$353, DW_AT_type(*$C$DW$T$486)
    1422                      .dwattr $C$DW$353, DW_AT_location[DW_OP_reg8]
    1423                      .dwcfi  cfa_offset, -2
    1424                      .dwcfi  save_reg_to_mem, 26, 0
    1425 00000000 B2BD          MOVL      *SP++,XAR1            ; [CPU_] 
    1426                      .dwcfi  save_reg_to_mem, 7, 2
    1427                      .dwcfi  cfa_offset, -4
    1428 00000001 AABD          MOVL      *SP++,XAR2            ; [CPU_] 
    1429                      .dwcfi  save_reg_to_mem, 9, 4
    1430                      .dwcfi  cfa_offset, -6
TMS320C2000 Assembler PC v6.4.9 Wed Dec 02 17:22:54 2015

Tools Copyright (c) 1996-2015 Texas Instruments Incorporated
C:\Users\ywcheng\AppData\Local\Temp\6082010                          PAGE   27

    1431 00000002 FE02          ADDB      SP,#2                 ; [CPU_U] 
    1432                      .dwcfi  cfa_offset, -8
    1433 00000003 8BA4          MOVL      XAR1,XAR4             ; [CPU_] |1201| 
    1434                      .dwpsn  file "C:/ti/motorware/motorware_1_01_00_15/sw/modules/hal/boards/hvkit_rev1p1/f28x/f2802x/src
    1435 00000004 D08A          MOVB      XAR0,#138             ; [CPU_] |1206| 
    1436                      .dwpsn  file "C:/ti/motorware/motorware_1_01_00_15/sw/modules/hal/boards/hvkit_rev1p1/f28x/f2802x/src
    1437 00000005 86A9          MOVL      XAR2,ACC              ; [CPU_] |1201| 
    1438                      .dwpsn  file "C:/ti/motorware/motorware_1_01_00_15/sw/modules/hal/boards/hvkit_rev1p1/f28x/f2802x/src
    1439 00000006 9A00          MOVB      AL,#0                 ; [CPU_] |1206| 
    1440 00000007 8A91          MOVL      XAR4,*+XAR1[AR0]      ; [CPU_] |1206| 
    1441              $C$DW$354       .dwtag  DW_TAG_TI_branch
    1442                      .dwattr $C$DW$354, DW_AT_low_pc(0x00)
    1443                      .dwattr $C$DW$354, DW_AT_name("_TIMER_setDecimationFactor")
    1444                      .dwattr $C$DW$354, DW_AT_TI_call
    1445 00000008 7640!         LCR       #_TIMER_setDecimationFactor ; [CPU_] |1206| 
         00000009 0000 
    1446                      ; call occurs [#_TIMER_setDecimationFactor] ; [] |1206| 
    1447                      .dwpsn  file "C:/ti/motorware/motorware_1_01_00_15/sw/modules/hal/boards/hvkit_rev1p1/f28x/f2802x/src
    1448 0000000a D08A          MOVB      XAR0,#138             ; [CPU_] |1207| 
    1449 0000000b 28A9          MOV       AL,#2048              ; [CPU_] |1207| 
         0000000c 0800 
    1450 0000000d 8A91          MOVL      XAR4,*+XAR1[AR0]      ; [CPU_] |1207| 
    1451              $C$DW$355       .dwtag  DW_TAG_TI_branch
    1452                      .dwattr $C$DW$355, DW_AT_low_pc(0x00)
    1453                      .dwattr $C$DW$355, DW_AT_name("_TIMER_setEmulationMode")
    1454                      .dwattr $C$DW$355, DW_AT_TI_call
    1455 0000000e 7640!         LCR       #_TIMER_setEmulationMode ; [CPU_] |1207| 
         0000000f 0000 
    1456                      ; call occurs [#_TIMER_setEmulationMode] ; [] |1207| 
    1457                      .dwpsn  file "C:/ti/motorware/motorware_1_01_00_15/sw/drivers/timer/src/32b/f28x/f2802x/timer.h",line
    1458 00000010 28A9          MOV       AL,#9216              ; [CPU_] |241| 
         00000011 2400 
    1459 00000012 28A8          MOV       AH,#18804             ; [CPU_] |241| 
         00000013 4974 
    1460 00000014 1E42          MOVL      *-SP[2],ACC           ; [CPU_] |241| 
    1461 00000015 AAA9          MOVL      ACC,XAR2              ; [CPU_] |241| 
    1462              $C$DW$356       .dwtag  DW_TAG_TI_branch
    1463                      .dwattr $C$DW$356, DW_AT_low_pc(0x00)
    1464                      .dwattr $C$DW$356, DW_AT_name("FS$$MPY")
    1465                      .dwattr $C$DW$356, DW_AT_TI_call
    1466 00000016 7640!         LCR       #FS$$MPY              ; [CPU_] |241| 
         00000017 0000 
    1467                      ; call occurs [#FS$$MPY] ; [] |241| 
    1468              $C$DW$357       .dwtag  DW_TAG_TI_branch
    1469                      .dwattr $C$DW$357, DW_AT_low_pc(0x00)
    1470                      .dwattr $C$DW$357, DW_AT_name("FS$$TOUL")
    1471                      .dwattr $C$DW$357, DW_AT_TI_call
    1472 00000018 7640!         LCR       #FS$$TOUL             ; [CPU_] |241| 
         00000019 0000 
    1473                      ; call occurs [#FS$$TOUL] ; [] |241| 
    1474 0000001a D08A          MOVB      XAR0,#138             ; [CPU_] |241| 
    1475 0000001b 86A9          MOVL      XAR2,ACC              ; [CPU_] |241| 
    1476 0000001c 8A91          MOVL      XAR4,*+XAR1[AR0]      ; [CPU_] |241| 
    1477                      .dwpsn  file "C:/ti/motorware/motorware_1_01_00_15/sw/modules/hal/boards/hvkit_rev1p1/f28x/f2802x/src
    1478 0000001d 9A00          MOVB      AL,#0                 ; [CPU_] |1209| 
TMS320C2000 Assembler PC v6.4.9 Wed Dec 02 17:22:54 2015

Tools Copyright (c) 1996-2015 Texas Instruments Incorporated
C:\Users\ywcheng\AppData\Local\Temp\6082010                          PAGE   28

    1479 0000001e D08A          MOVB      XAR0,#138             ; [CPU_] |1209| 
    1480                      .dwpsn  file "C:/ti/motorware/motorware_1_01_00_15/sw/drivers/timer/src/32b/f28x/f2802x/timer.h",line
    1481 0000001f DA81          SUBB      XAR2,#1               ; [CPU_] |241| 
    1482 00000020 AAD4          MOVL      *+XAR4[2],XAR2        ; [CPU_] |241| 
    1483                      .dwpsn  file "C:/ti/motorware/motorware_1_01_00_15/sw/modules/hal/boards/hvkit_rev1p1/f28x/f2802x/src
    1484 00000021 8A91          MOVL      XAR4,*+XAR1[AR0]      ; [CPU_] |1209| 
    1485              $C$DW$358       .dwtag  DW_TAG_TI_branch
    1486                      .dwattr $C$DW$358, DW_AT_low_pc(0x00)
    1487                      .dwattr $C$DW$358, DW_AT_name("_TIMER_setPreScaler")
    1488                      .dwattr $C$DW$358, DW_AT_TI_call
    1489 00000022 7640!         LCR       #_TIMER_setPreScaler  ; [CPU_] |1209| 
         00000023 0000 
    1490                      ; call occurs [#_TIMER_setPreScaler] ; [] |1209| 
    1491                      .dwpsn  file "C:/ti/motorware/motorware_1_01_00_15/sw/modules/hal/boards/hvkit_rev1p1/f28x/f2802x/src
    1492 00000024 D08C          MOVB      XAR0,#140             ; [CPU_] |1212| 
    1493 00000025 9A00          MOVB      AL,#0                 ; [CPU_] |1212| 
    1494 00000026 8A91          MOVL      XAR4,*+XAR1[AR0]      ; [CPU_] |1212| 
    1495              $C$DW$359       .dwtag  DW_TAG_TI_branch
    1496                      .dwattr $C$DW$359, DW_AT_low_pc(0x00)
    1497                      .dwattr $C$DW$359, DW_AT_name("_TIMER_setDecimationFactor")
    1498                      .dwattr $C$DW$359, DW_AT_TI_call
    1499 00000027 7640!         LCR       #_TIMER_setDecimationFactor ; [CPU_] |1212| 
         00000028 0000 
    1500                      ; call occurs [#_TIMER_setDecimationFactor] ; [] |1212| 
    1501                      .dwpsn  file "C:/ti/motorware/motorware_1_01_00_15/sw/modules/hal/boards/hvkit_rev1p1/f28x/f2802x/src
    1502 00000029 D08C          MOVB      XAR0,#140             ; [CPU_] |1213| 
    1503 0000002a 28A9          MOV       AL,#2048              ; [CPU_] |1213| 
         0000002b 0800 
    1504 0000002c 8A91          MOVL      XAR4,*+XAR1[AR0]      ; [CPU_] |1213| 
    1505              $C$DW$360       .dwtag  DW_TAG_TI_branch
    1506                      .dwattr $C$DW$360, DW_AT_low_pc(0x00)
    1507                      .dwattr $C$DW$360, DW_AT_name("_TIMER_setEmulationMode")
    1508                      .dwattr $C$DW$360, DW_AT_TI_call
    1509 0000002d 7640!         LCR       #_TIMER_setEmulationMode ; [CPU_] |1213| 
         0000002e 0000 
    1510                      ; call occurs [#_TIMER_setEmulationMode] ; [] |1213| 
    1511                      .dwpsn  file "C:/ti/motorware/motorware_1_01_00_15/sw/drivers/timer/src/32b/f28x/f2802x/timer.h",line
    1512 0000002f D08C          MOVB      XAR0,#140             ; [CPU_] |241| 
    1513 00000030 8A91          MOVL      XAR4,*+XAR1[AR0]      ; [CPU_] |241| 
    1514                      .dwpsn  file "C:/ti/motorware/motorware_1_01_00_15/sw/modules/hal/boards/hvkit_rev1p1/f28x/f2802x/src
    1515 00000031 9A00          MOVB      AL,#0                 ; [CPU_] |1215| 
    1516 00000032 D08C          MOVB      XAR0,#140             ; [CPU_] |1215| 
    1517                      .dwpsn  file "C:/ti/motorware/motorware_1_01_00_15/sw/drivers/timer/src/32b/f28x/f2802x/timer.h",line
    1518 00000033 AAD4          MOVL      *+XAR4[2],XAR2        ; [CPU_] |241| 
    1519                      .dwpsn  file "C:/ti/motorware/motorware_1_01_00_15/sw/modules/hal/boards/hvkit_rev1p1/f28x/f2802x/src
    1520 00000034 8A91          MOVL      XAR4,*+XAR1[AR0]      ; [CPU_] |1215| 
    1521              $C$DW$361       .dwtag  DW_TAG_TI_branch
    1522                      .dwattr $C$DW$361, DW_AT_low_pc(0x00)
    1523                      .dwattr $C$DW$361, DW_AT_name("_TIMER_setPreScaler")
    1524                      .dwattr $C$DW$361, DW_AT_TI_call
    1525 00000035 7640!         LCR       #_TIMER_setPreScaler  ; [CPU_] |1215| 
         00000036 0000 
    1526                      ; call occurs [#_TIMER_setPreScaler] ; [] |1215| 
    1527 00000037 FE82          SUBB      SP,#2                 ; [CPU_U] 
    1528                      .dwcfi  cfa_offset, -6
TMS320C2000 Assembler PC v6.4.9 Wed Dec 02 17:22:54 2015

Tools Copyright (c) 1996-2015 Texas Instruments Incorporated
C:\Users\ywcheng\AppData\Local\Temp\6082010                          PAGE   29

    1529 00000038 86BE          MOVL      XAR2,*--SP            ; [CPU_] 
    1530                      .dwcfi  cfa_offset, -4
    1531                      .dwcfi  restore_reg, 9
    1532 00000039 8BBE          MOVL      XAR1,*--SP            ; [CPU_] 
    1533                      .dwcfi  cfa_offset, -2
    1534                      .dwcfi  restore_reg, 7
    1535              $C$DW$362       .dwtag  DW_TAG_TI_branch
    1536                      .dwattr $C$DW$362, DW_AT_low_pc(0x00)
    1537                      .dwattr $C$DW$362, DW_AT_TI_return
    1538 0000003a 0006          LRETR     ; [CPU_] 
    1539                      ; return occurs ; [] 
    1540                      .dwattr $C$DW$349, DW_AT_TI_end_file("C:/ti/motorware/motorware_1_01_00_15/sw/modules/hal/boards/hvki
    1541                      .dwattr $C$DW$349, DW_AT_TI_end_line(0x4c2)
    1542                      .dwattr $C$DW$349, DW_AT_TI_end_column(0x01)
    1543                      .dwendentry
    1544                      .dwendtag $C$DW$349
    1545              
    1546 0000003b               .sect   ".text"
    1547                      .clink
    1548                      .global _HAL_setupPwms
    1549              
    1550              $C$DW$363       .dwtag  DW_TAG_subprogram, DW_AT_name("HAL_setupPwms")
    1551                      .dwattr $C$DW$363, DW_AT_low_pc(_HAL_setupPwms)
    1552                      .dwattr $C$DW$363, DW_AT_high_pc(0x00)
    1553                      .dwattr $C$DW$363, DW_AT_TI_symbol_name("_HAL_setupPwms")
    1554                      .dwattr $C$DW$363, DW_AT_external
    1555                      .dwattr $C$DW$363, DW_AT_TI_begin_file("C:/ti/motorware/motorware_1_01_00_15/sw/modules/hal/boards/hv
    1556                      .dwattr $C$DW$363, DW_AT_TI_begin_line(0x443)
    1557                      .dwattr $C$DW$363, DW_AT_TI_begin_column(0x06)
    1558                      .dwattr $C$DW$363, DW_AT_TI_max_frame_size(-12)
    1559                      .dwpsn  file "C:/ti/motorware/motorware_1_01_00_15/sw/modules/hal/boards/hvkit_rev1p1/f28x/f2802x/src
    1560              
    1561                      .dwfde $C$DW$CIE, _HAL_setupPwms
    1562              $C$DW$364       .dwtag  DW_TAG_formal_parameter, DW_AT_name("handle")
    1563                      .dwattr $C$DW$364, DW_AT_TI_symbol_name("_handle")
    1564                      .dwattr $C$DW$364, DW_AT_type(*$C$DW$T$295)
    1565                      .dwattr $C$DW$364, DW_AT_location[DW_OP_reg12]
    1566              $C$DW$365       .dwtag  DW_TAG_formal_parameter, DW_AT_name("systemFreq_MHz")
    1567                      .dwattr $C$DW$365, DW_AT_TI_symbol_name("_systemFreq_MHz")
    1568                      .dwattr $C$DW$365, DW_AT_type(*$C$DW$T$486)
    1569                      .dwattr $C$DW$365, DW_AT_location[DW_OP_reg0]
    1570              $C$DW$366       .dwtag  DW_TAG_formal_parameter, DW_AT_name("pwmPeriod_usec")
    1571                      .dwattr $C$DW$366, DW_AT_TI_symbol_name("_pwmPeriod_usec")
    1572                      .dwattr $C$DW$366, DW_AT_type(*$C$DW$T$486)
    1573                      .dwattr $C$DW$366, DW_AT_location[DW_OP_breg20 -14]
    1574              $C$DW$367       .dwtag  DW_TAG_formal_parameter, DW_AT_name("numPwmTicksPerIsrTick")
    1575                      .dwattr $C$DW$367, DW_AT_TI_symbol_name("_numPwmTicksPerIsrTick")
    1576                      .dwattr $C$DW$367, DW_AT_type(*$C$DW$T$487)
    1577                      .dwattr $C$DW$367, DW_AT_location[DW_OP_reg14]
    1578              
    1579              ;***************************************************************
    1580              ;* FNAME: _HAL_setupPwms                FR SIZE:  10           *
    1581              ;*                                                             *
    1582              ;* FUNCTION ENVIRONMENT                                        *
    1583              ;*                                                             *
TMS320C2000 Assembler PC v6.4.9 Wed Dec 02 17:22:54 2015

Tools Copyright (c) 1996-2015 Texas Instruments Incorporated
C:\Users\ywcheng\AppData\Local\Temp\6082010                          PAGE   30

    1584              ;* FUNCTION PROPERTIES                                         *
    1585              ;*                            2 Parameter,  2 Auto,  6 SOE     *
    1586              ;***************************************************************
    1587              
    1588              _HAL_setupPwms:
    1589              ;* AR1   assigned to _handle
    1590              $C$DW$368       .dwtag  DW_TAG_variable, DW_AT_name("handle")
    1591                      .dwattr $C$DW$368, DW_AT_TI_symbol_name("_handle")
    1592                      .dwattr $C$DW$368, DW_AT_type(*$C$DW$T$296)
    1593                      .dwattr $C$DW$368, DW_AT_location[DW_OP_reg6]
    1594              ;* AR6   assigned to _pwmPeriod_usec
    1595              $C$DW$369       .dwtag  DW_TAG_variable, DW_AT_name("pwmPeriod_usec")
    1596                      .dwattr $C$DW$369, DW_AT_TI_symbol_name("_pwmPeriod_usec")
    1597                      .dwattr $C$DW$369, DW_AT_type(*$C$DW$T$486)
    1598                      .dwattr $C$DW$369, DW_AT_location[DW_OP_reg16]
    1599              $C$DW$370       .dwtag  DW_TAG_variable, DW_AT_name("numPwmTicksPerIsrTick")
    1600                      .dwattr $C$DW$370, DW_AT_TI_symbol_name("_numPwmTicksPerIsrTick")
    1601                      .dwattr $C$DW$370, DW_AT_type(*$C$DW$T$487)
    1602                      .dwattr $C$DW$370, DW_AT_location[DW_OP_breg20 -3]
    1603              $C$DW$371       .dwtag  DW_TAG_variable, DW_AT_name("halfPeriod_cycles")
    1604                      .dwattr $C$DW$371, DW_AT_TI_symbol_name("_halfPeriod_cycles")
    1605                      .dwattr $C$DW$371, DW_AT_type(*$C$DW$T$21)
    1606                      .dwattr $C$DW$371, DW_AT_location[DW_OP_breg20 -4]
    1607              ;* AR3   assigned to $O$U28
    1608                      .dwcfi  cfa_offset, -2
    1609                      .dwcfi  save_reg_to_mem, 26, 0
    1610 0000003b B2BD          MOVL      *SP++,XAR1            ; [CPU_] 
    1611                      .dwcfi  save_reg_to_mem, 7, 2
    1612                      .dwcfi  cfa_offset, -4
    1613 0000003c AABD          MOVL      *SP++,XAR2            ; [CPU_] 
    1614                      .dwcfi  save_reg_to_mem, 9, 4
    1615                      .dwcfi  cfa_offset, -6
    1616 0000003d A2BD          MOVL      *SP++,XAR3            ; [CPU_] 
    1617                      .dwcfi  save_reg_to_mem, 11, 6
    1618                      .dwcfi  cfa_offset, -8
    1619 0000003e FE04          ADDB      SP,#4                 ; [CPU_U] 
    1620                      .dwcfi  cfa_offset, -12
    1621 0000003f C44E          MOVL      XAR6,*-SP[14]         ; [CPU_] |1095| 
    1622 00000040 8BA4          MOVL      XAR1,XAR4             ; [CPU_] |1095| 
    1623 00000041 7D43          MOV       *-SP[3],AR5           ; [CPU_] |1095| 
    1624                      .dwpsn  file "C:/ti/motorware/motorware_1_01_00_15/sw/modules/hal/boards/hvkit_rev1p1/f28x/f2802x/src
    1625 00000042 C242          MOVL      *-SP[2],XAR6          ; [CPU_] |1097| 
    1626              $C$DW$372       .dwtag  DW_TAG_TI_branch
    1627                      .dwattr $C$DW$372, DW_AT_low_pc(0x00)
    1628                      .dwattr $C$DW$372, DW_AT_name("FS$$MPY")
    1629                      .dwattr $C$DW$372, DW_AT_TI_call
    1630 00000043 7640!         LCR       #FS$$MPY              ; [CPU_] |1097| 
         00000044 0000 
    1631                      ; call occurs [#FS$$MPY] ; [] |1097| 
    1632              $C$DW$373       .dwtag  DW_TAG_TI_branch
    1633                      .dwattr $C$DW$373, DW_AT_low_pc(0x00)
    1634                      .dwattr $C$DW$373, DW_AT_name("FS$$TOU")
    1635                      .dwattr $C$DW$373, DW_AT_TI_call
    1636 00000045 7640!         LCR       #FS$$TOU              ; [CPU_] |1097| 
         00000046 0000 
TMS320C2000 Assembler PC v6.4.9 Wed Dec 02 17:22:54 2015

Tools Copyright (c) 1996-2015 Texas Instruments Incorporated
C:\Users\ywcheng\AppData\Local\Temp\6082010                          PAGE   31

    1637                      ; call occurs [#FS$$TOU] ; [] |1097| 
    1638 00000047 FFC0          LSR       AL,1                  ; [CPU_] |1097| 
    1639 00000048 9644          MOV       *-SP[4],AL            ; [CPU_] |1097| 
    1640 00000049 7622   EALLOW
    1641                      .dwpsn  file "C:/ti/motorware/motorware_1_01_00_15/sw/drivers/pwm/src/32b/f28x/f2802x/pwm.h",line 156
    1642 0000004a D07C          MOVB      XAR0,#124             ; [CPU_] |1567| 
    1643 0000004b 0218          MOVB      ACC,#24               ; [CPU_] |1567| 
    1644 0000004c 0791          ADDL      ACC,*+XAR1[AR0]       ; [CPU_] |1567| 
    1645 0000004d 8AA9          MOVL      XAR4,ACC              ; [CPU_] |1567| 
    1646 0000004e 1AC4          OR        *+XAR4[0],#0x0004     ; [CPU_] |1567| 
         0000004f 0004 
    1647 00000050 761A   EDIS
    1648 00000051 7622   EALLOW
    1649 00000052 D07E          MOVB      XAR0,#126             ; [CPU_] |1567| 
    1650 00000053 0218          MOVB      ACC,#24               ; [CPU_] |1567| 
    1651 00000054 0791          ADDL      ACC,*+XAR1[AR0]       ; [CPU_] |1567| 
    1652 00000055 8AA9          MOVL      XAR4,ACC              ; [CPU_] |1567| 
    1653 00000056 1AC4          OR        *+XAR4[0],#0x0004     ; [CPU_] |1567| 
         00000057 0004 
    1654 00000058 761A   EDIS
    1655 00000059 7622   EALLOW
    1656 0000005a D080          MOVB      XAR0,#128             ; [CPU_] |1567| 
    1657 0000005b 0218          MOVB      ACC,#24               ; [CPU_] |1567| 
    1658 0000005c 0791          ADDL      ACC,*+XAR1[AR0]       ; [CPU_] |1567| 
    1659 0000005d 8AA9          MOVL      XAR4,ACC              ; [CPU_] |1567| 
    1660 0000005e 1AC4          OR        *+XAR4[0],#0x0004     ; [CPU_] |1567| 
         0000005f 0004 
    1661 00000060 761A   EDIS
    1662 00000061 82A1          MOVL      XAR3,XAR1             ; [CPU_] 
    1663 00000062 D202          MOVB      XAR2,#2               ; [CPU_] 
    1664 00000063 DB7C          ADDB      XAR3,#124             ; [CPU_] 
    1665 00000064       $C$L1:    
    1666                      .dwpsn  file "C:/ti/motorware/motorware_1_01_00_15/sw/modules/hal/boards/hvkit_rev1p1/f28x/f2802x/src
    1667 00000064 8AC3          MOVL      XAR4,*+XAR3[0]        ; [CPU_] |1110| 
    1668 00000065 9A02          MOVB      AL,#2                 ; [CPU_] |1110| 
    1669 00000066 FF69          SPM       #0                    ; [CPU_] 
    1670              $C$DW$374       .dwtag  DW_TAG_TI_branch
    1671                      .dwattr $C$DW$374, DW_AT_low_pc(0x00)
    1672                      .dwattr $C$DW$374, DW_AT_name("_PWM_setCounterMode")
    1673                      .dwattr $C$DW$374, DW_AT_TI_call
    1674 00000067 7640!         LCR       #_PWM_setCounterMode  ; [CPU_] |1110| 
         00000068 0000 
    1675                      ; call occurs [#_PWM_setCounterMode] ; [] |1110| 
    1676                      .dwpsn  file "C:/ti/motorware/motorware_1_01_00_15/sw/modules/hal/boards/hvkit_rev1p1/f28x/f2802x/src
    1677 00000069 8AC3          MOVL      XAR4,*+XAR3[0]        ; [CPU_] |1111| 
    1678              $C$DW$375       .dwtag  DW_TAG_TI_branch
    1679                      .dwattr $C$DW$375, DW_AT_low_pc(0x00)
    1680                      .dwattr $C$DW$375, DW_AT_name("_PWM_disableCounterLoad")
    1681                      .dwattr $C$DW$375, DW_AT_TI_call
    1682 0000006a 7640!         LCR       #_PWM_disableCounterLoad ; [CPU_] |1111| 
         0000006b 0000 
    1683                      ; call occurs [#_PWM_disableCounterLoad] ; [] |1111| 
    1684                      .dwpsn  file "C:/ti/motorware/motorware_1_01_00_15/sw/modules/hal/boards/hvkit_rev1p1/f28x/f2802x/src
    1685 0000006c 9A08          MOVB      AL,#8                 ; [CPU_] |1112| 
    1686 0000006d 8AC3          MOVL      XAR4,*+XAR3[0]        ; [CPU_] |1112| 
TMS320C2000 Assembler PC v6.4.9 Wed Dec 02 17:22:54 2015

Tools Copyright (c) 1996-2015 Texas Instruments Incorporated
C:\Users\ywcheng\AppData\Local\Temp\6082010                          PAGE   32

    1687              $C$DW$376       .dwtag  DW_TAG_TI_branch
    1688                      .dwattr $C$DW$376, DW_AT_low_pc(0x00)
    1689                      .dwattr $C$DW$376, DW_AT_name("_PWM_setPeriodLoad")
    1690                      .dwattr $C$DW$376, DW_AT_TI_call
    1691 0000006e 7640!         LCR       #_PWM_setPeriodLoad   ; [CPU_] |1112| 
         0000006f 0000 
    1692                      ; call occurs [#_PWM_setPeriodLoad] ; [] |1112| 
    1693                      .dwpsn  file "C:/ti/motorware/motorware_1_01_00_15/sw/modules/hal/boards/hvkit_rev1p1/f28x/f2802x/src
    1694 00000070 9A00          MOVB      AL,#0                 ; [CPU_] |1113| 
    1695 00000071 8AC3          MOVL      XAR4,*+XAR3[0]        ; [CPU_] |1113| 
    1696              $C$DW$377       .dwtag  DW_TAG_TI_branch
    1697                      .dwattr $C$DW$377, DW_AT_low_pc(0x00)
    1698                      .dwattr $C$DW$377, DW_AT_name("_PWM_setSyncMode")
    1699                      .dwattr $C$DW$377, DW_AT_TI_call
    1700 00000072 7640!         LCR       #_PWM_setSyncMode     ; [CPU_] |1113| 
         00000073 0000 
    1701                      ; call occurs [#_PWM_setSyncMode] ; [] |1113| 
    1702                      .dwpsn  file "C:/ti/motorware/motorware_1_01_00_15/sw/modules/hal/boards/hvkit_rev1p1/f28x/f2802x/src
    1703 00000074 9A00          MOVB      AL,#0                 ; [CPU_] |1114| 
    1704 00000075 8AC3          MOVL      XAR4,*+XAR3[0]        ; [CPU_] |1114| 
    1705              $C$DW$378       .dwtag  DW_TAG_TI_branch
    1706                      .dwattr $C$DW$378, DW_AT_low_pc(0x00)
    1707                      .dwattr $C$DW$378, DW_AT_name("_PWM_setHighSpeedClkDiv")
    1708                      .dwattr $C$DW$378, DW_AT_TI_call
    1709 00000076 7640!         LCR       #_PWM_setHighSpeedClkDiv ; [CPU_] |1114| 
         00000077 0000 
    1710                      ; call occurs [#_PWM_setHighSpeedClkDiv] ; [] |1114| 
    1711                      .dwpsn  file "C:/ti/motorware/motorware_1_01_00_15/sw/modules/hal/boards/hvkit_rev1p1/f28x/f2802x/src
    1712 00000078 9A00          MOVB      AL,#0                 ; [CPU_] |1115| 
    1713 00000079 8AC3          MOVL      XAR4,*+XAR3[0]        ; [CPU_] |1115| 
    1714              $C$DW$379       .dwtag  DW_TAG_TI_branch
    1715                      .dwattr $C$DW$379, DW_AT_low_pc(0x00)
    1716                      .dwattr $C$DW$379, DW_AT_name("_PWM_setClkDiv")
    1717                      .dwattr $C$DW$379, DW_AT_TI_call
    1718 0000007a 7640!         LCR       #_PWM_setClkDiv       ; [CPU_] |1115| 
         0000007b 0000 
    1719                      ; call occurs [#_PWM_setClkDiv] ; [] |1115| 
    1720                      .dwpsn  file "C:/ti/motorware/motorware_1_01_00_15/sw/modules/hal/boards/hvkit_rev1p1/f28x/f2802x/src
    1721 0000007c 28A9          MOV       AL,#8192              ; [CPU_] |1116| 
         0000007d 2000 
    1722 0000007e 8AC3          MOVL      XAR4,*+XAR3[0]        ; [CPU_] |1116| 
    1723              $C$DW$380       .dwtag  DW_TAG_TI_branch
    1724                      .dwattr $C$DW$380, DW_AT_low_pc(0x00)
    1725                      .dwattr $C$DW$380, DW_AT_name("_PWM_setPhaseDir")
    1726                      .dwattr $C$DW$380, DW_AT_TI_call
    1727 0000007f 7640!         LCR       #_PWM_setPhaseDir     ; [CPU_] |1116| 
         00000080 0000 
    1728                      ; call occurs [#_PWM_setPhaseDir] ; [] |1116| 
    1729                      .dwpsn  file "C:/ti/motorware/motorware_1_01_00_15/sw/modules/hal/boards/hvkit_rev1p1/f28x/f2802x/src
    1730 00000081 28A9          MOV       AL,#-32768            ; [CPU_] |1117| 
         00000082 8000 
    1731 00000083 8AC3          MOVL      XAR4,*+XAR3[0]        ; [CPU_] |1117| 
    1732              $C$DW$381       .dwtag  DW_TAG_TI_branch
    1733                      .dwattr $C$DW$381, DW_AT_low_pc(0x00)
    1734                      .dwattr $C$DW$381, DW_AT_name("_PWM_setRunMode")
TMS320C2000 Assembler PC v6.4.9 Wed Dec 02 17:22:54 2015

Tools Copyright (c) 1996-2015 Texas Instruments Incorporated
C:\Users\ywcheng\AppData\Local\Temp\6082010                          PAGE   33

    1735                      .dwattr $C$DW$381, DW_AT_TI_call
    1736 00000084 7640!         LCR       #_PWM_setRunMode      ; [CPU_] |1117| 
         00000085 0000 
    1737                      ; call occurs [#_PWM_setRunMode] ; [] |1117| 
    1738                      .dwpsn  file "C:/ti/motorware/motorware_1_01_00_15/sw/modules/hal/boards/hvkit_rev1p1/f28x/f2802x/src
    1739 00000086 9A00          MOVB      AL,#0                 ; [CPU_] |1120| 
    1740 00000087 8AC3          MOVL      XAR4,*+XAR3[0]        ; [CPU_] |1120| 
    1741              $C$DW$382       .dwtag  DW_TAG_TI_branch
    1742                      .dwattr $C$DW$382, DW_AT_low_pc(0x00)
    1743                      .dwattr $C$DW$382, DW_AT_name("_PWM_setPhase")
    1744                      .dwattr $C$DW$382, DW_AT_TI_call
    1745 00000088 7640!         LCR       #_PWM_setPhase        ; [CPU_] |1120| 
         00000089 0000 
    1746                      ; call occurs [#_PWM_setPhase] ; [] |1120| 
    1747                      .dwpsn  file "C:/ti/motorware/motorware_1_01_00_15/sw/modules/hal/boards/hvkit_rev1p1/f28x/f2802x/src
    1748 0000008a 9A00          MOVB      AL,#0                 ; [CPU_] |1123| 
    1749 0000008b 8AC3          MOVL      XAR4,*+XAR3[0]        ; [CPU_] |1123| 
    1750              $C$DW$383       .dwtag  DW_TAG_TI_branch
    1751                      .dwattr $C$DW$383, DW_AT_low_pc(0x00)
    1752                      .dwattr $C$DW$383, DW_AT_name("_PWM_setCount")
    1753                      .dwattr $C$DW$383, DW_AT_TI_call
    1754 0000008c 7640!         LCR       #_PWM_setCount        ; [CPU_] |1123| 
         0000008d 0000 
    1755                      ; call occurs [#_PWM_setCount] ; [] |1123| 
    1756                      .dwpsn  file "C:/ti/motorware/motorware_1_01_00_15/sw/modules/hal/boards/hvkit_rev1p1/f28x/f2802x/src
    1757 0000008e 9A00          MOVB      AL,#0                 ; [CPU_] |1127| 
    1758 0000008f 8AC3          MOVL      XAR4,*+XAR3[0]        ; [CPU_] |1127| 
    1759              $C$DW$384       .dwtag  DW_TAG_TI_branch
    1760                      .dwattr $C$DW$384, DW_AT_low_pc(0x00)
    1761                      .dwattr $C$DW$384, DW_AT_name("_PWM_setPeriod")
    1762                      .dwattr $C$DW$384, DW_AT_TI_call
    1763 00000090 7640!         LCR       #_PWM_setPeriod       ; [CPU_] |1127| 
         00000091 0000 
    1764                      ; call occurs [#_PWM_setPeriod] ; [] |1127| 
    1765                      .dwpsn  file "C:/ti/motorware/motorware_1_01_00_15/sw/modules/hal/boards/hvkit_rev1p1/f28x/f2802x/src
    1766 00000092 8AC3          MOVL      XAR4,*+XAR3[0]        ; [CPU_] |1130| 
    1767 00000093 9A00          MOVB      AL,#0                 ; [CPU_] |1130| 
    1768              $C$DW$385       .dwtag  DW_TAG_TI_branch
    1769                      .dwattr $C$DW$385, DW_AT_low_pc(0x00)
    1770                      .dwattr $C$DW$385, DW_AT_name("_PWM_setLoadMode_CmpA")
    1771                      .dwattr $C$DW$385, DW_AT_TI_call
    1772 00000094 7640!         LCR       #_PWM_setLoadMode_CmpA ; [CPU_] |1130| 
         00000095 0000 
    1773                      ; call occurs [#_PWM_setLoadMode_CmpA] ; [] |1130| 
    1774                      .dwpsn  file "C:/ti/motorware/motorware_1_01_00_15/sw/modules/hal/boards/hvkit_rev1p1/f28x/f2802x/src
    1775 00000096 9A00          MOVB      AL,#0                 ; [CPU_] |1131| 
    1776 00000097 8AC3          MOVL      XAR4,*+XAR3[0]        ; [CPU_] |1131| 
    1777              $C$DW$386       .dwtag  DW_TAG_TI_branch
    1778                      .dwattr $C$DW$386, DW_AT_low_pc(0x00)
    1779                      .dwattr $C$DW$386, DW_AT_name("_PWM_setLoadMode_CmpB")
    1780                      .dwattr $C$DW$386, DW_AT_TI_call
    1781 00000098 7640!         LCR       #_PWM_setLoadMode_CmpB ; [CPU_] |1131| 
         00000099 0000 
    1782                      ; call occurs [#_PWM_setLoadMode_CmpB] ; [] |1131| 
    1783                      .dwpsn  file "C:/ti/motorware/motorware_1_01_00_15/sw/modules/hal/boards/hvkit_rev1p1/f28x/f2802x/src
TMS320C2000 Assembler PC v6.4.9 Wed Dec 02 17:22:54 2015

Tools Copyright (c) 1996-2015 Texas Instruments Incorporated
C:\Users\ywcheng\AppData\Local\Temp\6082010                          PAGE   34

    1784 0000009a 9A00          MOVB      AL,#0                 ; [CPU_] |1132| 
    1785 0000009b 8AC3          MOVL      XAR4,*+XAR3[0]        ; [CPU_] |1132| 
    1786              $C$DW$387       .dwtag  DW_TAG_TI_branch
    1787                      .dwattr $C$DW$387, DW_AT_low_pc(0x00)
    1788                      .dwattr $C$DW$387, DW_AT_name("_PWM_setShadowMode_CmpA")
    1789                      .dwattr $C$DW$387, DW_AT_TI_call
    1790 0000009c 7640!         LCR       #_PWM_setShadowMode_CmpA ; [CPU_] |1132| 
         0000009d 0000 
    1791                      ; call occurs [#_PWM_setShadowMode_CmpA] ; [] |1132| 
    1792                      .dwpsn  file "C:/ti/motorware/motorware_1_01_00_15/sw/modules/hal/boards/hvkit_rev1p1/f28x/f2802x/src
    1793 0000009e 9A01          MOVB      AL,#1                 ; [CPU_] |1133| 
    1794 0000009f 8AC3          MOVL      XAR4,*+XAR3[0]        ; [CPU_] |1133| 
    1795              $C$DW$388       .dwtag  DW_TAG_TI_branch
    1796                      .dwattr $C$DW$388, DW_AT_low_pc(0x00)
    1797                      .dwattr $C$DW$388, DW_AT_name("_PWM_setShadowMode_CmpB")
    1798                      .dwattr $C$DW$388, DW_AT_TI_call
    1799 000000a0 7640!         LCR       #_PWM_setShadowMode_CmpB ; [CPU_] |1133| 
         000000a1 0000 
    1800                      ; call occurs [#_PWM_setShadowMode_CmpB] ; [] |1133| 
    1801                      .dwpsn  file "C:/ti/motorware/motorware_1_01_00_15/sw/modules/hal/boards/hvkit_rev1p1/f28x/f2802x/src
    1802 000000a2 9A02          MOVB      AL,#2                 ; [CPU_] |1136| 
    1803 000000a3 8AC3          MOVL      XAR4,*+XAR3[0]        ; [CPU_] |1136| 
    1804              $C$DW$389       .dwtag  DW_TAG_TI_branch
    1805                      .dwattr $C$DW$389, DW_AT_low_pc(0x00)
    1806                      .dwattr $C$DW$389, DW_AT_name("_PWM_setActionQual_CntUp_CmpA_PwmA")
    1807                      .dwattr $C$DW$389, DW_AT_TI_call
    1808 000000a4 7640!         LCR       #_PWM_setActionQual_CntUp_CmpA_PwmA ; [CPU_] |1136| 
         000000a5 0000 
    1809                      ; call occurs [#_PWM_setActionQual_CntUp_CmpA_PwmA] ; [] |1136| 
    1810                      .dwpsn  file "C:/ti/motorware/motorware_1_01_00_15/sw/modules/hal/boards/hvkit_rev1p1/f28x/f2802x/src
    1811 000000a6 9A01          MOVB      AL,#1                 ; [CPU_] |1137| 
    1812 000000a7 8AC3          MOVL      XAR4,*+XAR3[0]        ; [CPU_] |1137| 
    1813              $C$DW$390       .dwtag  DW_TAG_TI_branch
    1814                      .dwattr $C$DW$390, DW_AT_low_pc(0x00)
    1815                      .dwattr $C$DW$390, DW_AT_name("_PWM_setActionQual_CntDown_CmpA_PwmA")
    1816                      .dwattr $C$DW$390, DW_AT_TI_call
    1817 000000a8 7640!         LCR       #_PWM_setActionQual_CntDown_CmpA_PwmA ; [CPU_] |1137| 
         000000a9 0000 
    1818                      ; call occurs [#_PWM_setActionQual_CntDown_CmpA_PwmA] ; [] |1137| 
    1819                      .dwpsn  file "C:/ti/motorware/motorware_1_01_00_15/sw/modules/hal/boards/hvkit_rev1p1/f28x/f2802x/src
    1820 000000aa 9A03          MOVB      AL,#3                 ; [CPU_] |1140| 
    1821 000000ab 8AC3          MOVL      XAR4,*+XAR3[0]        ; [CPU_] |1140| 
    1822              $C$DW$391       .dwtag  DW_TAG_TI_branch
    1823                      .dwattr $C$DW$391, DW_AT_low_pc(0x00)
    1824                      .dwattr $C$DW$391, DW_AT_name("_PWM_setDeadBandOutputMode")
    1825                      .dwattr $C$DW$391, DW_AT_TI_call
    1826 000000ac 7640!         LCR       #_PWM_setDeadBandOutputMode ; [CPU_] |1140| 
         000000ad 0000 
    1827                      ; call occurs [#_PWM_setDeadBandOutputMode] ; [] |1140| 
    1828                      .dwpsn  file "C:/ti/motorware/motorware_1_01_00_15/sw/modules/hal/boards/hvkit_rev1p1/f28x/f2802x/src
    1829 000000ae 9A08          MOVB      AL,#8                 ; [CPU_] |1141| 
    1830 000000af 8AC3          MOVL      XAR4,*+XAR3[0]        ; [CPU_] |1141| 
    1831              $C$DW$392       .dwtag  DW_TAG_TI_branch
    1832                      .dwattr $C$DW$392, DW_AT_low_pc(0x00)
    1833                      .dwattr $C$DW$392, DW_AT_name("_PWM_setDeadBandPolarity")
TMS320C2000 Assembler PC v6.4.9 Wed Dec 02 17:22:54 2015

Tools Copyright (c) 1996-2015 Texas Instruments Incorporated
C:\Users\ywcheng\AppData\Local\Temp\6082010                          PAGE   35

    1834                      .dwattr $C$DW$392, DW_AT_TI_call
    1835 000000b0 7640!         LCR       #_PWM_setDeadBandPolarity ; [CPU_] |1141| 
         000000b1 0000 
    1836                      ; call occurs [#_PWM_setDeadBandPolarity] ; [] |1141| 
    1837                      .dwpsn  file "C:/ti/motorware/motorware_1_01_00_15/sw/modules/hal/boards/hvkit_rev1p1/f28x/f2802x/src
    1838 000000b2 9A78          MOVB      AL,#120               ; [CPU_] |1144| 
    1839 000000b3 8AC3          MOVL      XAR4,*+XAR3[0]        ; [CPU_] |1144| 
    1840              $C$DW$393       .dwtag  DW_TAG_TI_branch
    1841                      .dwattr $C$DW$393, DW_AT_low_pc(0x00)
    1842                      .dwattr $C$DW$393, DW_AT_name("_PWM_setDeadBandRisingEdgeDelay")
    1843                      .dwattr $C$DW$393, DW_AT_TI_call
    1844 000000b4 7640!         LCR       #_PWM_setDeadBandRisingEdgeDelay ; [CPU_] |1144| 
         000000b5 0000 
    1845                      ; call occurs [#_PWM_setDeadBandRisingEdgeDelay] ; [] |1144| 
    1846                      .dwpsn  file "C:/ti/motorware/motorware_1_01_00_15/sw/modules/hal/boards/hvkit_rev1p1/f28x/f2802x/src
    1847 000000b6 9A78          MOVB      AL,#120               ; [CPU_] |1147| 
    1848 000000b7 8AC3          MOVL      XAR4,*+XAR3[0]        ; [CPU_] |1147| 
    1849              $C$DW$394       .dwtag  DW_TAG_TI_branch
    1850                      .dwattr $C$DW$394, DW_AT_low_pc(0x00)
    1851                      .dwattr $C$DW$394, DW_AT_name("_PWM_setDeadBandFallingEdgeDelay")
    1852                      .dwattr $C$DW$394, DW_AT_TI_call
    1853 000000b8 7640!         LCR       #_PWM_setDeadBandFallingEdgeDelay ; [CPU_] |1147| 
         000000b9 0000 
    1854                      ; call occurs [#_PWM_setDeadBandFallingEdgeDelay] ; [] |1147| 
    1855                      .dwpsn  file "C:/ti/motorware/motorware_1_01_00_15/sw/modules/hal/boards/hvkit_rev1p1/f28x/f2802x/src
    1856 000000ba 8AC3          MOVL      XAR4,*+XAR3[0]        ; [CPU_] |1149| 
    1857              $C$DW$395       .dwtag  DW_TAG_TI_branch
    1858                      .dwattr $C$DW$395, DW_AT_low_pc(0x00)
    1859                      .dwattr $C$DW$395, DW_AT_name("_PWM_disableChopping")
    1860                      .dwattr $C$DW$395, DW_AT_TI_call
    1861 000000bb 7640!         LCR       #_PWM_disableChopping ; [CPU_] |1149| 
         000000bc 0000 
    1862                      ; call occurs [#_PWM_disableChopping] ; [] |1149| 
    1863                      .dwpsn  file "C:/ti/motorware/motorware_1_01_00_15/sw/modules/hal/boards/hvkit_rev1p1/f28x/f2802x/src
    1864 000000bd 8A83          MOVL      XAR4,*XAR3++          ; [CPU_] |1152| 
    1865              $C$DW$396       .dwtag  DW_TAG_TI_branch
    1866                      .dwattr $C$DW$396, DW_AT_low_pc(0x00)
    1867                      .dwattr $C$DW$396, DW_AT_name("_PWM_disableTripZones")
    1868                      .dwattr $C$DW$396, DW_AT_TI_call
    1869 000000be 7640!         LCR       #_PWM_disableTripZones ; [CPU_] |1152| 
         000000bf 0000 
    1870                      ; call occurs [#_PWM_disableTripZones] ; [] |1152| 
    1871                      .dwpsn  file "C:/ti/motorware/motorware_1_01_00_15/sw/modules/hal/boards/hvkit_rev1p1/f28x/f2802x/src
    1872 000000c0 000A          BANZ      $C$L1,AR2--           ; [CPU_] |1107| 
         000000c1 FFA4 
    1873                      ; branchcc occurs ; [] |1107| 
    1874                      .dwpsn  file "C:/ti/motorware/motorware_1_01_00_15/sw/modules/hal/boards/hvkit_rev1p1/f28x/f2802x/src
    1875 000000c2 D07C          MOVB      XAR0,#124             ; [CPU_] |1157| 
    1876 000000c3 8A91          MOVL      XAR4,*+XAR1[AR0]      ; [CPU_] |1157| 
    1877              $C$DW$397       .dwtag  DW_TAG_TI_branch
    1878                      .dwattr $C$DW$397, DW_AT_low_pc(0x00)
    1879                      .dwattr $C$DW$397, DW_AT_name("_PWM_disableInt")
    1880                      .dwattr $C$DW$397, DW_AT_TI_call
    1881 000000c4 7640!         LCR       #_PWM_disableInt      ; [CPU_] |1157| 
         000000c5 0000 
TMS320C2000 Assembler PC v6.4.9 Wed Dec 02 17:22:54 2015

Tools Copyright (c) 1996-2015 Texas Instruments Incorporated
C:\Users\ywcheng\AppData\Local\Temp\6082010                          PAGE   36

    1882                      ; call occurs [#_PWM_disableInt] ; [] |1157| 
    1883                      .dwpsn  file "C:/ti/motorware/motorware_1_01_00_15/sw/modules/hal/boards/hvkit_rev1p1/f28x/f2802x/src
    1884 000000c6 D07C          MOVB      XAR0,#124             ; [CPU_] |1158| 
    1885 000000c7 9A01          MOVB      AL,#1                 ; [CPU_] |1158| 
    1886 000000c8 8A91          MOVL      XAR4,*+XAR1[AR0]      ; [CPU_] |1158| 
    1887              $C$DW$398       .dwtag  DW_TAG_TI_branch
    1888                      .dwattr $C$DW$398, DW_AT_low_pc(0x00)
    1889                      .dwattr $C$DW$398, DW_AT_name("_PWM_setSocAPulseSrc")
    1890                      .dwattr $C$DW$398, DW_AT_TI_call
    1891 000000c9 7640!         LCR       #_PWM_setSocAPulseSrc ; [CPU_] |1158| 
         000000ca 0000 
    1892                      ; call occurs [#_PWM_setSocAPulseSrc] ; [] |1158| 
    1893                      .dwpsn  file "C:/ti/motorware/motorware_1_01_00_15/sw/modules/hal/boards/hvkit_rev1p1/f28x/f2802x/src
    1894 000000cb D07C          MOVB      XAR0,#124             ; [CPU_] |1159| 
    1895 000000cc 8A91          MOVL      XAR4,*+XAR1[AR0]      ; [CPU_] |1159| 
    1896              $C$DW$399       .dwtag  DW_TAG_TI_branch
    1897                      .dwattr $C$DW$399, DW_AT_low_pc(0x00)
    1898                      .dwattr $C$DW$399, DW_AT_name("_PWM_enableSocAPulse")
    1899                      .dwattr $C$DW$399, DW_AT_TI_call
    1900 000000cd 7640!         LCR       #_PWM_enableSocAPulse ; [CPU_] |1159| 
         000000ce 0000 
    1901                      ; call occurs [#_PWM_enableSocAPulse] ; [] |1159| 
    1902 000000cf 9243          MOV       AL,*-SP[3]            ; [CPU_] |1159| 
    1903                      .dwpsn  file "C:/ti/motorware/motorware_1_01_00_15/sw/modules/hal/boards/hvkit_rev1p1/f28x/f2802x/src
    1904 000000d0 5203          CMPB      AL,#3                 ; [CPU_] |1163| 
    1905 000000d1 EC11          BF        $C$L3,EQ              ; [CPU_] |1163| 
    1906                      ; branchcc occurs ; [] |1163| 
    1907                      .dwpsn  file "C:/ti/motorware/motorware_1_01_00_15/sw/modules/hal/boards/hvkit_rev1p1/f28x/f2802x/src
    1908 000000d2 5202          CMPB      AL,#2                 ; [CPU_] |1168| 
    1909 000000d3 EC08          BF        $C$L2,EQ              ; [CPU_] |1168| 
    1910                      ; branchcc occurs ; [] |1168| 
    1911                      .dwpsn  file "C:/ti/motorware/motorware_1_01_00_15/sw/modules/hal/boards/hvkit_rev1p1/f28x/f2802x/src
    1912 000000d4 D07C          MOVB      XAR0,#124             ; [CPU_] |1175| 
    1913 000000d5 9A01          MOVB      AL,#1                 ; [CPU_] |1175| 
    1914 000000d6 8A91          MOVL      XAR4,*+XAR1[AR0]      ; [CPU_] |1175| 
    1915              $C$DW$400       .dwtag  DW_TAG_TI_branch
    1916                      .dwattr $C$DW$400, DW_AT_low_pc(0x00)
    1917                      .dwattr $C$DW$400, DW_AT_name("_PWM_setIntPeriod")
    1918                      .dwattr $C$DW$400, DW_AT_TI_call
    1919 000000d7 7640!         LCR       #_PWM_setIntPeriod    ; [CPU_] |1175| 
         000000d8 0000 
    1920                      ; call occurs [#_PWM_setIntPeriod] ; [] |1175| 
    1921                      .dwpsn  file "C:/ti/motorware/motorware_1_01_00_15/sw/modules/hal/boards/hvkit_rev1p1/f28x/f2802x/src
    1922 000000d9 9A01          MOVB      AL,#1                 ; [CPU_] |1176| 
    1923 000000da 6F0E          B         $C$L4,UNC             ; [CPU_] |1176| 
    1924                      ; branch occurs ; [] |1176| 
    1925 000000db       $C$L2:    
    1926                      .dwpsn  file "C:/ti/motorware/motorware_1_01_00_15/sw/modules/hal/boards/hvkit_rev1p1/f28x/f2802x/src
    1927 000000db D07C          MOVB      XAR0,#124             ; [CPU_] |1170| 
    1928 000000dc 9A02          MOVB      AL,#2                 ; [CPU_] |1170| 
    1929 000000dd 8A91          MOVL      XAR4,*+XAR1[AR0]      ; [CPU_] |1170| 
    1930              $C$DW$401       .dwtag  DW_TAG_TI_branch
    1931                      .dwattr $C$DW$401, DW_AT_low_pc(0x00)
    1932                      .dwattr $C$DW$401, DW_AT_name("_PWM_setIntPeriod")
    1933                      .dwattr $C$DW$401, DW_AT_TI_call
TMS320C2000 Assembler PC v6.4.9 Wed Dec 02 17:22:54 2015

Tools Copyright (c) 1996-2015 Texas Instruments Incorporated
C:\Users\ywcheng\AppData\Local\Temp\6082010                          PAGE   37

    1934 000000de 7640!         LCR       #_PWM_setIntPeriod    ; [CPU_] |1170| 
         000000df 0000 
    1935                      ; call occurs [#_PWM_setIntPeriod] ; [] |1170| 
    1936                      .dwpsn  file "C:/ti/motorware/motorware_1_01_00_15/sw/modules/hal/boards/hvkit_rev1p1/f28x/f2802x/src
    1937 000000e0 9A02          MOVB      AL,#2                 ; [CPU_] |1171| 
    1938                      .dwpsn  file "C:/ti/motorware/motorware_1_01_00_15/sw/modules/hal/boards/hvkit_rev1p1/f28x/f2802x/src
    1939 000000e1 6F07          B         $C$L4,UNC             ; [CPU_] |1172| 
    1940                      ; branch occurs ; [] |1172| 
    1941 000000e2       $C$L3:    
    1942                      .dwpsn  file "C:/ti/motorware/motorware_1_01_00_15/sw/modules/hal/boards/hvkit_rev1p1/f28x/f2802x/src
    1943 000000e2 D07C          MOVB      XAR0,#124             ; [CPU_] |1165| 
    1944 000000e3 9A03          MOVB      AL,#3                 ; [CPU_] |1165| 
    1945 000000e4 8A91          MOVL      XAR4,*+XAR1[AR0]      ; [CPU_] |1165| 
    1946              $C$DW$402       .dwtag  DW_TAG_TI_branch
    1947                      .dwattr $C$DW$402, DW_AT_low_pc(0x00)
    1948                      .dwattr $C$DW$402, DW_AT_name("_PWM_setIntPeriod")
    1949                      .dwattr $C$DW$402, DW_AT_TI_call
    1950 000000e5 7640!         LCR       #_PWM_setIntPeriod    ; [CPU_] |1165| 
         000000e6 0000 
    1951                      ; call occurs [#_PWM_setIntPeriod] ; [] |1165| 
    1952                      .dwpsn  file "C:/ti/motorware/motorware_1_01_00_15/sw/modules/hal/boards/hvkit_rev1p1/f28x/f2802x/src
    1953 000000e7 9A03          MOVB      AL,#3                 ; [CPU_] |1166| 
    1954 000000e8       $C$L4:    
    1955 000000e8 D07C          MOVB      XAR0,#124             ; [CPU_] |1166| 
    1956 000000e9 8A91          MOVL      XAR4,*+XAR1[AR0]      ; [CPU_] |1166| 
    1957              $C$DW$403       .dwtag  DW_TAG_TI_branch
    1958                      .dwattr $C$DW$403, DW_AT_low_pc(0x00)
    1959                      .dwattr $C$DW$403, DW_AT_name("_PWM_setSocAPeriod")
    1960                      .dwattr $C$DW$403, DW_AT_TI_call
    1961 000000ea 7640!         LCR       #_PWM_setSocAPeriod   ; [CPU_] |1166| 
         000000eb 0000 
    1962                      ; call occurs [#_PWM_setSocAPeriod] ; [] |1166| 
    1963                      .dwpsn  file "C:/ti/motorware/motorware_1_01_00_15/sw/drivers/pwm/src/32b/f28x/f2802x/pwm.h",line 935
    1964 000000ec D07C          MOVB      XAR0,#124             ; [CPU_] |935| 
    1965 000000ed 021C          MOVB      ACC,#28               ; [CPU_] |935| 
    1966 000000ee 0791          ADDL      ACC,*+XAR1[AR0]       ; [CPU_] |935| 
    1967 000000ef 8AA9          MOVL      XAR4,ACC              ; [CPU_] |935| 
    1968                      .dwpsn  file "C:/ti/motorware/motorware_1_01_00_15/sw/drivers/pwm/src/32b/f28x/f2802x/pwm.h",line 967
    1969 000000f0 D07C          MOVB      XAR0,#124             ; [CPU_] |967| 
    1970 000000f1 021C          MOVB      ACC,#28               ; [CPU_] |967| 
    1971                      .dwpsn  file "C:/ti/motorware/motorware_1_01_00_15/sw/drivers/pwm/src/32b/f28x/f2802x/pwm.h",line 935
    1972 000000f2 56BF          MOVB      *+XAR4[0],#1,UNC      ; [CPU_] |935| 
         000000f3 01C4 
    1973                      .dwpsn  file "C:/ti/motorware/motorware_1_01_00_15/sw/drivers/pwm/src/32b/f28x/f2802x/pwm.h",line 967
    1974 000000f4 0791          ADDL      ACC,*+XAR1[AR0]       ; [CPU_] |967| 
    1975 000000f5 8AA9          MOVL      XAR4,ACC              ; [CPU_] |967| 
    1976 000000f6 56BF          MOVB      *+XAR4[0],#4,UNC      ; [CPU_] |967| 
         000000f7 04C4 
    1977                      .dwpsn  file "C:/ti/motorware/motorware_1_01_00_15/sw/modules/hal/boards/hvkit_rev1p1/f28x/f2802x/src
    1978 000000f8 8AD1          MOVL      XAR4,*+XAR1[2]        ; [CPU_] |1185| 
    1979              $C$DW$404       .dwtag  DW_TAG_TI_branch
    1980                      .dwattr $C$DW$404, DW_AT_low_pc(0x00)
    1981                      .dwattr $C$DW$404, DW_AT_name("_CLK_disableTbClockSync")
    1982                      .dwattr $C$DW$404, DW_AT_TI_call
    1983 000000f9 7640!         LCR       #_CLK_disableTbClockSync ; [CPU_] |1185| 
TMS320C2000 Assembler PC v6.4.9 Wed Dec 02 17:22:54 2015

Tools Copyright (c) 1996-2015 Texas Instruments Incorporated
C:\Users\ywcheng\AppData\Local\Temp\6082010                          PAGE   38

         000000fa 0000 
    1984                      ; call occurs [#_CLK_disableTbClockSync] ; [] |1185| 
    1985                      .dwpsn  file "C:/ti/motorware/motorware_1_01_00_15/sw/modules/hal/boards/hvkit_rev1p1/f28x/f2802x/src
    1986 000000fb 5A44          MOVZ      AR2,*-SP[4]           ; [CPU_] |1189| 
    1987 000000fc D07C          MOVB      XAR0,#124             ; [CPU_] |1189| 
    1988 000000fd 8A91          MOVL      XAR4,*+XAR1[AR0]      ; [CPU_] |1189| 
    1989 000000fe 92A2          MOV       AL,AR2                ; [CPU_] |1189| 
    1990              $C$DW$405       .dwtag  DW_TAG_TI_branch
    1991                      .dwattr $C$DW$405, DW_AT_low_pc(0x00)
    1992                      .dwattr $C$DW$405, DW_AT_name("_PWM_setPeriod")
    1993                      .dwattr $C$DW$405, DW_AT_TI_call
    1994 000000ff 7640!         LCR       #_PWM_setPeriod       ; [CPU_] |1189| 
         00000100 0000 
    1995                      ; call occurs [#_PWM_setPeriod] ; [] |1189| 
    1996                      .dwpsn  file "C:/ti/motorware/motorware_1_01_00_15/sw/modules/hal/boards/hvkit_rev1p1/f28x/f2802x/src
    1997 00000101 D07E          MOVB      XAR0,#126             ; [CPU_] |1190| 
    1998 00000102 92A2          MOV       AL,AR2                ; [CPU_] |1190| 
    1999 00000103 8A91          MOVL      XAR4,*+XAR1[AR0]      ; [CPU_] |1190| 
    2000              $C$DW$406       .dwtag  DW_TAG_TI_branch
    2001                      .dwattr $C$DW$406, DW_AT_low_pc(0x00)
    2002                      .dwattr $C$DW$406, DW_AT_name("_PWM_setPeriod")
    2003                      .dwattr $C$DW$406, DW_AT_TI_call
    2004 00000104 7640!         LCR       #_PWM_setPeriod       ; [CPU_] |1190| 
         00000105 0000 
    2005                      ; call occurs [#_PWM_setPeriod] ; [] |1190| 
    2006                      .dwpsn  file "C:/ti/motorware/motorware_1_01_00_15/sw/modules/hal/boards/hvkit_rev1p1/f28x/f2802x/src
    2007 00000106 D080          MOVB      XAR0,#128             ; [CPU_] |1191| 
    2008 00000107 92A2          MOV       AL,AR2                ; [CPU_] |1191| 
    2009 00000108 8A91          MOVL      XAR4,*+XAR1[AR0]      ; [CPU_] |1191| 
    2010              $C$DW$407       .dwtag  DW_TAG_TI_branch
    2011                      .dwattr $C$DW$407, DW_AT_low_pc(0x00)
    2012                      .dwattr $C$DW$407, DW_AT_name("_PWM_setPeriod")
    2013                      .dwattr $C$DW$407, DW_AT_TI_call
    2014 00000109 7640!         LCR       #_PWM_setPeriod       ; [CPU_] |1191| 
         0000010a 0000 
    2015                      ; call occurs [#_PWM_setPeriod] ; [] |1191| 
    2016                      .dwpsn  file "C:/ti/motorware/motorware_1_01_00_15/sw/modules/hal/boards/hvkit_rev1p1/f28x/f2802x/src
    2017 0000010b 8AD1          MOVL      XAR4,*+XAR1[2]        ; [CPU_] |1194| 
    2018              $C$DW$408       .dwtag  DW_TAG_TI_branch
    2019                      .dwattr $C$DW$408, DW_AT_low_pc(0x00)
    2020                      .dwattr $C$DW$408, DW_AT_name("_CLK_enableTbClockSync")
    2021                      .dwattr $C$DW$408, DW_AT_TI_call
    2022 0000010c 7640!         LCR       #_CLK_enableTbClockSync ; [CPU_] |1194| 
         0000010d 0000 
    2023                      ; call occurs [#_CLK_enableTbClockSync] ; [] |1194| 
    2024 0000010e FE84          SUBB      SP,#4                 ; [CPU_U] 
    2025                      .dwcfi  cfa_offset, -8
    2026 0000010f 82BE          MOVL      XAR3,*--SP            ; [CPU_] 
    2027                      .dwcfi  cfa_offset, -6
    2028                      .dwcfi  restore_reg, 11
    2029 00000110 86BE          MOVL      XAR2,*--SP            ; [CPU_] 
    2030                      .dwcfi  cfa_offset, -4
    2031                      .dwcfi  restore_reg, 9
    2032 00000111 8BBE          MOVL      XAR1,*--SP            ; [CPU_] 
    2033                      .dwcfi  cfa_offset, -2
TMS320C2000 Assembler PC v6.4.9 Wed Dec 02 17:22:54 2015

Tools Copyright (c) 1996-2015 Texas Instruments Incorporated
C:\Users\ywcheng\AppData\Local\Temp\6082010                          PAGE   39

    2034                      .dwcfi  restore_reg, 7
    2035              $C$DW$409       .dwtag  DW_TAG_TI_branch
    2036                      .dwattr $C$DW$409, DW_AT_low_pc(0x00)
    2037                      .dwattr $C$DW$409, DW_AT_TI_return
    2038 00000112 0006          LRETR     ; [CPU_] 
    2039                      ; return occurs ; [] 
    2040                      .dwattr $C$DW$363, DW_AT_TI_end_file("C:/ti/motorware/motorware_1_01_00_15/sw/modules/hal/boards/hvki
    2041                      .dwattr $C$DW$363, DW_AT_TI_end_line(0x4ad)
    2042                      .dwattr $C$DW$363, DW_AT_TI_end_column(0x01)
    2043                      .dwendentry
    2044                      .dwendtag $C$DW$363
    2045              
    2046 00000113               .sect   ".text"
    2047                      .clink
    2048                      .global _HAL_setupPll
    2049              
    2050              $C$DW$410       .dwtag  DW_TAG_subprogram, DW_AT_name("HAL_setupPll")
    2051                      .dwattr $C$DW$410, DW_AT_low_pc(_HAL_setupPll)
    2052                      .dwattr $C$DW$410, DW_AT_high_pc(0x00)
    2053                      .dwattr $C$DW$410, DW_AT_TI_symbol_name("_HAL_setupPll")
    2054                      .dwattr $C$DW$410, DW_AT_external
    2055                      .dwattr $C$DW$410, DW_AT_TI_begin_file("C:/ti/motorware/motorware_1_01_00_15/sw/modules/hal/boards/hv
    2056                      .dwattr $C$DW$410, DW_AT_TI_begin_line(0x412)
    2057                      .dwattr $C$DW$410, DW_AT_TI_begin_column(0x06)
    2058                      .dwattr $C$DW$410, DW_AT_TI_max_frame_size(-6)
    2059                      .dwpsn  file "C:/ti/motorware/motorware_1_01_00_15/sw/modules/hal/boards/hvkit_rev1p1/f28x/f2802x/src
    2060              
    2061                      .dwfde $C$DW$CIE, _HAL_setupPll
    2062              $C$DW$411       .dwtag  DW_TAG_formal_parameter, DW_AT_name("handle")
    2063                      .dwattr $C$DW$411, DW_AT_TI_symbol_name("_handle")
    2064                      .dwattr $C$DW$411, DW_AT_type(*$C$DW$T$295)
    2065                      .dwattr $C$DW$411, DW_AT_location[DW_OP_reg12]
    2066              $C$DW$412       .dwtag  DW_TAG_formal_parameter, DW_AT_name("clkFreq")
    2067                      .dwattr $C$DW$412, DW_AT_TI_symbol_name("_clkFreq")
    2068                      .dwattr $C$DW$412, DW_AT_type(*$C$DW$T$247)
    2069                      .dwattr $C$DW$412, DW_AT_location[DW_OP_reg0]
    2070              
    2071              ;***************************************************************
    2072              ;* FNAME: _HAL_setupPll                 FR SIZE:   4           *
    2073              ;*                                                             *
    2074              ;* FUNCTION ENVIRONMENT                                        *
    2075              ;*                                                             *
    2076              ;* FUNCTION PROPERTIES                                         *
    2077              ;*                            0 Parameter,  0 Auto,  4 SOE     *
    2078              ;***************************************************************
    2079              
    2080              _HAL_setupPll:
    2081              ;* AR1   assigned to _clkFreq
    2082              $C$DW$413       .dwtag  DW_TAG_variable, DW_AT_name("clkFreq")
    2083                      .dwattr $C$DW$413, DW_AT_TI_symbol_name("_clkFreq")
    2084                      .dwattr $C$DW$413, DW_AT_type(*$C$DW$T$247)
    2085                      .dwattr $C$DW$413, DW_AT_location[DW_OP_reg6]
    2086              ;* AR2   assigned to _handle
    2087              $C$DW$414       .dwtag  DW_TAG_variable, DW_AT_name("handle")
    2088                      .dwattr $C$DW$414, DW_AT_TI_symbol_name("_handle")
TMS320C2000 Assembler PC v6.4.9 Wed Dec 02 17:22:54 2015

Tools Copyright (c) 1996-2015 Texas Instruments Incorporated
C:\Users\ywcheng\AppData\Local\Temp\6082010                          PAGE   40

    2089                      .dwattr $C$DW$414, DW_AT_type(*$C$DW$T$296)
    2090                      .dwattr $C$DW$414, DW_AT_location[DW_OP_reg8]
    2091                      .dwcfi  cfa_offset, -2
    2092                      .dwcfi  save_reg_to_mem, 26, 0
    2093 00000113 B2BD          MOVL      *SP++,XAR1            ; [CPU_] 
    2094                      .dwcfi  save_reg_to_mem, 7, 2
    2095                      .dwcfi  cfa_offset, -4
    2096 00000114 AABD          MOVL      *SP++,XAR2            ; [CPU_] 
    2097                      .dwcfi  save_reg_to_mem, 9, 4
    2098                      .dwcfi  cfa_offset, -6
    2099 00000115 86A4          MOVL      XAR2,XAR4             ; [CPU_] |1043| 
    2100                      .dwpsn  file "C:/ti/motorware/motorware_1_01_00_15/sw/modules/hal/boards/hvkit_rev1p1/f28x/f2802x/src
    2101 00000116 D07A          MOVB      XAR0,#122             ; [CPU_] |1048| 
    2102                      .dwpsn  file "C:/ti/motorware/motorware_1_01_00_15/sw/modules/hal/boards/hvkit_rev1p1/f28x/f2802x/src
    2103 00000117 59A9          MOVZ      AR1,AL                ; [CPU_] |1043| 
    2104                      .dwpsn  file "C:/ti/motorware/motorware_1_01_00_15/sw/modules/hal/boards/hvkit_rev1p1/f28x/f2802x/src
    2105 00000118 8A92          MOVL      XAR4,*+XAR2[AR0]      ; [CPU_] |1048| 
    2106              $C$DW$415       .dwtag  DW_TAG_TI_branch
    2107                      .dwattr $C$DW$415, DW_AT_low_pc(0x00)
    2108                      .dwattr $C$DW$415, DW_AT_name("_PLL_getClkStatus")
    2109                      .dwattr $C$DW$415, DW_AT_TI_call
    2110 00000119 7640!         LCR       #_PLL_getClkStatus    ; [CPU_] |1048| 
         0000011a 0000 
    2111                      ; call occurs [#_PLL_getClkStatus] ; [] |1048| 
    2112 0000011b 5200          CMPB      AL,#0                 ; [CPU_] |1048| 
    2113 0000011c EC06          BF        $C$L5,EQ              ; [CPU_] |1048| 
    2114                      ; branchcc occurs ; [] |1048| 
    2115                      .dwpsn  file "C:/ti/motorware/motorware_1_01_00_15/sw/modules/hal/boards/hvkit_rev1p1/f28x/f2802x/src
    2116 0000011d D07A          MOVB      XAR0,#122             ; [CPU_] |1051| 
    2117 0000011e 8A92          MOVL      XAR4,*+XAR2[AR0]      ; [CPU_] |1051| 
    2118              $C$DW$416       .dwtag  DW_TAG_TI_branch
    2119                      .dwattr $C$DW$416, DW_AT_low_pc(0x00)
    2120                      .dwattr $C$DW$416, DW_AT_name("_PLL_resetClkDetect")
    2121                      .dwattr $C$DW$416, DW_AT_TI_call
    2122 0000011f 7640!         LCR       #_PLL_resetClkDetect  ; [CPU_] |1051| 
         00000120 0000 
    2123                      ; call occurs [#_PLL_resetClkDetect] ; [] |1051| 
    2124 00000121 7625          ESTOP0
    2125 00000122       $C$L5:    
    2126                      .dwpsn  file "C:/ti/motorware/motorware_1_01_00_15/sw/modules/hal/boards/hvkit_rev1p1/f28x/f2802x/src
    2127 00000122 D07A          MOVB      XAR0,#122             ; [CPU_] |1059| 
    2128 00000123 FF69          SPM       #0                    ; [CPU_] 
    2129 00000124 8A92          MOVL      XAR4,*+XAR2[AR0]      ; [CPU_] |1059| 
    2130              $C$DW$417       .dwtag  DW_TAG_TI_branch
    2131                      .dwattr $C$DW$417, DW_AT_low_pc(0x00)
    2132                      .dwattr $C$DW$417, DW_AT_name("_PLL_getDivideSelect")
    2133                      .dwattr $C$DW$417, DW_AT_TI_call
    2134 00000125 7640!         LCR       #_PLL_getDivideSelect ; [CPU_] |1059| 
         00000126 0000 
    2135                      ; call occurs [#_PLL_getDivideSelect] ; [] |1059| 
    2136 00000127 5200          CMPB      AL,#0                 ; [CPU_] |1059| 
    2137 00000128 EC06          BF        $C$L6,EQ              ; [CPU_] |1059| 
    2138                      ; branchcc occurs ; [] |1059| 
    2139                      .dwpsn  file "C:/ti/motorware/motorware_1_01_00_15/sw/modules/hal/boards/hvkit_rev1p1/f28x/f2802x/src
    2140 00000129 D07A          MOVB      XAR0,#122             ; [CPU_] |1061| 
TMS320C2000 Assembler PC v6.4.9 Wed Dec 02 17:22:54 2015

Tools Copyright (c) 1996-2015 Texas Instruments Incorporated
C:\Users\ywcheng\AppData\Local\Temp\6082010                          PAGE   41

    2141 0000012a 9A00          MOVB      AL,#0                 ; [CPU_] |1061| 
    2142 0000012b 8A92          MOVL      XAR4,*+XAR2[AR0]      ; [CPU_] |1061| 
    2143              $C$DW$418       .dwtag  DW_TAG_TI_branch
    2144                      .dwattr $C$DW$418, DW_AT_low_pc(0x00)
    2145                      .dwattr $C$DW$418, DW_AT_name("_PLL_setDivideSelect")
    2146                      .dwattr $C$DW$418, DW_AT_TI_call
    2147 0000012c 7640!         LCR       #_PLL_setDivideSelect ; [CPU_] |1061| 
         0000012d 0000 
    2148                      ; call occurs [#_PLL_setDivideSelect] ; [] |1061| 
    2149 0000012e       $C$L6:    
    2150                      .dwpsn  file "C:/ti/motorware/motorware_1_01_00_15/sw/modules/hal/boards/hvkit_rev1p1/f28x/f2802x/src
    2151 0000012e D07A          MOVB      XAR0,#122             ; [CPU_] |1065| 
    2152 0000012f 8A92          MOVL      XAR4,*+XAR2[AR0]      ; [CPU_] |1065| 
    2153              $C$DW$419       .dwtag  DW_TAG_TI_branch
    2154                      .dwattr $C$DW$419, DW_AT_low_pc(0x00)
    2155                      .dwattr $C$DW$419, DW_AT_name("_PLL_getClkFreq")
    2156                      .dwattr $C$DW$419, DW_AT_TI_call
    2157 00000130 7640!         LCR       #_PLL_getClkFreq      ; [CPU_] |1065| 
         00000131 0000 
    2158                      ; call occurs [#_PLL_getClkFreq] ; [] |1065| 
    2159 00000132 88A9          MOVZ      AR6,AL                ; [CPU_] |1065| 
    2160 00000133 0EA1          MOVU      ACC,AR1               ; [CPU_] |1065| 
    2161 00000134 0FA6          CMPL      ACC,XAR6              ; [CPU_] |1065| 
    2162 00000135 EC0A          BF        $C$L7,EQ              ; [CPU_] |1065| 
    2163                      ; branchcc occurs ; [] |1065| 
    2164                      .dwpsn  file "C:/ti/motorware/motorware_1_01_00_15/sw/modules/hal/boards/hvkit_rev1p1/f28x/f2802x/src
    2165 00000136 D07A          MOVB      XAR0,#122             ; [CPU_] |1068| 
    2166 00000137 8A92          MOVL      XAR4,*+XAR2[AR0]      ; [CPU_] |1068| 
    2167              $C$DW$420       .dwtag  DW_TAG_TI_branch
    2168                      .dwattr $C$DW$420, DW_AT_low_pc(0x00)
    2169                      .dwattr $C$DW$420, DW_AT_name("_PLL_disableClkDetect")
    2170                      .dwattr $C$DW$420, DW_AT_TI_call
    2171 00000138 7640!         LCR       #_PLL_disableClkDetect ; [CPU_] |1068| 
         00000139 0000 
    2172                      ; call occurs [#_PLL_disableClkDetect] ; [] |1068| 
    2173                      .dwpsn  file "C:/ti/motorware/motorware_1_01_00_15/sw/modules/hal/boards/hvkit_rev1p1/f28x/f2802x/src
    2174 0000013a D07A          MOVB      XAR0,#122             ; [CPU_] |1071| 
    2175 0000013b 92A1          MOV       AL,AR1                ; [CPU_] |1071| 
    2176 0000013c 8A92          MOVL      XAR4,*+XAR2[AR0]      ; [CPU_] |1071| 
    2177              $C$DW$421       .dwtag  DW_TAG_TI_branch
    2178                      .dwattr $C$DW$421, DW_AT_low_pc(0x00)
    2179                      .dwattr $C$DW$421, DW_AT_name("_PLL_setClkFreq")
    2180                      .dwattr $C$DW$421, DW_AT_TI_call
    2181 0000013d 7640!         LCR       #_PLL_setClkFreq      ; [CPU_] |1071| 
         0000013e 0000 
    2182                      ; call occurs [#_PLL_setClkFreq] ; [] |1071| 
    2183 0000013f       $C$L7:    
    2184                      .dwpsn  file "C:/ti/motorware/motorware_1_01_00_15/sw/modules/hal/boards/hvkit_rev1p1/f28x/f2802x/src
    2185 0000013f D07A          MOVB      XAR0,#122             ; [CPU_] |1076| 
    2186 00000140 8A92          MOVL      XAR4,*+XAR2[AR0]      ; [CPU_] |1076| 
    2187              $C$DW$422       .dwtag  DW_TAG_TI_branch
    2188                      .dwattr $C$DW$422, DW_AT_low_pc(0x00)
    2189                      .dwattr $C$DW$422, DW_AT_name("_PLL_getLockStatus")
    2190                      .dwattr $C$DW$422, DW_AT_TI_call
    2191 00000141 7640!         LCR       #_PLL_getLockStatus   ; [CPU_] |1076| 
TMS320C2000 Assembler PC v6.4.9 Wed Dec 02 17:22:54 2015

Tools Copyright (c) 1996-2015 Texas Instruments Incorporated
C:\Users\ywcheng\AppData\Local\Temp\6082010                          PAGE   42

         00000142 0000 
    2192                      ; call occurs [#_PLL_getLockStatus] ; [] |1076| 
    2193 00000143 5200          CMPB      AL,#0                 ; [CPU_] |1076| 
    2194 00000144 ECFB          BF        $C$L7,EQ              ; [CPU_] |1076| 
    2195                      ; branchcc occurs ; [] |1076| 
    2196                      .dwpsn  file "C:/ti/motorware/motorware_1_01_00_15/sw/modules/hal/boards/hvkit_rev1p1/f28x/f2802x/src
    2197 00000145 D07A          MOVB      XAR0,#122             ; [CPU_] |1080| 
    2198 00000146 8A92          MOVL      XAR4,*+XAR2[AR0]      ; [CPU_] |1080| 
    2199              $C$DW$423       .dwtag  DW_TAG_TI_branch
    2200                      .dwattr $C$DW$423, DW_AT_low_pc(0x00)
    2201                      .dwattr $C$DW$423, DW_AT_name("_PLL_enableClkDetect")
    2202                      .dwattr $C$DW$423, DW_AT_TI_call
    2203 00000147 7640!         LCR       #_PLL_enableClkDetect ; [CPU_] |1080| 
         00000148 0000 
    2204                      ; call occurs [#_PLL_enableClkDetect] ; [] |1080| 
    2205                      .dwpsn  file "C:/ti/motorware/motorware_1_01_00_15/sw/modules/hal/boards/hvkit_rev1p1/f28x/f2802x/src
    2206 00000149 D07A          MOVB      XAR0,#122             ; [CPU_] |1085| 
    2207 0000014a 28A9          MOV       AL,#256               ; [CPU_] |1085| 
         0000014b 0100 
    2208 0000014c 8A92          MOVL      XAR4,*+XAR2[AR0]      ; [CPU_] |1085| 
    2209              $C$DW$424       .dwtag  DW_TAG_TI_branch
    2210                      .dwattr $C$DW$424, DW_AT_low_pc(0x00)
    2211                      .dwattr $C$DW$424, DW_AT_name("_PLL_setDivideSelect")
    2212                      .dwattr $C$DW$424, DW_AT_TI_call
    2213 0000014d 7640!         LCR       #_PLL_setDivideSelect ; [CPU_] |1085| 
         0000014e 0000 
    2214                      ; call occurs [#_PLL_setDivideSelect] ; [] |1085| 
    2215 0000014f 86BE          MOVL      XAR2,*--SP            ; [CPU_] 
    2216                      .dwcfi  cfa_offset, -4
    2217                      .dwcfi  restore_reg, 9
    2218 00000150 8BBE          MOVL      XAR1,*--SP            ; [CPU_] 
    2219                      .dwcfi  cfa_offset, -2
    2220                      .dwcfi  restore_reg, 7
    2221              $C$DW$425       .dwtag  DW_TAG_TI_branch
    2222                      .dwattr $C$DW$425, DW_AT_low_pc(0x00)
    2223                      .dwattr $C$DW$425, DW_AT_TI_return
    2224 00000151 0006          LRETR     ; [CPU_] 
    2225                      ; return occurs ; [] 
    2226                      .dwattr $C$DW$410, DW_AT_TI_end_file("C:/ti/motorware/motorware_1_01_00_15/sw/modules/hal/boards/hvki
    2227                      .dwattr $C$DW$410, DW_AT_TI_end_line(0x440)
    2228                      .dwattr $C$DW$410, DW_AT_TI_end_column(0x01)
    2229                      .dwendentry
    2230                      .dwendtag $C$DW$410
    2231              
    2232 00000152               .sect   ".text"
    2233                      .clink
    2234                      .global _HAL_setupPie
    2235              
    2236              $C$DW$426       .dwtag  DW_TAG_subprogram, DW_AT_name("HAL_setupPie")
    2237                      .dwattr $C$DW$426, DW_AT_low_pc(_HAL_setupPie)
    2238                      .dwattr $C$DW$426, DW_AT_high_pc(0x00)
    2239                      .dwattr $C$DW$426, DW_AT_TI_symbol_name("_HAL_setupPie")
    2240                      .dwattr $C$DW$426, DW_AT_external
    2241                      .dwattr $C$DW$426, DW_AT_TI_begin_file("C:/ti/motorware/motorware_1_01_00_15/sw/modules/hal/boards/hv
    2242                      .dwattr $C$DW$426, DW_AT_TI_begin_line(0x3dd)
TMS320C2000 Assembler PC v6.4.9 Wed Dec 02 17:22:54 2015

Tools Copyright (c) 1996-2015 Texas Instruments Incorporated
C:\Users\ywcheng\AppData\Local\Temp\6082010                          PAGE   43

    2243                      .dwattr $C$DW$426, DW_AT_TI_begin_column(0x06)
    2244                      .dwattr $C$DW$426, DW_AT_TI_max_frame_size(-4)
    2245                      .dwpsn  file "C:/ti/motorware/motorware_1_01_00_15/sw/modules/hal/boards/hvkit_rev1p1/f28x/f2802x/src
    2246              
    2247                      .dwfde $C$DW$CIE, _HAL_setupPie
    2248              $C$DW$427       .dwtag  DW_TAG_formal_parameter, DW_AT_name("handle")
    2249                      .dwattr $C$DW$427, DW_AT_TI_symbol_name("_handle")
    2250                      .dwattr $C$DW$427, DW_AT_type(*$C$DW$T$295)
    2251                      .dwattr $C$DW$427, DW_AT_location[DW_OP_reg12]
    2252              
    2253              ;***************************************************************
    2254              ;* FNAME: _HAL_setupPie                 FR SIZE:   2           *
    2255              ;*                                                             *
    2256              ;* FUNCTION ENVIRONMENT                                        *
    2257              ;*                                                             *
    2258              ;* FUNCTION PROPERTIES                                         *
    2259              ;*                            0 Parameter,  0 Auto,  2 SOE     *
    2260              ;***************************************************************
    2261              
    2262              _HAL_setupPie:
    2263              ;* AR1   assigned to _handle
    2264              $C$DW$428       .dwtag  DW_TAG_variable, DW_AT_name("handle")
    2265                      .dwattr $C$DW$428, DW_AT_TI_symbol_name("_handle")
    2266                      .dwattr $C$DW$428, DW_AT_type(*$C$DW$T$296)
    2267                      .dwattr $C$DW$428, DW_AT_location[DW_OP_reg6]
    2268                      .dwcfi  cfa_offset, -2
    2269                      .dwcfi  save_reg_to_mem, 26, 0
    2270 00000152 B2BD          MOVL      *SP++,XAR1            ; [CPU_] 
    2271                      .dwcfi  save_reg_to_mem, 7, 2
    2272                      .dwcfi  cfa_offset, -4
    2273 00000153 8BA4          MOVL      XAR1,XAR4             ; [CPU_] |990| 
    2274                      .dwpsn  file "C:/ti/motorware/motorware_1_01_00_15/sw/modules/hal/boards/hvkit_rev1p1/f28x/f2802x/src
    2275 00000154 D078          MOVB      XAR0,#120             ; [CPU_] |994| 
    2276 00000155 8A91          MOVL      XAR4,*+XAR1[AR0]      ; [CPU_] |994| 
    2277              $C$DW$429       .dwtag  DW_TAG_TI_branch
    2278                      .dwattr $C$DW$429, DW_AT_low_pc(0x00)
    2279                      .dwattr $C$DW$429, DW_AT_name("_PIE_disable")
    2280                      .dwattr $C$DW$429, DW_AT_TI_call
    2281 00000156 7640!         LCR       #_PIE_disable         ; [CPU_] |994| 
         00000157 0000 
    2282                      ; call occurs [#_PIE_disable] ; [] |994| 
    2283                      .dwpsn  file "C:/ti/motorware/motorware_1_01_00_15/sw/modules/hal/boards/hvkit_rev1p1/f28x/f2802x/src
    2284 00000158 D078          MOVB      XAR0,#120             ; [CPU_] |996| 
    2285 00000159 8A91          MOVL      XAR4,*+XAR1[AR0]      ; [CPU_] |996| 
    2286              $C$DW$430       .dwtag  DW_TAG_TI_branch
    2287                      .dwattr $C$DW$430, DW_AT_low_pc(0x00)
    2288                      .dwattr $C$DW$430, DW_AT_name("_PIE_disableAllInts")
    2289                      .dwattr $C$DW$430, DW_AT_TI_call
    2290 0000015a 7640!         LCR       #_PIE_disableAllInts  ; [CPU_] |996| 
         0000015b 0000 
    2291                      ; call occurs [#_PIE_disableAllInts] ; [] |996| 
    2292                      .dwpsn  file "C:/ti/motorware/motorware_1_01_00_15/sw/modules/hal/boards/hvkit_rev1p1/f28x/f2802x/src
    2293 0000015c D078          MOVB      XAR0,#120             ; [CPU_] |998| 
    2294 0000015d 8A91          MOVL      XAR4,*+XAR1[AR0]      ; [CPU_] |998| 
    2295              $C$DW$431       .dwtag  DW_TAG_TI_branch
TMS320C2000 Assembler PC v6.4.9 Wed Dec 02 17:22:54 2015

Tools Copyright (c) 1996-2015 Texas Instruments Incorporated
C:\Users\ywcheng\AppData\Local\Temp\6082010                          PAGE   44

    2296                      .dwattr $C$DW$431, DW_AT_low_pc(0x00)
    2297                      .dwattr $C$DW$431, DW_AT_name("_PIE_clearAllInts")
    2298                      .dwattr $C$DW$431, DW_AT_TI_call
    2299 0000015e 7640!         LCR       #_PIE_clearAllInts    ; [CPU_] |998| 
         0000015f 0000 
    2300                      ; call occurs [#_PIE_clearAllInts] ; [] |998| 
    2301                      .dwpsn  file "C:/ti/motorware/motorware_1_01_00_15/sw/modules/hal/boards/hvkit_rev1p1/f28x/f2802x/src
    2302 00000160 D078          MOVB      XAR0,#120             ; [CPU_] |1000| 
    2303 00000161 8A91          MOVL      XAR4,*+XAR1[AR0]      ; [CPU_] |1000| 
    2304              $C$DW$432       .dwtag  DW_TAG_TI_branch
    2305                      .dwattr $C$DW$432, DW_AT_low_pc(0x00)
    2306                      .dwattr $C$DW$432, DW_AT_name("_PIE_clearAllFlags")
    2307                      .dwattr $C$DW$432, DW_AT_TI_call
    2308 00000162 7640!         LCR       #_PIE_clearAllFlags   ; [CPU_] |1000| 
         00000163 0000 
    2309                      ; call occurs [#_PIE_clearAllFlags] ; [] |1000| 
    2310                      .dwpsn  file "C:/ti/motorware/motorware_1_01_00_15/sw/modules/hal/boards/hvkit_rev1p1/f28x/f2802x/src
    2311 00000164 D078          MOVB      XAR0,#120             ; [CPU_] |1002| 
    2312 00000165 8A91          MOVL      XAR4,*+XAR1[AR0]      ; [CPU_] |1002| 
    2313              $C$DW$433       .dwtag  DW_TAG_TI_branch
    2314                      .dwattr $C$DW$433, DW_AT_low_pc(0x00)
    2315                      .dwattr $C$DW$433, DW_AT_name("_PIE_setDefaultIntVectorTable")
    2316                      .dwattr $C$DW$433, DW_AT_TI_call
    2317 00000166 7640!         LCR       #_PIE_setDefaultIntVectorTable ; [CPU_] |1002| 
         00000167 0000 
    2318                      ; call occurs [#_PIE_setDefaultIntVectorTable] ; [] |1002| 
    2319                      .dwpsn  file "C:/ti/motorware/motorware_1_01_00_15/sw/modules/hal/boards/hvkit_rev1p1/f28x/f2802x/src
    2320 00000168 D078          MOVB      XAR0,#120             ; [CPU_] |1004| 
    2321 00000169 8A91          MOVL      XAR4,*+XAR1[AR0]      ; [CPU_] |1004| 
    2322              $C$DW$434       .dwtag  DW_TAG_TI_branch
    2323                      .dwattr $C$DW$434, DW_AT_low_pc(0x00)
    2324                      .dwattr $C$DW$434, DW_AT_name("_PIE_enable")
    2325                      .dwattr $C$DW$434, DW_AT_TI_call
    2326 0000016a 7640!         LCR       #_PIE_enable          ; [CPU_] |1004| 
         0000016b 0000 
    2327                      ; call occurs [#_PIE_enable] ; [] |1004| 
    2328 0000016c 8BBE          MOVL      XAR1,*--SP            ; [CPU_] 
    2329                      .dwcfi  cfa_offset, -2
    2330                      .dwcfi  restore_reg, 7
    2331              $C$DW$435       .dwtag  DW_TAG_TI_branch
    2332                      .dwattr $C$DW$435, DW_AT_low_pc(0x00)
    2333                      .dwattr $C$DW$435, DW_AT_TI_return
    2334 0000016d 0006          LRETR     ; [CPU_] 
    2335                      ; return occurs ; [] 
    2336                      .dwattr $C$DW$426, DW_AT_TI_end_file("C:/ti/motorware/motorware_1_01_00_15/sw/modules/hal/boards/hvki
    2337                      .dwattr $C$DW$426, DW_AT_TI_end_line(0x3ef)
    2338                      .dwattr $C$DW$426, DW_AT_TI_end_column(0x01)
    2339                      .dwendentry
    2340                      .dwendtag $C$DW$426
    2341              
    2342 0000016e               .sect   ".text"
    2343                      .clink
    2344                      .global _HAL_setupPeripheralClks
    2345              
    2346              $C$DW$436       .dwtag  DW_TAG_subprogram, DW_AT_name("HAL_setupPeripheralClks")
TMS320C2000 Assembler PC v6.4.9 Wed Dec 02 17:22:54 2015

Tools Copyright (c) 1996-2015 Texas Instruments Incorporated
C:\Users\ywcheng\AppData\Local\Temp\6082010                          PAGE   45

    2347                      .dwattr $C$DW$436, DW_AT_low_pc(_HAL_setupPeripheralClks)
    2348                      .dwattr $C$DW$436, DW_AT_high_pc(0x00)
    2349                      .dwattr $C$DW$436, DW_AT_TI_symbol_name("_HAL_setupPeripheralClks")
    2350                      .dwattr $C$DW$436, DW_AT_external
    2351                      .dwattr $C$DW$436, DW_AT_TI_begin_file("C:/ti/motorware/motorware_1_01_00_15/sw/modules/hal/boards/hv
    2352                      .dwattr $C$DW$436, DW_AT_TI_begin_line(0x3f2)
    2353                      .dwattr $C$DW$436, DW_AT_TI_begin_column(0x06)
    2354                      .dwattr $C$DW$436, DW_AT_TI_max_frame_size(-4)
    2355                      .dwpsn  file "C:/ti/motorware/motorware_1_01_00_15/sw/modules/hal/boards/hvkit_rev1p1/f28x/f2802x/src
    2356              
    2357                      .dwfde $C$DW$CIE, _HAL_setupPeripheralClks
    2358              $C$DW$437       .dwtag  DW_TAG_formal_parameter, DW_AT_name("handle")
    2359                      .dwattr $C$DW$437, DW_AT_TI_symbol_name("_handle")
    2360                      .dwattr $C$DW$437, DW_AT_type(*$C$DW$T$295)
    2361                      .dwattr $C$DW$437, DW_AT_location[DW_OP_reg12]
    2362              
    2363              ;***************************************************************
    2364              ;* FNAME: _HAL_setupPeripheralClks      FR SIZE:   2           *
    2365              ;*                                                             *
    2366              ;* FUNCTION ENVIRONMENT                                        *
    2367              ;*                                                             *
    2368              ;* FUNCTION PROPERTIES                                         *
    2369              ;*                            0 Parameter,  0 Auto,  2 SOE     *
    2370              ;***************************************************************
    2371              
    2372              _HAL_setupPeripheralClks:
    2373              ;* AR1   assigned to _handle
    2374              $C$DW$438       .dwtag  DW_TAG_variable, DW_AT_name("handle")
    2375                      .dwattr $C$DW$438, DW_AT_TI_symbol_name("_handle")
    2376                      .dwattr $C$DW$438, DW_AT_type(*$C$DW$T$296)
    2377                      .dwattr $C$DW$438, DW_AT_location[DW_OP_reg6]
    2378                      .dwcfi  cfa_offset, -2
    2379                      .dwcfi  save_reg_to_mem, 26, 0
    2380 0000016e B2BD          MOVL      *SP++,XAR1            ; [CPU_] 
    2381                      .dwcfi  save_reg_to_mem, 7, 2
    2382                      .dwcfi  cfa_offset, -4
    2383 0000016f 8BA4          MOVL      XAR1,XAR4             ; [CPU_] |1011| 
    2384                      .dwpsn  file "C:/ti/motorware/motorware_1_01_00_15/sw/modules/hal/boards/hvkit_rev1p1/f28x/f2802x/src
    2385 00000170 8AD1          MOVL      XAR4,*+XAR1[2]        ; [CPU_] |1015| 
    2386              $C$DW$439       .dwtag  DW_TAG_TI_branch
    2387                      .dwattr $C$DW$439, DW_AT_low_pc(0x00)
    2388                      .dwattr $C$DW$439, DW_AT_name("_CLK_enableAdcClock")
    2389                      .dwattr $C$DW$439, DW_AT_TI_call
    2390 00000171 7640!         LCR       #_CLK_enableAdcClock  ; [CPU_] |1015| 
         00000172 0000 
    2391                      ; call occurs [#_CLK_enableAdcClock] ; [] |1015| 
    2392                      .dwpsn  file "C:/ti/motorware/motorware_1_01_00_15/sw/modules/hal/boards/hvkit_rev1p1/f28x/f2802x/src
    2393 00000173 9A01          MOVB      AL,#1                 ; [CPU_] |1017| 
    2394 00000174 8AD1          MOVL      XAR4,*+XAR1[2]        ; [CPU_] |1017| 
    2395              $C$DW$440       .dwtag  DW_TAG_TI_branch
    2396                      .dwattr $C$DW$440, DW_AT_low_pc(0x00)
    2397                      .dwattr $C$DW$440, DW_AT_name("_CLK_enableCompClock")
    2398                      .dwattr $C$DW$440, DW_AT_TI_call
    2399 00000175 7640!         LCR       #_CLK_enableCompClock ; [CPU_] |1017| 
         00000176 0000 
TMS320C2000 Assembler PC v6.4.9 Wed Dec 02 17:22:54 2015

Tools Copyright (c) 1996-2015 Texas Instruments Incorporated
C:\Users\ywcheng\AppData\Local\Temp\6082010                          PAGE   46

    2400                      ; call occurs [#_CLK_enableCompClock] ; [] |1017| 
    2401                      .dwpsn  file "C:/ti/motorware/motorware_1_01_00_15/sw/modules/hal/boards/hvkit_rev1p1/f28x/f2802x/src
    2402 00000177 9A02          MOVB      AL,#2                 ; [CPU_] |1018| 
    2403 00000178 8AD1          MOVL      XAR4,*+XAR1[2]        ; [CPU_] |1018| 
    2404              $C$DW$441       .dwtag  DW_TAG_TI_branch
    2405                      .dwattr $C$DW$441, DW_AT_low_pc(0x00)
    2406                      .dwattr $C$DW$441, DW_AT_name("_CLK_enableCompClock")
    2407                      .dwattr $C$DW$441, DW_AT_TI_call
    2408 00000179 7640!         LCR       #_CLK_enableCompClock ; [CPU_] |1018| 
         0000017a 0000 
    2409                      ; call occurs [#_CLK_enableCompClock] ; [] |1018| 
    2410                      .dwpsn  file "C:/ti/motorware/motorware_1_01_00_15/sw/modules/hal/boards/hvkit_rev1p1/f28x/f2802x/src
    2411 0000017b 9A04          MOVB      AL,#4                 ; [CPU_] |1019| 
    2412 0000017c 8AD1          MOVL      XAR4,*+XAR1[2]        ; [CPU_] |1019| 
    2413              $C$DW$442       .dwtag  DW_TAG_TI_branch
    2414                      .dwattr $C$DW$442, DW_AT_low_pc(0x00)
    2415                      .dwattr $C$DW$442, DW_AT_name("_CLK_enableCompClock")
    2416                      .dwattr $C$DW$442, DW_AT_TI_call
    2417 0000017d 7640!         LCR       #_CLK_enableCompClock ; [CPU_] |1019| 
         0000017e 0000 
    2418                      ; call occurs [#_CLK_enableCompClock] ; [] |1019| 
    2419                      .dwpsn  file "C:/ti/motorware/motorware_1_01_00_15/sw/modules/hal/boards/hvkit_rev1p1/f28x/f2802x/src
    2420 0000017f 8AD1          MOVL      XAR4,*+XAR1[2]        ; [CPU_] |1021| 
    2421              $C$DW$443       .dwtag  DW_TAG_TI_branch
    2422                      .dwattr $C$DW$443, DW_AT_low_pc(0x00)
    2423                      .dwattr $C$DW$443, DW_AT_name("_CLK_enableEcap1Clock")
    2424                      .dwattr $C$DW$443, DW_AT_TI_call
    2425 00000180 7640!         LCR       #_CLK_enableEcap1Clock ; [CPU_] |1021| 
         00000181 0000 
    2426                      ; call occurs [#_CLK_enableEcap1Clock] ; [] |1021| 
    2427                      .dwpsn  file "C:/ti/motorware/motorware_1_01_00_15/sw/modules/hal/boards/hvkit_rev1p1/f28x/f2802x/src
    2428 00000182 9A00          MOVB      AL,#0                 ; [CPU_] |1023| 
    2429 00000183 8AD1          MOVL      XAR4,*+XAR1[2]        ; [CPU_] |1023| 
    2430              $C$DW$444       .dwtag  DW_TAG_TI_branch
    2431                      .dwattr $C$DW$444, DW_AT_low_pc(0x00)
    2432                      .dwattr $C$DW$444, DW_AT_name("_CLK_enablePwmClock")
    2433                      .dwattr $C$DW$444, DW_AT_TI_call
    2434 00000184 7640!         LCR       #_CLK_enablePwmClock  ; [CPU_] |1023| 
         00000185 0000 
    2435                      ; call occurs [#_CLK_enablePwmClock] ; [] |1023| 
    2436                      .dwpsn  file "C:/ti/motorware/motorware_1_01_00_15/sw/modules/hal/boards/hvkit_rev1p1/f28x/f2802x/src
    2437 00000186 9A01          MOVB      AL,#1                 ; [CPU_] |1024| 
    2438 00000187 8AD1          MOVL      XAR4,*+XAR1[2]        ; [CPU_] |1024| 
    2439              $C$DW$445       .dwtag  DW_TAG_TI_branch
    2440                      .dwattr $C$DW$445, DW_AT_low_pc(0x00)
    2441                      .dwattr $C$DW$445, DW_AT_name("_CLK_enablePwmClock")
    2442                      .dwattr $C$DW$445, DW_AT_TI_call
    2443 00000188 7640!         LCR       #_CLK_enablePwmClock  ; [CPU_] |1024| 
         00000189 0000 
    2444                      ; call occurs [#_CLK_enablePwmClock] ; [] |1024| 
    2445                      .dwpsn  file "C:/ti/motorware/motorware_1_01_00_15/sw/modules/hal/boards/hvkit_rev1p1/f28x/f2802x/src
    2446 0000018a 9A02          MOVB      AL,#2                 ; [CPU_] |1025| 
    2447 0000018b 8AD1          MOVL      XAR4,*+XAR1[2]        ; [CPU_] |1025| 
    2448              $C$DW$446       .dwtag  DW_TAG_TI_branch
    2449                      .dwattr $C$DW$446, DW_AT_low_pc(0x00)
TMS320C2000 Assembler PC v6.4.9 Wed Dec 02 17:22:54 2015

Tools Copyright (c) 1996-2015 Texas Instruments Incorporated
C:\Users\ywcheng\AppData\Local\Temp\6082010                          PAGE   47

    2450                      .dwattr $C$DW$446, DW_AT_name("_CLK_enablePwmClock")
    2451                      .dwattr $C$DW$446, DW_AT_TI_call
    2452 0000018c 7640!         LCR       #_CLK_enablePwmClock  ; [CPU_] |1025| 
         0000018d 0000 
    2453                      ; call occurs [#_CLK_enablePwmClock] ; [] |1025| 
    2454                      .dwpsn  file "C:/ti/motorware/motorware_1_01_00_15/sw/modules/hal/boards/hvkit_rev1p1/f28x/f2802x/src
    2455 0000018e 9A03          MOVB      AL,#3                 ; [CPU_] |1026| 
    2456 0000018f 8AD1          MOVL      XAR4,*+XAR1[2]        ; [CPU_] |1026| 
    2457              $C$DW$447       .dwtag  DW_TAG_TI_branch
    2458                      .dwattr $C$DW$447, DW_AT_low_pc(0x00)
    2459                      .dwattr $C$DW$447, DW_AT_name("_CLK_enablePwmClock")
    2460                      .dwattr $C$DW$447, DW_AT_TI_call
    2461 00000190 7640!         LCR       #_CLK_enablePwmClock  ; [CPU_] |1026| 
         00000191 0000 
    2462                      ; call occurs [#_CLK_enablePwmClock] ; [] |1026| 
    2463                      .dwpsn  file "C:/ti/motorware/motorware_1_01_00_15/sw/modules/hal/boards/hvkit_rev1p1/f28x/f2802x/src
    2464 00000192 8AD1          MOVL      XAR4,*+XAR1[2]        ; [CPU_] |1028| 
    2465              $C$DW$448       .dwtag  DW_TAG_TI_branch
    2466                      .dwattr $C$DW$448, DW_AT_low_pc(0x00)
    2467                      .dwattr $C$DW$448, DW_AT_name("_CLK_disableHrPwmClock")
    2468                      .dwattr $C$DW$448, DW_AT_TI_call
    2469 00000193 7640!         LCR       #_CLK_disableHrPwmClock ; [CPU_] |1028| 
         00000194 0000 
    2470                      ; call occurs [#_CLK_disableHrPwmClock] ; [] |1028| 
    2471                      .dwpsn  file "C:/ti/motorware/motorware_1_01_00_15/sw/modules/hal/boards/hvkit_rev1p1/f28x/f2802x/src
    2472 00000195 8AD1          MOVL      XAR4,*+XAR1[2]        ; [CPU_] |1030| 
    2473              $C$DW$449       .dwtag  DW_TAG_TI_branch
    2474                      .dwattr $C$DW$449, DW_AT_low_pc(0x00)
    2475                      .dwattr $C$DW$449, DW_AT_name("_CLK_disableI2cClock")
    2476                      .dwattr $C$DW$449, DW_AT_TI_call
    2477 00000196 7640!         LCR       #_CLK_disableI2cClock ; [CPU_] |1030| 
         00000197 0000 
    2478                      ; call occurs [#_CLK_disableI2cClock] ; [] |1030| 
    2479                      .dwpsn  file "C:/ti/motorware/motorware_1_01_00_15/sw/modules/hal/boards/hvkit_rev1p1/f28x/f2802x/src
    2480 00000198 8AD1          MOVL      XAR4,*+XAR1[2]        ; [CPU_] |1032| 
    2481              $C$DW$450       .dwtag  DW_TAG_TI_branch
    2482                      .dwattr $C$DW$450, DW_AT_low_pc(0x00)
    2483                      .dwattr $C$DW$450, DW_AT_name("_CLK_enableSciaClock")
    2484                      .dwattr $C$DW$450, DW_AT_TI_call
    2485 00000199 7640!         LCR       #_CLK_enableSciaClock ; [CPU_] |1032| 
         0000019a 0000 
    2486                      ; call occurs [#_CLK_enableSciaClock] ; [] |1032| 
    2487                      .dwpsn  file "C:/ti/motorware/motorware_1_01_00_15/sw/modules/hal/boards/hvkit_rev1p1/f28x/f2802x/src
    2488 0000019b 8AD1          MOVL      XAR4,*+XAR1[2]        ; [CPU_] |1034| 
    2489              $C$DW$451       .dwtag  DW_TAG_TI_branch
    2490                      .dwattr $C$DW$451, DW_AT_low_pc(0x00)
    2491                      .dwattr $C$DW$451, DW_AT_name("_CLK_disableSpiaClock")
    2492                      .dwattr $C$DW$451, DW_AT_TI_call
    2493 0000019c 7640!         LCR       #_CLK_disableSpiaClock ; [CPU_] |1034| 
         0000019d 0000 
    2494                      ; call occurs [#_CLK_disableSpiaClock] ; [] |1034| 
    2495                      .dwpsn  file "C:/ti/motorware/motorware_1_01_00_15/sw/modules/hal/boards/hvkit_rev1p1/f28x/f2802x/src
    2496 0000019e 8AD1          MOVL      XAR4,*+XAR1[2]        ; [CPU_] |1036| 
    2497              $C$DW$452       .dwtag  DW_TAG_TI_branch
    2498                      .dwattr $C$DW$452, DW_AT_low_pc(0x00)
TMS320C2000 Assembler PC v6.4.9 Wed Dec 02 17:22:54 2015

Tools Copyright (c) 1996-2015 Texas Instruments Incorporated
C:\Users\ywcheng\AppData\Local\Temp\6082010                          PAGE   48

    2499                      .dwattr $C$DW$452, DW_AT_name("_CLK_enableTbClockSync")
    2500                      .dwattr $C$DW$452, DW_AT_TI_call
    2501 0000019f 7640!         LCR       #_CLK_enableTbClockSync ; [CPU_] |1036| 
         000001a0 0000 
    2502                      ; call occurs [#_CLK_enableTbClockSync] ; [] |1036| 
    2503 000001a1 8BBE          MOVL      XAR1,*--SP            ; [CPU_] 
    2504                      .dwcfi  cfa_offset, -2
    2505                      .dwcfi  restore_reg, 7
    2506              $C$DW$453       .dwtag  DW_TAG_TI_branch
    2507                      .dwattr $C$DW$453, DW_AT_low_pc(0x00)
    2508                      .dwattr $C$DW$453, DW_AT_TI_return
    2509 000001a2 0006          LRETR     ; [CPU_] 
    2510                      ; return occurs ; [] 
    2511                      .dwattr $C$DW$436, DW_AT_TI_end_file("C:/ti/motorware/motorware_1_01_00_15/sw/modules/hal/boards/hvki
    2512                      .dwattr $C$DW$436, DW_AT_TI_end_line(0x40f)
    2513                      .dwattr $C$DW$436, DW_AT_TI_end_column(0x01)
    2514                      .dwendentry
    2515                      .dwendtag $C$DW$436
    2516              
    2517 000001a3               .sect   ".text"
    2518                      .clink
    2519                      .global _HAL_setupGpios
    2520              
    2521              $C$DW$454       .dwtag  DW_TAG_subprogram, DW_AT_name("HAL_setupGpios")
    2522                      .dwattr $C$DW$454, DW_AT_low_pc(_HAL_setupGpios)
    2523                      .dwattr $C$DW$454, DW_AT_high_pc(0x00)
    2524                      .dwattr $C$DW$454, DW_AT_TI_symbol_name("_HAL_setupGpios")
    2525                      .dwattr $C$DW$454, DW_AT_external
    2526                      .dwattr $C$DW$454, DW_AT_TI_begin_file("C:/ti/motorware/motorware_1_01_00_15/sw/modules/hal/boards/hv
    2527                      .dwattr $C$DW$454, DW_AT_TI_begin_line(0x396)
    2528                      .dwattr $C$DW$454, DW_AT_TI_begin_column(0x06)
    2529                      .dwattr $C$DW$454, DW_AT_TI_max_frame_size(-4)
    2530                      .dwpsn  file "C:/ti/motorware/motorware_1_01_00_15/sw/modules/hal/boards/hvkit_rev1p1/f28x/f2802x/src
    2531              
    2532                      .dwfde $C$DW$CIE, _HAL_setupGpios
    2533              $C$DW$455       .dwtag  DW_TAG_formal_parameter, DW_AT_name("handle")
    2534                      .dwattr $C$DW$455, DW_AT_TI_symbol_name("_handle")
    2535                      .dwattr $C$DW$455, DW_AT_type(*$C$DW$T$295)
    2536                      .dwattr $C$DW$455, DW_AT_location[DW_OP_reg12]
    2537              
    2538              ;***************************************************************
    2539              ;* FNAME: _HAL_setupGpios               FR SIZE:   2           *
    2540              ;*                                                             *
    2541              ;* FUNCTION ENVIRONMENT                                        *
    2542              ;*                                                             *
    2543              ;* FUNCTION PROPERTIES                                         *
    2544              ;*                            0 Parameter,  0 Auto,  2 SOE     *
    2545              ;***************************************************************
    2546              
    2547              _HAL_setupGpios:
    2548              ;* AR1   assigned to _handle
    2549              $C$DW$456       .dwtag  DW_TAG_variable, DW_AT_name("handle")
    2550                      .dwattr $C$DW$456, DW_AT_TI_symbol_name("_handle")
    2551                      .dwattr $C$DW$456, DW_AT_type(*$C$DW$T$296)
    2552                      .dwattr $C$DW$456, DW_AT_location[DW_OP_reg6]
TMS320C2000 Assembler PC v6.4.9 Wed Dec 02 17:22:54 2015

Tools Copyright (c) 1996-2015 Texas Instruments Incorporated
C:\Users\ywcheng\AppData\Local\Temp\6082010                          PAGE   49

    2553                      .dwcfi  cfa_offset, -2
    2554                      .dwcfi  save_reg_to_mem, 26, 0
    2555 000001a3 B2BD          MOVL      *SP++,XAR1            ; [CPU_] 
    2556                      .dwcfi  save_reg_to_mem, 7, 2
    2557                      .dwcfi  cfa_offset, -4
    2558 000001a4 8BA4          MOVL      XAR1,XAR4             ; [CPU_] |919| 
    2559                      .dwpsn  file "C:/ti/motorware/motorware_1_01_00_15/sw/modules/hal/boards/hvkit_rev1p1/f28x/f2802x/src
    2560 000001a5 D008          MOVB      XAR0,#8               ; [CPU_] |924| 
    2561 000001a6 9A00          MOVB      AL,#0                 ; [CPU_] |924| 
    2562 000001a7 9B01          MOVB      AH,#1                 ; [CPU_] |924| 
    2563 000001a8 8A91          MOVL      XAR4,*+XAR1[AR0]      ; [CPU_] |924| 
    2564              $C$DW$457       .dwtag  DW_TAG_TI_branch
    2565                      .dwattr $C$DW$457, DW_AT_low_pc(0x00)
    2566                      .dwattr $C$DW$457, DW_AT_name("_GPIO_setMode")
    2567                      .dwattr $C$DW$457, DW_AT_TI_call
    2568 000001a9 7640!         LCR       #_GPIO_setMode        ; [CPU_] |924| 
         000001aa 0000 
    2569                      ; call occurs [#_GPIO_setMode] ; [] |924| 
    2570                      .dwpsn  file "C:/ti/motorware/motorware_1_01_00_15/sw/modules/hal/boards/hvkit_rev1p1/f28x/f2802x/src
    2571 000001ab D008          MOVB      XAR0,#8               ; [CPU_] |927| 
    2572 000001ac 9A01          MOVB      AL,#1                 ; [CPU_] |927| 
    2573 000001ad 9B01          MOVB      AH,#1                 ; [CPU_] |927| 
    2574 000001ae 8A91          MOVL      XAR4,*+XAR1[AR0]      ; [CPU_] |927| 
    2575              $C$DW$458       .dwtag  DW_TAG_TI_branch
    2576                      .dwattr $C$DW$458, DW_AT_low_pc(0x00)
    2577                      .dwattr $C$DW$458, DW_AT_name("_GPIO_setMode")
    2578                      .dwattr $C$DW$458, DW_AT_TI_call
    2579 000001af 7640!         LCR       #_GPIO_setMode        ; [CPU_] |927| 
         000001b0 0000 
    2580                      ; call occurs [#_GPIO_setMode] ; [] |927| 
    2581                      .dwpsn  file "C:/ti/motorware/motorware_1_01_00_15/sw/modules/hal/boards/hvkit_rev1p1/f28x/f2802x/src
    2582 000001b1 D008          MOVB      XAR0,#8               ; [CPU_] |930| 
    2583 000001b2 9A02          MOVB      AL,#2                 ; [CPU_] |930| 
    2584 000001b3 9B01          MOVB      AH,#1                 ; [CPU_] |930| 
    2585 000001b4 8A91          MOVL      XAR4,*+XAR1[AR0]      ; [CPU_] |930| 
    2586              $C$DW$459       .dwtag  DW_TAG_TI_branch
    2587                      .dwattr $C$DW$459, DW_AT_low_pc(0x00)
    2588                      .dwattr $C$DW$459, DW_AT_name("_GPIO_setMode")
    2589                      .dwattr $C$DW$459, DW_AT_TI_call
    2590 000001b5 7640!         LCR       #_GPIO_setMode        ; [CPU_] |930| 
         000001b6 0000 
    2591                      ; call occurs [#_GPIO_setMode] ; [] |930| 
    2592                      .dwpsn  file "C:/ti/motorware/motorware_1_01_00_15/sw/modules/hal/boards/hvkit_rev1p1/f28x/f2802x/src
    2593 000001b7 D008          MOVB      XAR0,#8               ; [CPU_] |933| 
    2594 000001b8 9A03          MOVB      AL,#3                 ; [CPU_] |933| 
    2595 000001b9 9B01          MOVB      AH,#1                 ; [CPU_] |933| 
    2596 000001ba 8A91          MOVL      XAR4,*+XAR1[AR0]      ; [CPU_] |933| 
    2597              $C$DW$460       .dwtag  DW_TAG_TI_branch
    2598                      .dwattr $C$DW$460, DW_AT_low_pc(0x00)
    2599                      .dwattr $C$DW$460, DW_AT_name("_GPIO_setMode")
    2600                      .dwattr $C$DW$460, DW_AT_TI_call
    2601 000001bb 7640!         LCR       #_GPIO_setMode        ; [CPU_] |933| 
         000001bc 0000 
    2602                      ; call occurs [#_GPIO_setMode] ; [] |933| 
    2603                      .dwpsn  file "C:/ti/motorware/motorware_1_01_00_15/sw/modules/hal/boards/hvkit_rev1p1/f28x/f2802x/src
TMS320C2000 Assembler PC v6.4.9 Wed Dec 02 17:22:54 2015

Tools Copyright (c) 1996-2015 Texas Instruments Incorporated
C:\Users\ywcheng\AppData\Local\Temp\6082010                          PAGE   50

    2604 000001bd D008          MOVB      XAR0,#8               ; [CPU_] |936| 
    2605 000001be 9A04          MOVB      AL,#4                 ; [CPU_] |936| 
    2606 000001bf 9B01          MOVB      AH,#1                 ; [CPU_] |936| 
    2607 000001c0 8A91          MOVL      XAR4,*+XAR1[AR0]      ; [CPU_] |936| 
    2608              $C$DW$461       .dwtag  DW_TAG_TI_branch
    2609                      .dwattr $C$DW$461, DW_AT_low_pc(0x00)
    2610                      .dwattr $C$DW$461, DW_AT_name("_GPIO_setMode")
    2611                      .dwattr $C$DW$461, DW_AT_TI_call
    2612 000001c1 7640!         LCR       #_GPIO_setMode        ; [CPU_] |936| 
         000001c2 0000 
    2613                      ; call occurs [#_GPIO_setMode] ; [] |936| 
    2614                      .dwpsn  file "C:/ti/motorware/motorware_1_01_00_15/sw/modules/hal/boards/hvkit_rev1p1/f28x/f2802x/src
    2615 000001c3 D008          MOVB      XAR0,#8               ; [CPU_] |939| 
    2616 000001c4 9A05          MOVB      AL,#5                 ; [CPU_] |939| 
    2617 000001c5 9B01          MOVB      AH,#1                 ; [CPU_] |939| 
    2618 000001c6 8A91          MOVL      XAR4,*+XAR1[AR0]      ; [CPU_] |939| 
    2619              $C$DW$462       .dwtag  DW_TAG_TI_branch
    2620                      .dwattr $C$DW$462, DW_AT_low_pc(0x00)
    2621                      .dwattr $C$DW$462, DW_AT_name("_GPIO_setMode")
    2622                      .dwattr $C$DW$462, DW_AT_TI_call
    2623 000001c7 7640!         LCR       #_GPIO_setMode        ; [CPU_] |939| 
         000001c8 0000 
    2624                      ; call occurs [#_GPIO_setMode] ; [] |939| 
    2625                      .dwpsn  file "C:/ti/motorware/motorware_1_01_00_15/sw/modules/hal/boards/hvkit_rev1p1/f28x/f2802x/src
    2626 000001c9 D008          MOVB      XAR0,#8               ; [CPU_] |942| 
    2627 000001ca 9A06          MOVB      AL,#6                 ; [CPU_] |942| 
    2628 000001cb 9B00          MOVB      AH,#0                 ; [CPU_] |942| 
    2629 000001cc 8A91          MOVL      XAR4,*+XAR1[AR0]      ; [CPU_] |942| 
    2630              $C$DW$463       .dwtag  DW_TAG_TI_branch
    2631                      .dwattr $C$DW$463, DW_AT_low_pc(0x00)
    2632                      .dwattr $C$DW$463, DW_AT_name("_GPIO_setMode")
    2633                      .dwattr $C$DW$463, DW_AT_TI_call
    2634 000001cd 7640!         LCR       #_GPIO_setMode        ; [CPU_] |942| 
         000001ce 0000 
    2635                      ; call occurs [#_GPIO_setMode] ; [] |942| 
    2636                      .dwpsn  file "C:/ti/motorware/motorware_1_01_00_15/sw/modules/hal/boards/hvkit_rev1p1/f28x/f2802x/src
    2637 000001cf D008          MOVB      XAR0,#8               ; [CPU_] |945| 
    2638 000001d0 9A07          MOVB      AL,#7                 ; [CPU_] |945| 
    2639 000001d1 9B00          MOVB      AH,#0                 ; [CPU_] |945| 
    2640 000001d2 8A91          MOVL      XAR4,*+XAR1[AR0]      ; [CPU_] |945| 
    2641              $C$DW$464       .dwtag  DW_TAG_TI_branch
    2642                      .dwattr $C$DW$464, DW_AT_low_pc(0x00)
    2643                      .dwattr $C$DW$464, DW_AT_name("_GPIO_setMode")
    2644                      .dwattr $C$DW$464, DW_AT_TI_call
    2645 000001d3 7640!         LCR       #_GPIO_setMode        ; [CPU_] |945| 
         000001d4 0000 
    2646                      ; call occurs [#_GPIO_setMode] ; [] |945| 
    2647                      .dwpsn  file "C:/ti/motorware/motorware_1_01_00_15/sw/modules/hal/boards/hvkit_rev1p1/f28x/f2802x/src
    2648 000001d5 D008          MOVB      XAR0,#8               ; [CPU_] |948| 
    2649 000001d6 9A0C          MOVB      AL,#12                ; [CPU_] |948| 
    2650 000001d7 9B01          MOVB      AH,#1                 ; [CPU_] |948| 
    2651 000001d8 8A91          MOVL      XAR4,*+XAR1[AR0]      ; [CPU_] |948| 
    2652              $C$DW$465       .dwtag  DW_TAG_TI_branch
    2653                      .dwattr $C$DW$465, DW_AT_low_pc(0x00)
    2654                      .dwattr $C$DW$465, DW_AT_name("_GPIO_setMode")
TMS320C2000 Assembler PC v6.4.9 Wed Dec 02 17:22:54 2015

Tools Copyright (c) 1996-2015 Texas Instruments Incorporated
C:\Users\ywcheng\AppData\Local\Temp\6082010                          PAGE   51

    2655                      .dwattr $C$DW$465, DW_AT_TI_call
    2656 000001d9 7640!         LCR       #_GPIO_setMode        ; [CPU_] |948| 
         000001da 0000 
    2657                      ; call occurs [#_GPIO_setMode] ; [] |948| 
    2658                      .dwpsn  file "C:/ti/motorware/motorware_1_01_00_15/sw/modules/hal/boards/hvkit_rev1p1/f28x/f2802x/src
    2659 000001db D008          MOVB      XAR0,#8               ; [CPU_] |951| 
    2660 000001dc 9A10          MOVB      AL,#16                ; [CPU_] |951| 
    2661 000001dd 9B00          MOVB      AH,#0                 ; [CPU_] |951| 
    2662 000001de 8A91          MOVL      XAR4,*+XAR1[AR0]      ; [CPU_] |951| 
    2663              $C$DW$466       .dwtag  DW_TAG_TI_branch
    2664                      .dwattr $C$DW$466, DW_AT_low_pc(0x00)
    2665                      .dwattr $C$DW$466, DW_AT_name("_GPIO_setMode")
    2666                      .dwattr $C$DW$466, DW_AT_TI_call
    2667 000001df 7640!         LCR       #_GPIO_setMode        ; [CPU_] |951| 
         000001e0 0000 
    2668                      ; call occurs [#_GPIO_setMode] ; [] |951| 
    2669                      .dwpsn  file "C:/ti/motorware/motorware_1_01_00_15/sw/modules/hal/boards/hvkit_rev1p1/f28x/f2802x/src
    2670 000001e1 D008          MOVB      XAR0,#8               ; [CPU_] |954| 
    2671 000001e2 9A11          MOVB      AL,#17                ; [CPU_] |954| 
    2672 000001e3 9B00          MOVB      AH,#0                 ; [CPU_] |954| 
    2673 000001e4 8A91          MOVL      XAR4,*+XAR1[AR0]      ; [CPU_] |954| 
    2674              $C$DW$467       .dwtag  DW_TAG_TI_branch
    2675                      .dwattr $C$DW$467, DW_AT_low_pc(0x00)
    2676                      .dwattr $C$DW$467, DW_AT_name("_GPIO_setMode")
    2677                      .dwattr $C$DW$467, DW_AT_TI_call
    2678 000001e5 7640!         LCR       #_GPIO_setMode        ; [CPU_] |954| 
         000001e6 0000 
    2679                      ; call occurs [#_GPIO_setMode] ; [] |954| 
    2680                      .dwpsn  file "C:/ti/motorware/motorware_1_01_00_15/sw/modules/hal/boards/hvkit_rev1p1/f28x/f2802x/src
    2681 000001e7 D008          MOVB      XAR0,#8               ; [CPU_] |957| 
    2682 000001e8 9A12          MOVB      AL,#18                ; [CPU_] |957| 
    2683 000001e9 9B00          MOVB      AH,#0                 ; [CPU_] |957| 
    2684 000001ea 8A91          MOVL      XAR4,*+XAR1[AR0]      ; [CPU_] |957| 
    2685              $C$DW$468       .dwtag  DW_TAG_TI_branch
    2686                      .dwattr $C$DW$468, DW_AT_low_pc(0x00)
    2687                      .dwattr $C$DW$468, DW_AT_name("_GPIO_setMode")
    2688                      .dwattr $C$DW$468, DW_AT_TI_call
    2689 000001eb 7640!         LCR       #_GPIO_setMode        ; [CPU_] |957| 
         000001ec 0000 
    2690                      ; call occurs [#_GPIO_setMode] ; [] |957| 
    2691                      .dwpsn  file "C:/ti/motorware/motorware_1_01_00_15/sw/modules/hal/boards/hvkit_rev1p1/f28x/f2802x/src
    2692 000001ed D008          MOVB      XAR0,#8               ; [CPU_] |960| 
    2693 000001ee 9A13          MOVB      AL,#19                ; [CPU_] |960| 
    2694 000001ef 9B00          MOVB      AH,#0                 ; [CPU_] |960| 
    2695 000001f0 8A91          MOVL      XAR4,*+XAR1[AR0]      ; [CPU_] |960| 
    2696              $C$DW$469       .dwtag  DW_TAG_TI_branch
    2697                      .dwattr $C$DW$469, DW_AT_low_pc(0x00)
    2698                      .dwattr $C$DW$469, DW_AT_name("_GPIO_setMode")
    2699                      .dwattr $C$DW$469, DW_AT_TI_call
    2700 000001f1 7640!         LCR       #_GPIO_setMode        ; [CPU_] |960| 
         000001f2 0000 
    2701                      ; call occurs [#_GPIO_setMode] ; [] |960| 
    2702                      .dwpsn  file "C:/ti/motorware/motorware_1_01_00_15/sw/modules/hal/boards/hvkit_rev1p1/f28x/f2802x/src
    2703 000001f3 D008          MOVB      XAR0,#8               ; [CPU_] |963| 
    2704 000001f4 9A1C          MOVB      AL,#28                ; [CPU_] |963| 
TMS320C2000 Assembler PC v6.4.9 Wed Dec 02 17:22:54 2015

Tools Copyright (c) 1996-2015 Texas Instruments Incorporated
C:\Users\ywcheng\AppData\Local\Temp\6082010                          PAGE   52

    2705 000001f5 9B00          MOVB      AH,#0                 ; [CPU_] |963| 
    2706 000001f6 8A91          MOVL      XAR4,*+XAR1[AR0]      ; [CPU_] |963| 
    2707              $C$DW$470       .dwtag  DW_TAG_TI_branch
    2708                      .dwattr $C$DW$470, DW_AT_low_pc(0x00)
    2709                      .dwattr $C$DW$470, DW_AT_name("_GPIO_setMode")
    2710                      .dwattr $C$DW$470, DW_AT_TI_call
    2711 000001f7 7640!         LCR       #_GPIO_setMode        ; [CPU_] |963| 
         000001f8 0000 
    2712                      ; call occurs [#_GPIO_setMode] ; [] |963| 
    2713                      .dwpsn  file "C:/ti/motorware/motorware_1_01_00_15/sw/modules/hal/boards/hvkit_rev1p1/f28x/f2802x/src
    2714 000001f9 D008          MOVB      XAR0,#8               ; [CPU_] |966| 
    2715 000001fa 9A1D          MOVB      AL,#29                ; [CPU_] |966| 
    2716 000001fb 9B00          MOVB      AH,#0                 ; [CPU_] |966| 
    2717 000001fc 8A91          MOVL      XAR4,*+XAR1[AR0]      ; [CPU_] |966| 
    2718              $C$DW$471       .dwtag  DW_TAG_TI_branch
    2719                      .dwattr $C$DW$471, DW_AT_low_pc(0x00)
    2720                      .dwattr $C$DW$471, DW_AT_name("_GPIO_setMode")
    2721                      .dwattr $C$DW$471, DW_AT_TI_call
    2722 000001fd 7640!         LCR       #_GPIO_setMode        ; [CPU_] |966| 
         000001fe 0000 
    2723                      ; call occurs [#_GPIO_setMode] ; [] |966| 
    2724                      .dwpsn  file "C:/ti/motorware/motorware_1_01_00_15/sw/modules/hal/boards/hvkit_rev1p1/f28x/f2802x/src
    2725 000001ff D008          MOVB      XAR0,#8               ; [CPU_] |969| 
    2726 00000200 9A20          MOVB      AL,#32                ; [CPU_] |969| 
    2727 00000201 9B00          MOVB      AH,#0                 ; [CPU_] |969| 
    2728 00000202 8A91          MOVL      XAR4,*+XAR1[AR0]      ; [CPU_] |969| 
    2729              $C$DW$472       .dwtag  DW_TAG_TI_branch
    2730                      .dwattr $C$DW$472, DW_AT_low_pc(0x00)
    2731                      .dwattr $C$DW$472, DW_AT_name("_GPIO_setMode")
    2732                      .dwattr $C$DW$472, DW_AT_TI_call
    2733 00000203 7640!         LCR       #_GPIO_setMode        ; [CPU_] |969| 
         00000204 0000 
    2734                      ; call occurs [#_GPIO_setMode] ; [] |969| 
    2735                      .dwpsn  file "C:/ti/motorware/motorware_1_01_00_15/sw/modules/hal/boards/hvkit_rev1p1/f28x/f2802x/src
    2736 00000205 D008          MOVB      XAR0,#8               ; [CPU_] |972| 
    2737 00000206 9A21          MOVB      AL,#33                ; [CPU_] |972| 
    2738 00000207 9B00          MOVB      AH,#0                 ; [CPU_] |972| 
    2739 00000208 8A91          MOVL      XAR4,*+XAR1[AR0]      ; [CPU_] |972| 
    2740              $C$DW$473       .dwtag  DW_TAG_TI_branch
    2741                      .dwattr $C$DW$473, DW_AT_low_pc(0x00)
    2742                      .dwattr $C$DW$473, DW_AT_name("_GPIO_setMode")
    2743                      .dwattr $C$DW$473, DW_AT_TI_call
    2744 00000209 7640!         LCR       #_GPIO_setMode        ; [CPU_] |972| 
         0000020a 0000 
    2745                      ; call occurs [#_GPIO_setMode] ; [] |972| 
    2746                      .dwpsn  file "C:/ti/motorware/motorware_1_01_00_15/sw/modules/hal/boards/hvkit_rev1p1/f28x/f2802x/src
    2747 0000020b D008          MOVB      XAR0,#8               ; [CPU_] |975| 
    2748 0000020c 9A22          MOVB      AL,#34                ; [CPU_] |975| 
    2749 0000020d 9B00          MOVB      AH,#0                 ; [CPU_] |975| 
    2750 0000020e 8A91          MOVL      XAR4,*+XAR1[AR0]      ; [CPU_] |975| 
    2751              $C$DW$474       .dwtag  DW_TAG_TI_branch
    2752                      .dwattr $C$DW$474, DW_AT_low_pc(0x00)
    2753                      .dwattr $C$DW$474, DW_AT_name("_GPIO_setMode")
    2754                      .dwattr $C$DW$474, DW_AT_TI_call
    2755 0000020f 7640!         LCR       #_GPIO_setMode        ; [CPU_] |975| 
TMS320C2000 Assembler PC v6.4.9 Wed Dec 02 17:22:54 2015

Tools Copyright (c) 1996-2015 Texas Instruments Incorporated
C:\Users\ywcheng\AppData\Local\Temp\6082010                          PAGE   53

         00000210 0000 
    2756                      ; call occurs [#_GPIO_setMode] ; [] |975| 
    2757                      .dwpsn  file "C:/ti/motorware/motorware_1_01_00_15/sw/modules/hal/boards/hvkit_rev1p1/f28x/f2802x/src
    2758 00000211 D008          MOVB      XAR0,#8               ; [CPU_] |976| 
    2759 00000212 9A22          MOVB      AL,#34                ; [CPU_] |976| 
    2760 00000213 8A91          MOVL      XAR4,*+XAR1[AR0]      ; [CPU_] |976| 
    2761              $C$DW$475       .dwtag  DW_TAG_TI_branch
    2762                      .dwattr $C$DW$475, DW_AT_low_pc(0x00)
    2763                      .dwattr $C$DW$475, DW_AT_name("_GPIO_setLow")
    2764                      .dwattr $C$DW$475, DW_AT_TI_call
    2765 00000214 7640!         LCR       #_GPIO_setLow         ; [CPU_] |976| 
         00000215 0000 
    2766                      ; call occurs [#_GPIO_setLow] ; [] |976| 
    2767                      .dwpsn  file "C:/ti/motorware/motorware_1_01_00_15/sw/modules/hal/boards/hvkit_rev1p1/f28x/f2802x/src
    2768 00000216 D008          MOVB      XAR0,#8               ; [CPU_] |977| 
    2769 00000217 9A22          MOVB      AL,#34                ; [CPU_] |977| 
    2770 00000218 9B01          MOVB      AH,#1                 ; [CPU_] |977| 
    2771 00000219 8A91          MOVL      XAR4,*+XAR1[AR0]      ; [CPU_] |977| 
    2772              $C$DW$476       .dwtag  DW_TAG_TI_branch
    2773                      .dwattr $C$DW$476, DW_AT_low_pc(0x00)
    2774                      .dwattr $C$DW$476, DW_AT_name("_GPIO_setDirection")
    2775                      .dwattr $C$DW$476, DW_AT_TI_call
    2776 0000021a 7640!         LCR       #_GPIO_setDirection   ; [CPU_] |977| 
         0000021b 0000 
    2777                      ; call occurs [#_GPIO_setDirection] ; [] |977| 
    2778                      .dwpsn  file "C:/ti/motorware/motorware_1_01_00_15/sw/modules/hal/boards/hvkit_rev1p1/f28x/f2802x/src
    2779 0000021c D008          MOVB      XAR0,#8               ; [CPU_] |980| 
    2780 0000021d 9A23          MOVB      AL,#35                ; [CPU_] |980| 
    2781 0000021e 9B00          MOVB      AH,#0                 ; [CPU_] |980| 
    2782 0000021f 8A91          MOVL      XAR4,*+XAR1[AR0]      ; [CPU_] |980| 
    2783              $C$DW$477       .dwtag  DW_TAG_TI_branch
    2784                      .dwattr $C$DW$477, DW_AT_low_pc(0x00)
    2785                      .dwattr $C$DW$477, DW_AT_name("_GPIO_setMode")
    2786                      .dwattr $C$DW$477, DW_AT_TI_call
    2787 00000220 7640!         LCR       #_GPIO_setMode        ; [CPU_] |980| 
         00000221 0000 
    2788                      ; call occurs [#_GPIO_setMode] ; [] |980| 
    2789                      .dwpsn  file "C:/ti/motorware/motorware_1_01_00_15/sw/modules/hal/boards/hvkit_rev1p1/f28x/f2802x/src
    2790 00000222 D008          MOVB      XAR0,#8               ; [CPU_] |981| 
    2791 00000223 9A24          MOVB      AL,#36                ; [CPU_] |981| 
    2792 00000224 9B00          MOVB      AH,#0                 ; [CPU_] |981| 
    2793 00000225 8A91          MOVL      XAR4,*+XAR1[AR0]      ; [CPU_] |981| 
    2794              $C$DW$478       .dwtag  DW_TAG_TI_branch
    2795                      .dwattr $C$DW$478, DW_AT_low_pc(0x00)
    2796                      .dwattr $C$DW$478, DW_AT_name("_GPIO_setMode")
    2797                      .dwattr $C$DW$478, DW_AT_TI_call
    2798 00000226 7640!         LCR       #_GPIO_setMode        ; [CPU_] |981| 
         00000227 0000 
    2799                      ; call occurs [#_GPIO_setMode] ; [] |981| 
    2800                      .dwpsn  file "C:/ti/motorware/motorware_1_01_00_15/sw/modules/hal/boards/hvkit_rev1p1/f28x/f2802x/src
    2801 00000228 D008          MOVB      XAR0,#8               ; [CPU_] |982| 
    2802 00000229 9A25          MOVB      AL,#37                ; [CPU_] |982| 
    2803 0000022a 9B00          MOVB      AH,#0                 ; [CPU_] |982| 
    2804 0000022b 8A91          MOVL      XAR4,*+XAR1[AR0]      ; [CPU_] |982| 
    2805              $C$DW$479       .dwtag  DW_TAG_TI_branch
TMS320C2000 Assembler PC v6.4.9 Wed Dec 02 17:22:54 2015

Tools Copyright (c) 1996-2015 Texas Instruments Incorporated
C:\Users\ywcheng\AppData\Local\Temp\6082010                          PAGE   54

    2806                      .dwattr $C$DW$479, DW_AT_low_pc(0x00)
    2807                      .dwattr $C$DW$479, DW_AT_name("_GPIO_setMode")
    2808                      .dwattr $C$DW$479, DW_AT_TI_call
    2809 0000022c 7640!         LCR       #_GPIO_setMode        ; [CPU_] |982| 
         0000022d 0000 
    2810                      ; call occurs [#_GPIO_setMode] ; [] |982| 
    2811                      .dwpsn  file "C:/ti/motorware/motorware_1_01_00_15/sw/modules/hal/boards/hvkit_rev1p1/f28x/f2802x/src
    2812 0000022e D008          MOVB      XAR0,#8               ; [CPU_] |983| 
    2813 0000022f 9A26          MOVB      AL,#38                ; [CPU_] |983| 
    2814 00000230 9B00          MOVB      AH,#0                 ; [CPU_] |983| 
    2815 00000231 8A91          MOVL      XAR4,*+XAR1[AR0]      ; [CPU_] |983| 
    2816              $C$DW$480       .dwtag  DW_TAG_TI_branch
    2817                      .dwattr $C$DW$480, DW_AT_low_pc(0x00)
    2818                      .dwattr $C$DW$480, DW_AT_name("_GPIO_setMode")
    2819                      .dwattr $C$DW$480, DW_AT_TI_call
    2820 00000232 7640!         LCR       #_GPIO_setMode        ; [CPU_] |983| 
         00000233 0000 
    2821                      ; call occurs [#_GPIO_setMode] ; [] |983| 
    2822 00000234 8BBE          MOVL      XAR1,*--SP            ; [CPU_] 
    2823                      .dwcfi  cfa_offset, -2
    2824                      .dwcfi  restore_reg, 7
    2825              $C$DW$481       .dwtag  DW_TAG_TI_branch
    2826                      .dwattr $C$DW$481, DW_AT_low_pc(0x00)
    2827                      .dwattr $C$DW$481, DW_AT_TI_return
    2828 00000235 0006          LRETR     ; [CPU_] 
    2829                      ; return occurs ; [] 
    2830                      .dwattr $C$DW$454, DW_AT_TI_end_file("C:/ti/motorware/motorware_1_01_00_15/sw/modules/hal/boards/hvki
    2831                      .dwattr $C$DW$454, DW_AT_TI_end_line(0x3da)
    2832                      .dwattr $C$DW$454, DW_AT_TI_end_column(0x01)
    2833                      .dwendentry
    2834                      .dwendtag $C$DW$454
    2835              
    2836 00000000               .sect   "ramfuncs"
    2837                      .clink
    2838                      .global _HAL_setupFlash
    2839              
    2840              $C$DW$482       .dwtag  DW_TAG_subprogram, DW_AT_name("HAL_setupFlash")
    2841                      .dwattr $C$DW$482, DW_AT_low_pc(_HAL_setupFlash)
    2842                      .dwattr $C$DW$482, DW_AT_high_pc(0x00)
    2843                      .dwattr $C$DW$482, DW_AT_TI_symbol_name("_HAL_setupFlash")
    2844                      .dwattr $C$DW$482, DW_AT_external
    2845                      .dwattr $C$DW$482, DW_AT_TI_begin_file("C:/ti/motorware/motorware_1_01_00_15/sw/modules/hal/boards/hv
    2846                      .dwattr $C$DW$482, DW_AT_TI_begin_line(0x381)
    2847                      .dwattr $C$DW$482, DW_AT_TI_begin_column(0x06)
    2848                      .dwattr $C$DW$482, DW_AT_TI_max_frame_size(-4)
    2849                      .dwpsn  file "C:/ti/motorware/motorware_1_01_00_15/sw/modules/hal/boards/hvkit_rev1p1/f28x/f2802x/src
    2850              
    2851                      .dwfde $C$DW$CIE, _HAL_setupFlash
    2852              $C$DW$483       .dwtag  DW_TAG_formal_parameter, DW_AT_name("handle")
    2853                      .dwattr $C$DW$483, DW_AT_TI_symbol_name("_handle")
    2854                      .dwattr $C$DW$483, DW_AT_type(*$C$DW$T$295)
    2855                      .dwattr $C$DW$483, DW_AT_location[DW_OP_reg12]
    2856              
    2857              ;***************************************************************
    2858              ;* FNAME: _HAL_setupFlash               FR SIZE:   2           *
TMS320C2000 Assembler PC v6.4.9 Wed Dec 02 17:22:54 2015

Tools Copyright (c) 1996-2015 Texas Instruments Incorporated
C:\Users\ywcheng\AppData\Local\Temp\6082010                          PAGE   55

    2859              ;*                                                             *
    2860              ;* FUNCTION ENVIRONMENT                                        *
    2861              ;*                                                             *
    2862              ;* FUNCTION PROPERTIES                                         *
    2863              ;*                            0 Parameter,  0 Auto,  2 SOE     *
    2864              ;***************************************************************
    2865              
    2866              _HAL_setupFlash:
    2867              ;* AR1   assigned to _handle
    2868              $C$DW$484       .dwtag  DW_TAG_variable, DW_AT_name("handle")
    2869                      .dwattr $C$DW$484, DW_AT_TI_symbol_name("_handle")
    2870                      .dwattr $C$DW$484, DW_AT_type(*$C$DW$T$296)
    2871                      .dwattr $C$DW$484, DW_AT_location[DW_OP_reg6]
    2872                      .dwcfi  cfa_offset, -2
    2873                      .dwcfi  save_reg_to_mem, 26, 0
    2874 00000000 B2BD          MOVL      *SP++,XAR1            ; [CPU_] 
    2875                      .dwcfi  save_reg_to_mem, 7, 2
    2876                      .dwcfi  cfa_offset, -4
    2877 00000001 8BA4          MOVL      XAR1,XAR4             ; [CPU_] |898| 
    2878                      .dwpsn  file "C:/ti/motorware/motorware_1_01_00_15/sw/modules/hal/boards/hvkit_rev1p1/f28x/f2802x/src
    2879 00000002 8AF1          MOVL      XAR4,*+XAR1[6]        ; [CPU_] |902| 
    2880              $C$DW$485       .dwtag  DW_TAG_TI_branch
    2881                      .dwattr $C$DW$485, DW_AT_low_pc(0x00)
    2882                      .dwattr $C$DW$485, DW_AT_name("_FLASH_enablePipelineMode")
    2883                      .dwattr $C$DW$485, DW_AT_TI_call
    2884 00000003 7640!         LCR       #_FLASH_enablePipelineMode ; [CPU_] |902| 
         00000004 0000 
    2885                      ; call occurs [#_FLASH_enablePipelineMode] ; [] |902| 
    2886                      .dwpsn  file "C:/ti/motorware/motorware_1_01_00_15/sw/modules/hal/boards/hvkit_rev1p1/f28x/f2802x/src
    2887 00000005 28A9          MOV       AL,#512               ; [CPU_] |904| 
         00000006 0200 
    2888 00000007 8AF1          MOVL      XAR4,*+XAR1[6]        ; [CPU_] |904| 
    2889              $C$DW$486       .dwtag  DW_TAG_TI_branch
    2890                      .dwattr $C$DW$486, DW_AT_low_pc(0x00)
    2891                      .dwattr $C$DW$486, DW_AT_name("_FLASH_setNumPagedReadWaitStates")
    2892                      .dwattr $C$DW$486, DW_AT_TI_call
    2893 00000008 7640!         LCR       #_FLASH_setNumPagedReadWaitStates ; [CPU_] |904| 
         00000009 0000 
    2894                      ; call occurs [#_FLASH_setNumPagedReadWaitStates] ; [] |904| 
    2895                      .dwpsn  file "C:/ti/motorware/motorware_1_01_00_15/sw/modules/hal/boards/hvkit_rev1p1/f28x/f2802x/src
    2896 0000000a 9A02          MOVB      AL,#2                 ; [CPU_] |906| 
    2897 0000000b 8AF1          MOVL      XAR4,*+XAR1[6]        ; [CPU_] |906| 
    2898              $C$DW$487       .dwtag  DW_TAG_TI_branch
    2899                      .dwattr $C$DW$487, DW_AT_low_pc(0x00)
    2900                      .dwattr $C$DW$487, DW_AT_name("_FLASH_setNumRandomReadWaitStates")
    2901                      .dwattr $C$DW$487, DW_AT_TI_call
    2902 0000000c 7640!         LCR       #_FLASH_setNumRandomReadWaitStates ; [CPU_] |906| 
         0000000d 0000 
    2903                      ; call occurs [#_FLASH_setNumRandomReadWaitStates] ; [] |906| 
    2904                      .dwpsn  file "C:/ti/motorware/motorware_1_01_00_15/sw/modules/hal/boards/hvkit_rev1p1/f28x/f2802x/src
    2905 0000000e 9A03          MOVB      AL,#3                 ; [CPU_] |908| 
    2906 0000000f 8AF1          MOVL      XAR4,*+XAR1[6]        ; [CPU_] |908| 
    2907              $C$DW$488       .dwtag  DW_TAG_TI_branch
    2908                      .dwattr $C$DW$488, DW_AT_low_pc(0x00)
    2909                      .dwattr $C$DW$488, DW_AT_name("_FLASH_setOtpWaitStates")
TMS320C2000 Assembler PC v6.4.9 Wed Dec 02 17:22:54 2015

Tools Copyright (c) 1996-2015 Texas Instruments Incorporated
C:\Users\ywcheng\AppData\Local\Temp\6082010                          PAGE   56

    2910                      .dwattr $C$DW$488, DW_AT_TI_call
    2911 00000010 7640!         LCR       #_FLASH_setOtpWaitStates ; [CPU_] |908| 
         00000011 0000 
    2912                      ; call occurs [#_FLASH_setOtpWaitStates] ; [] |908| 
    2913                      .dwpsn  file "C:/ti/motorware/motorware_1_01_00_15/sw/modules/hal/boards/hvkit_rev1p1/f28x/f2802x/src
    2914 00000012 28A9          MOV       AL,#511               ; [CPU_] |910| 
         00000013 01FF 
    2915 00000014 8AF1          MOVL      XAR4,*+XAR1[6]        ; [CPU_] |910| 
    2916              $C$DW$489       .dwtag  DW_TAG_TI_branch
    2917                      .dwattr $C$DW$489, DW_AT_low_pc(0x00)
    2918                      .dwattr $C$DW$489, DW_AT_name("_FLASH_setStandbyWaitCount")
    2919                      .dwattr $C$DW$489, DW_AT_TI_call
    2920 00000015 7640!         LCR       #_FLASH_setStandbyWaitCount ; [CPU_] |910| 
         00000016 0000 
    2921                      ; call occurs [#_FLASH_setStandbyWaitCount] ; [] |910| 
    2922                      .dwpsn  file "C:/ti/motorware/motorware_1_01_00_15/sw/modules/hal/boards/hvkit_rev1p1/f28x/f2802x/src
    2923 00000017 28A9          MOV       AL,#511               ; [CPU_] |912| 
         00000018 01FF 
    2924 00000019 8AF1          MOVL      XAR4,*+XAR1[6]        ; [CPU_] |912| 
    2925              $C$DW$490       .dwtag  DW_TAG_TI_branch
    2926                      .dwattr $C$DW$490, DW_AT_low_pc(0x00)
    2927                      .dwattr $C$DW$490, DW_AT_name("_FLASH_setActiveWaitCount")
    2928                      .dwattr $C$DW$490, DW_AT_TI_call
    2929 0000001a 7640!         LCR       #_FLASH_setActiveWaitCount ; [CPU_] |912| 
         0000001b 0000 
    2930                      ; call occurs [#_FLASH_setActiveWaitCount] ; [] |912| 
    2931 0000001c 8BBE          MOVL      XAR1,*--SP            ; [CPU_] 
    2932                      .dwcfi  cfa_offset, -2
    2933                      .dwcfi  restore_reg, 7
    2934              $C$DW$491       .dwtag  DW_TAG_TI_branch
    2935                      .dwattr $C$DW$491, DW_AT_low_pc(0x00)
    2936                      .dwattr $C$DW$491, DW_AT_TI_return
    2937 0000001d 0006          LRETR     ; [CPU_] 
    2938                      ; return occurs ; [] 
    2939                      .dwattr $C$DW$482, DW_AT_TI_end_file("C:/ti/motorware/motorware_1_01_00_15/sw/modules/hal/boards/hvki
    2940                      .dwattr $C$DW$482, DW_AT_TI_end_line(0x393)
    2941                      .dwattr $C$DW$482, DW_AT_TI_end_column(0x01)
    2942                      .dwendentry
    2943                      .dwendtag $C$DW$482
    2944              
    2945 00000236               .sect   ".text"
    2946                      .clink
    2947                      .global _HAL_setupFaults
    2948              
    2949              $C$DW$492       .dwtag  DW_TAG_subprogram, DW_AT_name("HAL_setupFaults")
    2950                      .dwattr $C$DW$492, DW_AT_low_pc(_HAL_setupFaults)
    2951                      .dwattr $C$DW$492, DW_AT_high_pc(0x00)
    2952                      .dwattr $C$DW$492, DW_AT_TI_symbol_name("_HAL_setupFaults")
    2953                      .dwattr $C$DW$492, DW_AT_external
    2954                      .dwattr $C$DW$492, DW_AT_TI_begin_file("C:/ti/motorware/motorware_1_01_00_15/sw/modules/hal/boards/hv
    2955                      .dwattr $C$DW$492, DW_AT_TI_begin_line(0x21b)
    2956                      .dwattr $C$DW$492, DW_AT_TI_begin_column(0x06)
    2957                      .dwattr $C$DW$492, DW_AT_TI_max_frame_size(-6)
    2958                      .dwpsn  file "C:/ti/motorware/motorware_1_01_00_15/sw/modules/hal/boards/hvkit_rev1p1/f28x/f2802x/src
    2959              
TMS320C2000 Assembler PC v6.4.9 Wed Dec 02 17:22:54 2015

Tools Copyright (c) 1996-2015 Texas Instruments Incorporated
C:\Users\ywcheng\AppData\Local\Temp\6082010                          PAGE   57

    2960                      .dwfde $C$DW$CIE, _HAL_setupFaults
    2961              $C$DW$493       .dwtag  DW_TAG_formal_parameter, DW_AT_name("handle")
    2962                      .dwattr $C$DW$493, DW_AT_TI_symbol_name("_handle")
    2963                      .dwattr $C$DW$493, DW_AT_type(*$C$DW$T$295)
    2964                      .dwattr $C$DW$493, DW_AT_location[DW_OP_reg12]
    2965              
    2966              ;***************************************************************
    2967              ;* FNAME: _HAL_setupFaults              FR SIZE:   4           *
    2968              ;*                                                             *
    2969              ;* FUNCTION ENVIRONMENT                                        *
    2970              ;*                                                             *
    2971              ;* FUNCTION PROPERTIES                                         *
    2972              ;*                            0 Parameter,  0 Auto,  4 SOE     *
    2973              ;***************************************************************
    2974              
    2975              _HAL_setupFaults:
    2976              ;* AR1   assigned to _handle
    2977              $C$DW$494       .dwtag  DW_TAG_variable, DW_AT_name("handle")
    2978                      .dwattr $C$DW$494, DW_AT_TI_symbol_name("_handle")
    2979                      .dwattr $C$DW$494, DW_AT_type(*$C$DW$T$296)
    2980                      .dwattr $C$DW$494, DW_AT_location[DW_OP_reg6]
    2981              ;* AR1   assigned to $O$U9
    2982                      .dwcfi  cfa_offset, -2
    2983                      .dwcfi  save_reg_to_mem, 26, 0
    2984 00000236 B2BD          MOVL      *SP++,XAR1            ; [CPU_] 
    2985                      .dwcfi  save_reg_to_mem, 7, 2
    2986                      .dwcfi  cfa_offset, -4
    2987 00000237 8BA4          MOVL      XAR1,XAR4             ; [CPU_] |540| 
    2988 00000238 AABD          MOVL      *SP++,XAR2            ; [CPU_] 
    2989                      .dwcfi  save_reg_to_mem, 9, 4
    2990                      .dwcfi  cfa_offset, -6
    2991 00000239 D202          MOVB      XAR2,#2               ; [CPU_] 
    2992 0000023a D97C          ADDB      XAR1,#124             ; [CPU_] 
    2993 0000023b       $C$L8:    
    2994                      .dwpsn  file "C:/ti/motorware/motorware_1_01_00_15/sw/modules/hal/boards/hvkit_rev1p1/f28x/f2802x/src
    2995 0000023b 8AC1          MOVL      XAR4,*+XAR1[0]        ; [CPU_] |551| 
    2996 0000023c 9A20          MOVB      AL,#32                ; [CPU_] |551| 
    2997              $C$DW$495       .dwtag  DW_TAG_TI_branch
    2998                      .dwattr $C$DW$495, DW_AT_low_pc(0x00)
    2999                      .dwattr $C$DW$495, DW_AT_name("_PWM_enableTripZoneSrc")
    3000                      .dwattr $C$DW$495, DW_AT_TI_call
    3001 0000023d 7640!         LCR       #_PWM_enableTripZoneSrc ; [CPU_] |551| 
         0000023e 0000 
    3002                      ; call occurs [#_PWM_enableTripZoneSrc] ; [] |551| 
    3003                      .dwpsn  file "C:/ti/motorware/motorware_1_01_00_15/sw/modules/hal/boards/hvkit_rev1p1/f28x/f2802x/src
    3004 0000023f 28A9          MOV       AL,#256               ; [CPU_] |553| 
         00000240 0100 
    3005 00000241 8AC1          MOVL      XAR4,*+XAR1[0]        ; [CPU_] |553| 
    3006              $C$DW$496       .dwtag  DW_TAG_TI_branch
    3007                      .dwattr $C$DW$496, DW_AT_low_pc(0x00)
    3008                      .dwattr $C$DW$496, DW_AT_name("_PWM_enableTripZoneSrc")
    3009                      .dwattr $C$DW$496, DW_AT_TI_call
    3010 00000242 7640!         LCR       #_PWM_enableTripZoneSrc ; [CPU_] |553| 
         00000243 0000 
    3011                      ; call occurs [#_PWM_enableTripZoneSrc] ; [] |553| 
TMS320C2000 Assembler PC v6.4.9 Wed Dec 02 17:22:54 2015

Tools Copyright (c) 1996-2015 Texas Instruments Incorporated
C:\Users\ywcheng\AppData\Local\Temp\6082010                          PAGE   58

    3012                      .dwpsn  file "C:/ti/motorware/motorware_1_01_00_15/sw/modules/hal/boards/hvkit_rev1p1/f28x/f2802x/src
    3013 00000244 9A02          MOVB      AL,#2                 ; [CPU_] |559| 
    3014 00000245 8AC1          MOVL      XAR4,*+XAR1[0]        ; [CPU_] |559| 
    3015              $C$DW$497       .dwtag  DW_TAG_TI_branch
    3016                      .dwattr $C$DW$497, DW_AT_low_pc(0x00)
    3017                      .dwattr $C$DW$497, DW_AT_name("_PWM_setTripZoneState_TZA")
    3018                      .dwattr $C$DW$497, DW_AT_TI_call
    3019 00000246 7640!         LCR       #_PWM_setTripZoneState_TZA ; [CPU_] |559| 
         00000247 0000 
    3020                      ; call occurs [#_PWM_setTripZoneState_TZA] ; [] |559| 
    3021                      .dwpsn  file "C:/ti/motorware/motorware_1_01_00_15/sw/modules/hal/boards/hvkit_rev1p1/f28x/f2802x/src
    3022 00000248 9A02          MOVB      AL,#2                 ; [CPU_] |560| 
    3023 00000249 8A81          MOVL      XAR4,*XAR1++          ; [CPU_] |560| 
    3024              $C$DW$498       .dwtag  DW_TAG_TI_branch
    3025                      .dwattr $C$DW$498, DW_AT_low_pc(0x00)
    3026                      .dwattr $C$DW$498, DW_AT_name("_PWM_setTripZoneState_TZB")
    3027                      .dwattr $C$DW$498, DW_AT_TI_call
    3028 0000024a 7640!         LCR       #_PWM_setTripZoneState_TZB ; [CPU_] |560| 
         0000024b 0000 
    3029                      ; call occurs [#_PWM_setTripZoneState_TZB] ; [] |560| 
    3030                      .dwpsn  file "C:/ti/motorware/motorware_1_01_00_15/sw/modules/hal/boards/hvkit_rev1p1/f28x/f2802x/src
    3031 0000024c 000A          BANZ      $C$L8,AR2--           ; [CPU_] |549| 
         0000024d FFEF 
    3032                      ; branchcc occurs ; [] |549| 
    3033 0000024e 86BE          MOVL      XAR2,*--SP            ; [CPU_] 
    3034                      .dwcfi  cfa_offset, -4
    3035                      .dwcfi  restore_reg, 9
    3036 0000024f 8BBE          MOVL      XAR1,*--SP            ; [CPU_] 
    3037                      .dwcfi  cfa_offset, -2
    3038                      .dwcfi  restore_reg, 7
    3039              $C$DW$499       .dwtag  DW_TAG_TI_branch
    3040                      .dwattr $C$DW$499, DW_AT_low_pc(0x00)
    3041                      .dwattr $C$DW$499, DW_AT_TI_return
    3042 00000250 0006          LRETR     ; [CPU_] 
    3043                      ; return occurs ; [] 
    3044                      .dwattr $C$DW$492, DW_AT_TI_end_file("C:/ti/motorware/motorware_1_01_00_15/sw/modules/hal/boards/hvki
    3045                      .dwattr $C$DW$492, DW_AT_TI_end_line(0x234)
    3046                      .dwattr $C$DW$492, DW_AT_TI_end_column(0x01)
    3047                      .dwendentry
    3048                      .dwendtag $C$DW$492
    3049              
    3050 00000251               .sect   ".text"
    3051                      .clink
    3052                      .global _HAL_setupClks
    3053              
    3054              $C$DW$500       .dwtag  DW_TAG_subprogram, DW_AT_name("HAL_setupClks")
    3055                      .dwattr $C$DW$500, DW_AT_low_pc(_HAL_setupClks)
    3056                      .dwattr $C$DW$500, DW_AT_high_pc(0x00)
    3057                      .dwattr $C$DW$500, DW_AT_TI_symbol_name("_HAL_setupClks")
    3058                      .dwattr $C$DW$500, DW_AT_external
    3059                      .dwattr $C$DW$500, DW_AT_TI_begin_file("C:/ti/motorware/motorware_1_01_00_15/sw/modules/hal/boards/hv
    3060                      .dwattr $C$DW$500, DW_AT_TI_begin_line(0x363)
    3061                      .dwattr $C$DW$500, DW_AT_TI_begin_column(0x06)
    3062                      .dwattr $C$DW$500, DW_AT_TI_max_frame_size(-4)
    3063                      .dwpsn  file "C:/ti/motorware/motorware_1_01_00_15/sw/modules/hal/boards/hvkit_rev1p1/f28x/f2802x/src
TMS320C2000 Assembler PC v6.4.9 Wed Dec 02 17:22:54 2015

Tools Copyright (c) 1996-2015 Texas Instruments Incorporated
C:\Users\ywcheng\AppData\Local\Temp\6082010                          PAGE   59

    3064              
    3065                      .dwfde $C$DW$CIE, _HAL_setupClks
    3066              $C$DW$501       .dwtag  DW_TAG_formal_parameter, DW_AT_name("handle")
    3067                      .dwattr $C$DW$501, DW_AT_TI_symbol_name("_handle")
    3068                      .dwattr $C$DW$501, DW_AT_type(*$C$DW$T$295)
    3069                      .dwattr $C$DW$501, DW_AT_location[DW_OP_reg12]
    3070              
    3071              ;***************************************************************
    3072              ;* FNAME: _HAL_setupClks                FR SIZE:   2           *
    3073              ;*                                                             *
    3074              ;* FUNCTION ENVIRONMENT                                        *
    3075              ;*                                                             *
    3076              ;* FUNCTION PROPERTIES                                         *
    3077              ;*                            0 Parameter,  0 Auto,  2 SOE     *
    3078              ;***************************************************************
    3079              
    3080              _HAL_setupClks:
    3081              ;* AR1   assigned to _handle
    3082              $C$DW$502       .dwtag  DW_TAG_variable, DW_AT_name("handle")
    3083                      .dwattr $C$DW$502, DW_AT_TI_symbol_name("_handle")
    3084                      .dwattr $C$DW$502, DW_AT_type(*$C$DW$T$296)
    3085                      .dwattr $C$DW$502, DW_AT_location[DW_OP_reg6]
    3086                      .dwcfi  cfa_offset, -2
    3087                      .dwcfi  save_reg_to_mem, 26, 0
    3088 00000251 B2BD          MOVL      *SP++,XAR1            ; [CPU_] 
    3089                      .dwcfi  save_reg_to_mem, 7, 2
    3090                      .dwcfi  cfa_offset, -4
    3091 00000252 8BA4          MOVL      XAR1,XAR4             ; [CPU_] |868| 
    3092                      .dwpsn  file "C:/ti/motorware/motorware_1_01_00_15/sw/modules/hal/boards/hvkit_rev1p1/f28x/f2802x/src
    3093 00000253 8AD1          MOVL      XAR4,*+XAR1[2]        ; [CPU_] |873| 
    3094              $C$DW$503       .dwtag  DW_TAG_TI_branch
    3095                      .dwattr $C$DW$503, DW_AT_low_pc(0x00)
    3096                      .dwattr $C$DW$503, DW_AT_name("_CLK_enableOsc1")
    3097                      .dwattr $C$DW$503, DW_AT_TI_call
    3098 00000254 7640!         LCR       #_CLK_enableOsc1      ; [CPU_] |873| 
         00000255 0000 
    3099                      ; call occurs [#_CLK_enableOsc1] ; [] |873| 
    3100                      .dwpsn  file "C:/ti/motorware/motorware_1_01_00_15/sw/modules/hal/boards/hvkit_rev1p1/f28x/f2802x/src
    3101 00000256 9A00          MOVB      AL,#0                 ; [CPU_] |876| 
    3102 00000257 8AD1          MOVL      XAR4,*+XAR1[2]        ; [CPU_] |876| 
    3103              $C$DW$504       .dwtag  DW_TAG_TI_branch
    3104                      .dwattr $C$DW$504, DW_AT_low_pc(0x00)
    3105                      .dwattr $C$DW$504, DW_AT_name("_CLK_setOscSrc")
    3106                      .dwattr $C$DW$504, DW_AT_TI_call
    3107 00000258 7640!         LCR       #_CLK_setOscSrc       ; [CPU_] |876| 
         00000259 0000 
    3108                      ; call occurs [#_CLK_setOscSrc] ; [] |876| 
    3109                      .dwpsn  file "C:/ti/motorware/motorware_1_01_00_15/sw/modules/hal/boards/hvkit_rev1p1/f28x/f2802x/src
    3110 0000025a 8AD1          MOVL      XAR4,*+XAR1[2]        ; [CPU_] |879| 
    3111              $C$DW$505       .dwtag  DW_TAG_TI_branch
    3112                      .dwattr $C$DW$505, DW_AT_low_pc(0x00)
    3113                      .dwattr $C$DW$505, DW_AT_name("_CLK_disableClkIn")
    3114                      .dwattr $C$DW$505, DW_AT_TI_call
    3115 0000025b 7640!         LCR       #_CLK_disableClkIn    ; [CPU_] |879| 
         0000025c 0000 
TMS320C2000 Assembler PC v6.4.9 Wed Dec 02 17:22:54 2015

Tools Copyright (c) 1996-2015 Texas Instruments Incorporated
C:\Users\ywcheng\AppData\Local\Temp\6082010                          PAGE   60

    3116                      ; call occurs [#_CLK_disableClkIn] ; [] |879| 
    3117                      .dwpsn  file "C:/ti/motorware/motorware_1_01_00_15/sw/modules/hal/boards/hvkit_rev1p1/f28x/f2802x/src
    3118 0000025d 8AD1          MOVL      XAR4,*+XAR1[2]        ; [CPU_] |882| 
    3119              $C$DW$506       .dwtag  DW_TAG_TI_branch
    3120                      .dwattr $C$DW$506, DW_AT_low_pc(0x00)
    3121                      .dwattr $C$DW$506, DW_AT_name("_CLK_disableCrystalOsc")
    3122                      .dwattr $C$DW$506, DW_AT_TI_call
    3123 0000025e 7640!         LCR       #_CLK_disableCrystalOsc ; [CPU_] |882| 
         0000025f 0000 
    3124                      ; call occurs [#_CLK_disableCrystalOsc] ; [] |882| 
    3125                      .dwpsn  file "C:/ti/motorware/motorware_1_01_00_15/sw/modules/hal/boards/hvkit_rev1p1/f28x/f2802x/src
    3126 00000260 8AD1          MOVL      XAR4,*+XAR1[2]        ; [CPU_] |885| 
    3127              $C$DW$507       .dwtag  DW_TAG_TI_branch
    3128                      .dwattr $C$DW$507, DW_AT_low_pc(0x00)
    3129                      .dwattr $C$DW$507, DW_AT_name("_CLK_disableOsc2")
    3130                      .dwattr $C$DW$507, DW_AT_TI_call
    3131 00000261 7640!         LCR       #_CLK_disableOsc2     ; [CPU_] |885| 
         00000262 0000 
    3132                      ; call occurs [#_CLK_disableOsc2] ; [] |885| 
    3133                      .dwpsn  file "C:/ti/motorware/motorware_1_01_00_15/sw/modules/hal/boards/hvkit_rev1p1/f28x/f2802x/src
    3134 00000263 9A00          MOVB      AL,#0                 ; [CPU_] |888| 
    3135 00000264 8AD1          MOVL      XAR4,*+XAR1[2]        ; [CPU_] |888| 
    3136              $C$DW$508       .dwtag  DW_TAG_TI_branch
    3137                      .dwattr $C$DW$508, DW_AT_low_pc(0x00)
    3138                      .dwattr $C$DW$508, DW_AT_name("_CLK_setLowSpdPreScaler")
    3139                      .dwattr $C$DW$508, DW_AT_TI_call
    3140 00000265 7640!         LCR       #_CLK_setLowSpdPreScaler ; [CPU_] |888| 
         00000266 0000 
    3141                      ; call occurs [#_CLK_setLowSpdPreScaler] ; [] |888| 
    3142                      .dwpsn  file "C:/ti/motorware/motorware_1_01_00_15/sw/modules/hal/boards/hvkit_rev1p1/f28x/f2802x/src
    3143 00000267 9A02          MOVB      AL,#2                 ; [CPU_] |891| 
    3144 00000268 8AD1          MOVL      XAR4,*+XAR1[2]        ; [CPU_] |891| 
    3145              $C$DW$509       .dwtag  DW_TAG_TI_branch
    3146                      .dwattr $C$DW$509, DW_AT_low_pc(0x00)
    3147                      .dwattr $C$DW$509, DW_AT_name("_CLK_setClkOutPreScaler")
    3148                      .dwattr $C$DW$509, DW_AT_TI_call
    3149 00000269 7640!         LCR       #_CLK_setClkOutPreScaler ; [CPU_] |891| 
         0000026a 0000 
    3150                      ; call occurs [#_CLK_setClkOutPreScaler] ; [] |891| 
    3151 0000026b 8BBE          MOVL      XAR1,*--SP            ; [CPU_] 
    3152                      .dwcfi  cfa_offset, -2
    3153                      .dwcfi  restore_reg, 7
    3154              $C$DW$510       .dwtag  DW_TAG_TI_branch
    3155                      .dwattr $C$DW$510, DW_AT_low_pc(0x00)
    3156                      .dwattr $C$DW$510, DW_AT_TI_return
    3157 0000026c 0006          LRETR     ; [CPU_] 
    3158                      ; return occurs ; [] 
    3159                      .dwattr $C$DW$500, DW_AT_TI_end_file("C:/ti/motorware/motorware_1_01_00_15/sw/modules/hal/boards/hvki
    3160                      .dwattr $C$DW$500, DW_AT_TI_end_line(0x37e)
    3161                      .dwattr $C$DW$500, DW_AT_TI_end_column(0x01)
    3162                      .dwendentry
    3163                      .dwendtag $C$DW$500
    3164              
    3165 0000026d               .sect   ".text"
    3166                      .clink
TMS320C2000 Assembler PC v6.4.9 Wed Dec 02 17:22:54 2015

Tools Copyright (c) 1996-2015 Texas Instruments Incorporated
C:\Users\ywcheng\AppData\Local\Temp\6082010                          PAGE   61

    3167                      .global _HAL_setupAdcs
    3168              
    3169              $C$DW$511       .dwtag  DW_TAG_subprogram, DW_AT_name("HAL_setupAdcs")
    3170                      .dwattr $C$DW$511, DW_AT_low_pc(_HAL_setupAdcs)
    3171                      .dwattr $C$DW$511, DW_AT_high_pc(0x00)
    3172                      .dwattr $C$DW$511, DW_AT_TI_symbol_name("_HAL_setupAdcs")
    3173                      .dwattr $C$DW$511, DW_AT_external
    3174                      .dwattr $C$DW$511, DW_AT_TI_begin_file("C:/ti/motorware/motorware_1_01_00_15/sw/modules/hal/boards/hv
    3175                      .dwattr $C$DW$511, DW_AT_TI_begin_line(0x312)
    3176                      .dwattr $C$DW$511, DW_AT_TI_begin_column(0x06)
    3177                      .dwattr $C$DW$511, DW_AT_TI_max_frame_size(-4)
    3178                      .dwpsn  file "C:/ti/motorware/motorware_1_01_00_15/sw/modules/hal/boards/hvkit_rev1p1/f28x/f2802x/src
    3179              
    3180                      .dwfde $C$DW$CIE, _HAL_setupAdcs
    3181              $C$DW$512       .dwtag  DW_TAG_formal_parameter, DW_AT_name("handle")
    3182                      .dwattr $C$DW$512, DW_AT_TI_symbol_name("_handle")
    3183                      .dwattr $C$DW$512, DW_AT_type(*$C$DW$T$295)
    3184                      .dwattr $C$DW$512, DW_AT_location[DW_OP_reg12]
    3185              
    3186              ;***************************************************************
    3187              ;* FNAME: _HAL_setupAdcs                FR SIZE:   2           *
    3188              ;*                                                             *
    3189              ;* FUNCTION ENVIRONMENT                                        *
    3190              ;*                                                             *
    3191              ;* FUNCTION PROPERTIES                                         *
    3192              ;*                            0 Parameter,  0 Auto,  2 SOE     *
    3193              ;***************************************************************
    3194              
    3195              _HAL_setupAdcs:
    3196              ;* AR1   assigned to _handle
    3197              $C$DW$513       .dwtag  DW_TAG_variable, DW_AT_name("handle")
    3198                      .dwattr $C$DW$513, DW_AT_TI_symbol_name("_handle")
    3199                      .dwattr $C$DW$513, DW_AT_type(*$C$DW$T$296)
    3200                      .dwattr $C$DW$513, DW_AT_location[DW_OP_reg6]
    3201                      .dwcfi  cfa_offset, -2
    3202                      .dwcfi  save_reg_to_mem, 26, 0
    3203 0000026d B2BD          MOVL      *SP++,XAR1            ; [CPU_] 
    3204                      .dwcfi  save_reg_to_mem, 7, 2
    3205                      .dwcfi  cfa_offset, -4
    3206 0000026e 8BA4          MOVL      XAR1,XAR4             ; [CPU_] |787| 
    3207                      .dwpsn  file "C:/ti/motorware/motorware_1_01_00_15/sw/modules/hal/boards/hvkit_rev1p1/f28x/f2802x/src
    3208 0000026f 8AC1          MOVL      XAR4,*+XAR1[0]        ; [CPU_] |792| 
    3209              $C$DW$514       .dwtag  DW_TAG_TI_branch
    3210                      .dwattr $C$DW$514, DW_AT_low_pc(0x00)
    3211                      .dwattr $C$DW$514, DW_AT_name("_ADC_disable")
    3212                      .dwattr $C$DW$514, DW_AT_TI_call
    3213 00000270 7640!         LCR       #_ADC_disable         ; [CPU_] |792| 
         00000271 0000 
    3214                      ; call occurs [#_ADC_disable] ; [] |792| 
    3215                      .dwpsn  file "C:/ti/motorware/motorware_1_01_00_15/sw/modules/hal/boards/hvkit_rev1p1/f28x/f2802x/src
    3216 00000272 8AC1          MOVL      XAR4,*+XAR1[0]        ; [CPU_] |796| 
    3217              $C$DW$515       .dwtag  DW_TAG_TI_branch
    3218                      .dwattr $C$DW$515, DW_AT_low_pc(0x00)
    3219                      .dwattr $C$DW$515, DW_AT_name("_ADC_enableBandGap")
    3220                      .dwattr $C$DW$515, DW_AT_TI_call
TMS320C2000 Assembler PC v6.4.9 Wed Dec 02 17:22:54 2015

Tools Copyright (c) 1996-2015 Texas Instruments Incorporated
C:\Users\ywcheng\AppData\Local\Temp\6082010                          PAGE   62

    3221 00000273 7640!         LCR       #_ADC_enableBandGap   ; [CPU_] |796| 
         00000274 0000 
    3222                      ; call occurs [#_ADC_enableBandGap] ; [] |796| 
    3223                      .dwpsn  file "C:/ti/motorware/motorware_1_01_00_15/sw/modules/hal/boards/hvkit_rev1p1/f28x/f2802x/src
    3224 00000275 9A00          MOVB      AL,#0                 ; [CPU_] |800| 
    3225 00000276 8AC1          MOVL      XAR4,*+XAR1[0]        ; [CPU_] |800| 
    3226              $C$DW$516       .dwtag  DW_TAG_TI_branch
    3227                      .dwattr $C$DW$516, DW_AT_low_pc(0x00)
    3228                      .dwattr $C$DW$516, DW_AT_name("_ADC_setVoltRefSrc")
    3229                      .dwattr $C$DW$516, DW_AT_TI_call
    3230 00000277 7640!         LCR       #_ADC_setVoltRefSrc   ; [CPU_] |800| 
         00000278 0000 
    3231                      ; call occurs [#_ADC_setVoltRefSrc] ; [] |800| 
    3232                      .dwpsn  file "C:/ti/motorware/motorware_1_01_00_15/sw/modules/hal/boards/hvkit_rev1p1/f28x/f2802x/src
    3233 00000279 8AC1          MOVL      XAR4,*+XAR1[0]        ; [CPU_] |804| 
    3234              $C$DW$517       .dwtag  DW_TAG_TI_branch
    3235                      .dwattr $C$DW$517, DW_AT_low_pc(0x00)
    3236                      .dwattr $C$DW$517, DW_AT_name("_ADC_enableRefBuffers")
    3237                      .dwattr $C$DW$517, DW_AT_TI_call
    3238 0000027a 7640!         LCR       #_ADC_enableRefBuffers ; [CPU_] |804| 
         0000027b 0000 
    3239                      ; call occurs [#_ADC_enableRefBuffers] ; [] |804| 
    3240                      .dwpsn  file "C:/ti/motorware/motorware_1_01_00_15/sw/modules/hal/boards/hvkit_rev1p1/f28x/f2802x/src
    3241 0000027c 8AC1          MOVL      XAR4,*+XAR1[0]        ; [CPU_] |808| 
    3242              $C$DW$518       .dwtag  DW_TAG_TI_branch
    3243                      .dwattr $C$DW$518, DW_AT_low_pc(0x00)
    3244                      .dwattr $C$DW$518, DW_AT_name("_ADC_powerUp")
    3245                      .dwattr $C$DW$518, DW_AT_TI_call
    3246 0000027d 7640!         LCR       #_ADC_powerUp         ; [CPU_] |808| 
         0000027e 0000 
    3247                      ; call occurs [#_ADC_powerUp] ; [] |808| 
    3248                      .dwpsn  file "C:/ti/motorware/motorware_1_01_00_15/sw/modules/hal/boards/hvkit_rev1p1/f28x/f2802x/src
    3249 0000027f 8AC1          MOVL      XAR4,*+XAR1[0]        ; [CPU_] |812| 
    3250              $C$DW$519       .dwtag  DW_TAG_TI_branch
    3251                      .dwattr $C$DW$519, DW_AT_low_pc(0x00)
    3252                      .dwattr $C$DW$519, DW_AT_name("_ADC_enable")
    3253                      .dwattr $C$DW$519, DW_AT_TI_call
    3254 00000280 7640!         LCR       #_ADC_enable          ; [CPU_] |812| 
         00000281 0000 
    3255                      ; call occurs [#_ADC_enable] ; [] |812| 
    3256                      .dwpsn  file "C:/ti/motorware/motorware_1_01_00_15/sw/modules/hal/boards/hvkit_rev1p1/f28x/f2802x/src
    3257 00000282 9A04          MOVB      AL,#4                 ; [CPU_] |816| 
    3258 00000283 8AC1          MOVL      XAR4,*+XAR1[0]        ; [CPU_] |816| 
    3259              $C$DW$520       .dwtag  DW_TAG_TI_branch
    3260                      .dwattr $C$DW$520, DW_AT_low_pc(0x00)
    3261                      .dwattr $C$DW$520, DW_AT_name("_ADC_setIntPulseGenMode")
    3262                      .dwattr $C$DW$520, DW_AT_TI_call
    3263 00000284 7640!         LCR       #_ADC_setIntPulseGenMode ; [CPU_] |816| 
         00000285 0000 
    3264                      ; call occurs [#_ADC_setIntPulseGenMode] ; [] |816| 
    3265                      .dwpsn  file "C:/ti/motorware/motorware_1_01_00_15/sw/modules/hal/boards/hvkit_rev1p1/f28x/f2802x/src
    3266 00000286 9A00          MOVB      AL,#0                 ; [CPU_] |820| 
    3267 00000287 8AC1          MOVL      XAR4,*+XAR1[0]        ; [CPU_] |820| 
    3268              $C$DW$521       .dwtag  DW_TAG_TI_branch
    3269                      .dwattr $C$DW$521, DW_AT_low_pc(0x00)
TMS320C2000 Assembler PC v6.4.9 Wed Dec 02 17:22:54 2015

