TMS320C2000 Assembler PC v6.4.9 Wed Dec 02 17:22:56 2015

Tools Copyright (c) 1996-2015 Texas Instruments Incorporated
C:\Users\ywcheng\AppData\Local\Temp\5808410                          PAGE    1

       1              ;***************************************************************
       2              ;* TMS320C2000 C/C++ Codegen                         PC v6.4.9 *
       3              ;* Date/Time created: Wed Dec 02 17:22:56 2015                 *
       4              ;***************************************************************
       5                      .compiler_opts --float_support=softlib --hll_source=on --mem_model:code=flat --mem_model:data=large -
       6        0002  FP      .set    XAR2
       7              
       8              $C$DW$CU        .dwtag  DW_TAG_compile_unit
       9                      .dwattr $C$DW$CU, DW_AT_name("C:/ti/motorware/motorware_1_01_00_15/sw/solutions/instaspin_foc/src/pro
      10                      .dwattr $C$DW$CU, DW_AT_producer("TI TMS320C2000 C/C++ Codegen PC v6.4.9 Copyright (c) 1996-2015 Texa
      11                      .dwattr $C$DW$CU, DW_AT_TI_version(0x01)
      12                      .dwattr $C$DW$CU, DW_AT_comp_dir("C:\ti\motorware\motorware_1_01_00_15\sw\solutions\instaspin_foc\boa
      13              ;**************************************************************
      14              ;* CINIT RECORDS                                              *
      15              ;**************************************************************
      16 00000000               .sect   ".cinit"
      17                      .align  1
      18 00000000 FFFF          .field          -1,16
      19 00000001 0000-         .field          _Flag_Latch_softwareUpdate+0,32
         00000002 0000 
      20 00000003 0001          .bits   1,16                    ; _Flag_Latch_softwareUpdate @ 0
      21              
      22 00000004               .sect   ".cinit"
      23                      .align  1
      24 00000004 FFFF          .field          -1,16
      25 00000005 0001-         .field          _gLEDcnt+0,32
         00000006 0000 
      26 00000007 0000          .bits   0,16                    ; _gLEDcnt @ 0
      27              
      28 00000008               .sect   ".cinit"
      29                      .align  1
      30 00000008 FFFF          .field          -1,16
      31 00000009 0002-         .field          _gCounter_updateGlobals+0,32
         0000000a 0000 
      32 0000000b 0000          .bits   0,16                    ; _gCounter_updateGlobals @ 0
      33              
      34 0000000c               .sect   ".cinit"
      35                      .align  1
      36 0000000c FFFE          .field          -2,16
      37 0000000d 0004-         .field          _gMaxCurrentSlope+0,32
         0000000e 0000 
      38 0000000f 0000          .bits   0,32                    ; _gMaxCurrentSlope @ 0
         00000010 0000 
      39              
      40 00000011               .sect   ".cinit"
      41                      .align  1
      42 00000011 FFFA          .field          -$C$IR_1,16
      43 00000012 0008-         .field          _gPwmData+0,32
         00000013 0000 
      44 00000014 0000          .bits   0,32                    ; _gPwmData._Tabc._value[0] @ 0
         00000015 0000 
      45 00000016 0000          .bits   0,32                    ; _gPwmData._Tabc._value[1] @ 32
         00000017 0000 
      46 00000018 0000          .bits   0,32                    ; _gPwmData._Tabc._value[2] @ 64
         00000019 0000 
TMS320C2000 Assembler PC v6.4.9 Wed Dec 02 17:22:56 2015

Tools Copyright (c) 1996-2015 Texas Instruments Incorporated
C:\Users\ywcheng\AppData\Local\Temp\5808410                          PAGE    2

      47        0006  $C$IR_1:        .set    6
      48              
      49 0000001a               .sect   ".cinit"
      50                      .align  1
      51 0000001a FF98          .field          -$C$IR_2,16
      52 0000001b 0040-         .field          _gMotorVars+0,32
         0000001c 0000 
      53 0000001d 0000          .bits   0,16                    ; _gMotorVars._Flag_enableSys @ 0
      54 0000001e 0000          .bits   0,16                    ; _gMotorVars._Flag_Run_Identify @ 16
      55 0000001f 0000          .bits   0,16                    ; _gMotorVars._Flag_MotorIdentified @ 32
      56 00000020 0001          .bits   1,16                    ; _gMotorVars._Flag_enableForceAngle @ 48
      57 00000021 0000          .bits   0,16                    ; _gMotorVars._Flag_enableFieldWeakening @ 64
      58 00000022 0000          .bits   0,16                    ; _gMotorVars._Flag_enableRsRecalc @ 80
      59 00000023 0001          .bits   1,16                    ; _gMotorVars._Flag_enableUserParams @ 96
      60 00000024 0001          .bits   1,16                    ; _gMotorVars._Flag_enableOffsetcalc @ 112
      61 00000025 0000          .bits   0,16                    ; _gMotorVars._Flag_enablePowerWarp @ 128
      62 00000026 0000          .bits   0,16                    ; _gMotorVars._Flag_enableSpeedCtrl @ 144
      63 00000027 0001          .bits   1,16                    ; _gMotorVars._CtrlState @ 160
      64 00000028 0001          .bits   1,16                    ; _gMotorVars._EstState @ 176
      65 00000029 0000          .bits   0,16                    ; _gMotorVars._UserErrorCode @ 192
      66 0000002a 0000          .bits   0,16                    ; _gMotorVars._CtrlVersion._rsvd @ 208
      67 0000002b 0004          .bits   4,16                    ; _gMotorVars._CtrlVersion._targetProc @ 224
      68 0000002c 0000          .bits   0,16                    ; _gMotorVars._CtrlVersion._major @ 240
      69 0000002d 0000          .bits   0,16                    ; _gMotorVars._CtrlVersion._minor @ 256
      70 0000002e               .space  16
      71 0000002f 0000          .bits   0,32                    ; _gMotorVars._IdRef_A @ 288
         00000030 0000 
      72 00000031 0000          .bits   0,32                    ; _gMotorVars._IqRef_A @ 320
         00000032 0000 
      73 00000033 0000          .bits   0,32                    ; _gMotorVars._SpeedRef_pu @ 352
         00000034 0000 
      74 00000035 9999          .bits   1677721,32                      ; _gMotorVars._SpeedRef_krpm @ 384
         00000036 0019 
      75 00000037 0000          .bits   0,32                    ; _gMotorVars._SpeedTraj_krpm @ 416
         00000038 0000 
      76 00000039 3333          .bits   3355443,32                      ; _gMotorVars._MaxAccel_krpmps @ 448
         0000003a 0033 
      77 0000003b 0000          .bits   0,32                    ; _gMotorVars._Speed_krpm @ 480
         0000003c 0000 
      78 0000003d AAAB          .bits   11184811,32                     ; _gMotorVars._OverModulation @ 512
         0000003e 00AA 
      79 0000003f CAC0          .bits   6408896,32                      ; _gMotorVars._RsOnLineCurrent_A @ 544
         00000040 0061 
      80 00000041 0190          .bits   400,32                  ; _gMotorVars._SvgenMaxModulation_ticks @ 576
         00000042 0000 
      81 00000043 0000          .bits   0,32                    ; _gMotorVars._Flux_Wb @ 608
         00000044 0000 
      82 00000045 0000          .bits   0,32                    ; _gMotorVars._Torque_Nm @ 640
         00000046 0000 
      83 00000047 0000          .xfloat $strtod("0x0p+0")               ; _gMotorVars._MagnCurr_A @ 672
         00000048 0000 
      84 00000049 0000          .xfloat $strtod("0x0p+0")               ; _gMotorVars._Rr_Ohm @ 704
         0000004a 0000 
      85 0000004b 0000          .xfloat $strtod("0x0p+0")               ; _gMotorVars._Rs_Ohm @ 736
         0000004c 0000 
TMS320C2000 Assembler PC v6.4.9 Wed Dec 02 17:22:56 2015

Tools Copyright (c) 1996-2015 Texas Instruments Incorporated
C:\Users\ywcheng\AppData\Local\Temp\5808410                          PAGE    3

      86 0000004d 0000          .xfloat $strtod("0x0p+0")               ; _gMotorVars._RsOnLine_Ohm @ 768
         0000004e 0000 
      87 0000004f 0000          .xfloat $strtod("0x0p+0")               ; _gMotorVars._Lsd_H @ 800
         00000050 0000 
      88 00000051 0000          .xfloat $strtod("0x0p+0")               ; _gMotorVars._Lsq_H @ 832
         00000052 0000 
      89 00000053 0000          .xfloat $strtod("0x0p+0")               ; _gMotorVars._Flux_VpHz @ 864
         00000054 0000 
      90 00000055 0000          .xfloat $strtod("0x0p+0")               ; _gMotorVars._ipd_excFreq_Hz @ 896
         00000056 0000 
      91 00000057 0000          .bits   0,32                    ; _gMotorVars._ipd_Kspd @ 928
         00000058 0000 
      92 00000059 0000          .bits   0,32                    ; _gMotorVars._ipd_excMag_coarse_pu @ 960
         0000005a 0000 
      93 0000005b 0000          .bits   0,32                    ; _gMotorVars._ipd_excMag_fine_pu @ 992
         0000005c 0000 
      94 0000005d 0000          .xfloat $strtod("0x0p+0")               ; _gMotorVars._ipd_waitTime_coarse_sec @ 1024
         0000005e 0000 
      95 0000005f 0000          .xfloat $strtod("0x0p+0")               ; _gMotorVars._ipd_waitTime_fine_sec @ 1056
         00000060 0000 
      96 00000061 0000          .bits   0,32                    ; _gMotorVars._Kp_spd @ 1088
         00000062 0000 
      97 00000063 0000          .bits   0,32                    ; _gMotorVars._Ki_spd @ 1120
         00000064 0000 
      98 00000065 0000          .bits   0,32                    ; _gMotorVars._Kp_Idq @ 1152
         00000066 0000 
      99 00000067 0000          .bits   0,32                    ; _gMotorVars._Ki_Idq @ 1184
         00000068 0000 
     100 00000069 0000          .bits   0,32                    ; _gMotorVars._Vd @ 1216
         0000006a 0000 
     101 0000006b 0000          .bits   0,32                    ; _gMotorVars._Vq @ 1248
         0000006c 0000 
     102 0000006d 0000          .bits   0,32                    ; _gMotorVars._Vs @ 1280
         0000006e 0000 
     103 0000006f 8889          .bits   8947849,32                      ; _gMotorVars._VsRef @ 1312
         00000070 0088 
     104 00000071 0000          .bits   0,32                    ; _gMotorVars._VdcBus_kV @ 1344
         00000072 0000 
     105 00000073 0000          .bits   0,32                    ; _gMotorVars._Id_A @ 1376
         00000074 0000 
     106 00000075 0000          .bits   0,32                    ; _gMotorVars._Iq_A @ 1408
         00000076 0000 
     107 00000077 0000          .bits   0,32                    ; _gMotorVars._Is_A @ 1440
         00000078 0000 
     108 00000079 0000          .bits   0,32                    ; _gMotorVars._I_bias._value[0] @ 1472
         0000007a 0000 
     109 0000007b 0000          .bits   0,32                    ; _gMotorVars._I_bias._value[1] @ 1504
         0000007c 0000 
     110 0000007d 0000          .bits   0,32                    ; _gMotorVars._I_bias._value[2] @ 1536
         0000007e 0000 
     111 0000007f 0000          .bits   0,32                    ; _gMotorVars._V_bias._value[0] @ 1568
         00000080 0000 
     112 00000081 0000          .bits   0,32                    ; _gMotorVars._V_bias._value[1] @ 1600
         00000082 0000 
     113 00000083 0000          .bits   0,32                    ; _gMotorVars._V_bias._value[2] @ 1632
TMS320C2000 Assembler PC v6.4.9 Wed Dec 02 17:22:56 2015

Tools Copyright (c) 1996-2015 Texas Instruments Incorporated
C:\Users\ywcheng\AppData\Local\Temp\5808410                          PAGE    4

         00000084 0000 
     114        0068  $C$IR_2:        .set    104
     115              
     116              
     117              $C$DW$1 .dwtag  DW_TAG_subprogram, DW_AT_name("CTRL_setSpd_ref_krpm")
     118                      .dwattr $C$DW$1, DW_AT_TI_symbol_name("_CTRL_setSpd_ref_krpm")
     119                      .dwattr $C$DW$1, DW_AT_declaration
     120                      .dwattr $C$DW$1, DW_AT_external
     121              $C$DW$2 .dwtag  DW_TAG_formal_parameter
     122                      .dwattr $C$DW$2, DW_AT_type(*$C$DW$T$160)
     123              $C$DW$3 .dwtag  DW_TAG_formal_parameter
     124                      .dwattr $C$DW$3, DW_AT_type(*$C$DW$T$236)
     125                      .dwendtag $C$DW$1
     126              
     127              
     128              $C$DW$4 .dwtag  DW_TAG_subprogram, DW_AT_name("CTRL_setParams")
     129                      .dwattr $C$DW$4, DW_AT_TI_symbol_name("_CTRL_setParams")
     130                      .dwattr $C$DW$4, DW_AT_declaration
     131                      .dwattr $C$DW$4, DW_AT_external
     132              $C$DW$5 .dwtag  DW_TAG_formal_parameter
     133                      .dwattr $C$DW$5, DW_AT_type(*$C$DW$T$160)
     134              $C$DW$6 .dwtag  DW_TAG_formal_parameter
     135                      .dwattr $C$DW$6, DW_AT_type(*$C$DW$T$167)
     136                      .dwendtag $C$DW$4
     137              
     138              
     139              $C$DW$7 .dwtag  DW_TAG_subprogram, DW_AT_name("HAL_enableAdcInts")
     140                      .dwattr $C$DW$7, DW_AT_TI_symbol_name("_HAL_enableAdcInts")
     141                      .dwattr $C$DW$7, DW_AT_declaration
     142                      .dwattr $C$DW$7, DW_AT_external
     143              $C$DW$8 .dwtag  DW_TAG_formal_parameter
     144                      .dwattr $C$DW$8, DW_AT_type(*$C$DW$T$210)
     145                      .dwendtag $C$DW$7
     146              
     147              
     148              $C$DW$9 .dwtag  DW_TAG_subprogram, DW_AT_name("CTRL_setup")
     149                      .dwattr $C$DW$9, DW_AT_TI_symbol_name("_CTRL_setup")
     150                      .dwattr $C$DW$9, DW_AT_declaration
     151                      .dwattr $C$DW$9, DW_AT_external
     152              $C$DW$10        .dwtag  DW_TAG_formal_parameter
     153                      .dwattr $C$DW$10, DW_AT_type(*$C$DW$T$160)
     154                      .dwendtag $C$DW$9
     155              
     156              
     157              $C$DW$11        .dwtag  DW_TAG_subprogram, DW_AT_name("CTRL_run")
     158                      .dwattr $C$DW$11, DW_AT_TI_symbol_name("_CTRL_run")
     159                      .dwattr $C$DW$11, DW_AT_declaration
     160                      .dwattr $C$DW$11, DW_AT_external
     161              $C$DW$12        .dwtag  DW_TAG_formal_parameter
     162                      .dwattr $C$DW$12, DW_AT_type(*$C$DW$T$160)
     163              $C$DW$13        .dwtag  DW_TAG_formal_parameter
     164                      .dwattr $C$DW$13, DW_AT_type(*$C$DW$T$210)
     165              $C$DW$14        .dwtag  DW_TAG_formal_parameter
     166                      .dwattr $C$DW$14, DW_AT_type(*$C$DW$T$204)
     167              $C$DW$15        .dwtag  DW_TAG_formal_parameter
TMS320C2000 Assembler PC v6.4.9 Wed Dec 02 17:22:56 2015

Tools Copyright (c) 1996-2015 Texas Instruments Incorporated
C:\Users\ywcheng\AppData\Local\Temp\5808410                          PAGE    5

     168                      .dwattr $C$DW$15, DW_AT_type(*$C$DW$T$215)
     169                      .dwendtag $C$DW$11
     170              
     171              
     172              $C$DW$16        .dwtag  DW_TAG_subprogram, DW_AT_name("USER_calcPIgains")
     173                      .dwattr $C$DW$16, DW_AT_TI_symbol_name("_USER_calcPIgains")
     174                      .dwattr $C$DW$16, DW_AT_declaration
     175                      .dwattr $C$DW$16, DW_AT_external
     176              $C$DW$17        .dwtag  DW_TAG_formal_parameter
     177                      .dwattr $C$DW$17, DW_AT_type(*$C$DW$T$160)
     178                      .dwendtag $C$DW$16
     179              
     180              
     181              $C$DW$18        .dwtag  DW_TAG_subprogram, DW_AT_name("CTRL_getVersion")
     182                      .dwattr $C$DW$18, DW_AT_TI_symbol_name("_CTRL_getVersion")
     183                      .dwattr $C$DW$18, DW_AT_declaration
     184                      .dwattr $C$DW$18, DW_AT_external
     185              $C$DW$19        .dwtag  DW_TAG_formal_parameter
     186                      .dwattr $C$DW$19, DW_AT_type(*$C$DW$T$160)
     187              $C$DW$20        .dwtag  DW_TAG_formal_parameter
     188                      .dwattr $C$DW$20, DW_AT_type(*$C$DW$T$200)
     189                      .dwendtag $C$DW$18
     190              
     191              
     192              $C$DW$21        .dwtag  DW_TAG_subprogram, DW_AT_name("USER_softwareUpdate1p6")
     193                      .dwattr $C$DW$21, DW_AT_TI_symbol_name("_USER_softwareUpdate1p6")
     194                      .dwattr $C$DW$21, DW_AT_declaration
     195                      .dwattr $C$DW$21, DW_AT_external
     196              $C$DW$22        .dwtag  DW_TAG_formal_parameter
     197                      .dwattr $C$DW$22, DW_AT_type(*$C$DW$T$160)
     198                      .dwendtag $C$DW$21
     199              
     200              
     201              $C$DW$23        .dwtag  DW_TAG_subprogram, DW_AT_name("HAL_setupFaults")
     202                      .dwattr $C$DW$23, DW_AT_TI_symbol_name("_HAL_setupFaults")
     203                      .dwattr $C$DW$23, DW_AT_declaration
     204                      .dwattr $C$DW$23, DW_AT_external
     205              $C$DW$24        .dwtag  DW_TAG_formal_parameter
     206                      .dwattr $C$DW$24, DW_AT_type(*$C$DW$T$210)
     207                      .dwendtag $C$DW$23
     208              
     209              
     210              $C$DW$25        .dwtag  DW_TAG_subprogram, DW_AT_name("HAL_enableGlobalInts")
     211                      .dwattr $C$DW$25, DW_AT_TI_symbol_name("_HAL_enableGlobalInts")
     212                      .dwattr $C$DW$25, DW_AT_declaration
     213                      .dwattr $C$DW$25, DW_AT_external
     214              $C$DW$26        .dwtag  DW_TAG_formal_parameter
     215                      .dwattr $C$DW$26, DW_AT_type(*$C$DW$T$210)
     216                      .dwendtag $C$DW$25
     217              
     218              
     219              $C$DW$27        .dwtag  DW_TAG_subprogram, DW_AT_name("HAL_setParams")
     220                      .dwattr $C$DW$27, DW_AT_TI_symbol_name("_HAL_setParams")
     221                      .dwattr $C$DW$27, DW_AT_declaration
     222                      .dwattr $C$DW$27, DW_AT_external
TMS320C2000 Assembler PC v6.4.9 Wed Dec 02 17:22:56 2015

Tools Copyright (c) 1996-2015 Texas Instruments Incorporated
C:\Users\ywcheng\AppData\Local\Temp\5808410                          PAGE    6

     223              $C$DW$28        .dwtag  DW_TAG_formal_parameter
     224                      .dwattr $C$DW$28, DW_AT_type(*$C$DW$T$210)
     225              $C$DW$29        .dwtag  DW_TAG_formal_parameter
     226                      .dwattr $C$DW$29, DW_AT_type(*$C$DW$T$227)
     227                      .dwendtag $C$DW$27
     228              
     229              
     230              $C$DW$30        .dwtag  DW_TAG_subprogram, DW_AT_name("GPIO_toggle")
     231                      .dwattr $C$DW$30, DW_AT_TI_symbol_name("_GPIO_toggle")
     232                      .dwattr $C$DW$30, DW_AT_declaration
     233                      .dwattr $C$DW$30, DW_AT_external
     234              $C$DW$31        .dwtag  DW_TAG_formal_parameter
     235                      .dwattr $C$DW$31, DW_AT_type(*$C$DW$T$91)
     236              $C$DW$32        .dwtag  DW_TAG_formal_parameter
     237                      .dwattr $C$DW$32, DW_AT_type(*$C$DW$T$179)
     238                      .dwendtag $C$DW$30
     239              
     240              
     241              $C$DW$33        .dwtag  DW_TAG_subprogram, DW_AT_name("EST_setMaxCurrentSlope_pu")
     242                      .dwattr $C$DW$33, DW_AT_TI_symbol_name("_EST_setMaxCurrentSlope_pu")
     243                      .dwattr $C$DW$33, DW_AT_declaration
     244                      .dwattr $C$DW$33, DW_AT_external
     245              $C$DW$34        .dwtag  DW_TAG_formal_parameter
     246                      .dwattr $C$DW$34, DW_AT_type(*$C$DW$T$46)
     247              $C$DW$35        .dwtag  DW_TAG_formal_parameter
     248                      .dwattr $C$DW$35, DW_AT_type(*$C$DW$T$236)
     249                      .dwendtag $C$DW$33
     250              
     251              
     252              $C$DW$36        .dwtag  DW_TAG_subprogram, DW_AT_name("EST_setDir_qFmt")
     253                      .dwattr $C$DW$36, DW_AT_TI_symbol_name("_EST_setDir_qFmt")
     254                      .dwattr $C$DW$36, DW_AT_declaration
     255                      .dwattr $C$DW$36, DW_AT_external
     256              $C$DW$37        .dwtag  DW_TAG_formal_parameter
     257                      .dwattr $C$DW$37, DW_AT_type(*$C$DW$T$46)
     258              $C$DW$38        .dwtag  DW_TAG_formal_parameter
     259                      .dwattr $C$DW$38, DW_AT_type(*$C$DW$T$193)
     260                      .dwendtag $C$DW$36
     261              
     262              
     263              $C$DW$39        .dwtag  DW_TAG_subprogram, DW_AT_name("memCopy")
     264                      .dwattr $C$DW$39, DW_AT_TI_symbol_name("_memCopy")
     265                      .dwattr $C$DW$39, DW_AT_declaration
     266                      .dwattr $C$DW$39, DW_AT_external
     267              $C$DW$40        .dwtag  DW_TAG_formal_parameter
     268                      .dwattr $C$DW$40, DW_AT_type(*$C$DW$T$230)
     269              $C$DW$41        .dwtag  DW_TAG_formal_parameter
     270                      .dwattr $C$DW$41, DW_AT_type(*$C$DW$T$230)
     271              $C$DW$42        .dwtag  DW_TAG_formal_parameter
     272                      .dwattr $C$DW$42, DW_AT_type(*$C$DW$T$230)
     273                      .dwendtag $C$DW$39
     274              
     275              
     276              $C$DW$43        .dwtag  DW_TAG_subprogram, DW_AT_name("EST_setFe_pos_min_pu")
     277                      .dwattr $C$DW$43, DW_AT_TI_symbol_name("_EST_setFe_pos_min_pu")
TMS320C2000 Assembler PC v6.4.9 Wed Dec 02 17:22:56 2015

Tools Copyright (c) 1996-2015 Texas Instruments Incorporated
C:\Users\ywcheng\AppData\Local\Temp\5808410                          PAGE    7

     278                      .dwattr $C$DW$43, DW_AT_declaration
     279                      .dwattr $C$DW$43, DW_AT_external
     280              $C$DW$44        .dwtag  DW_TAG_formal_parameter
     281                      .dwattr $C$DW$44, DW_AT_type(*$C$DW$T$46)
     282              $C$DW$45        .dwtag  DW_TAG_formal_parameter
     283                      .dwattr $C$DW$45, DW_AT_type(*$C$DW$T$236)
     284                      .dwendtag $C$DW$43
     285              
     286              
     287              $C$DW$46        .dwtag  DW_TAG_subprogram, DW_AT_name("EST_setFlag_enableForceAngle")
     288                      .dwattr $C$DW$46, DW_AT_TI_symbol_name("_EST_setFlag_enableForceAngle")
     289                      .dwattr $C$DW$46, DW_AT_declaration
     290                      .dwattr $C$DW$46, DW_AT_external
     291              $C$DW$47        .dwtag  DW_TAG_formal_parameter
     292                      .dwattr $C$DW$47, DW_AT_type(*$C$DW$T$46)
     293              $C$DW$48        .dwtag  DW_TAG_formal_parameter
     294                      .dwattr $C$DW$48, DW_AT_type(*$C$DW$T$233)
     295                      .dwendtag $C$DW$46
     296              
     297              
     298              $C$DW$49        .dwtag  DW_TAG_subprogram, DW_AT_name("USER_checkForErrors")
     299                      .dwattr $C$DW$49, DW_AT_TI_symbol_name("_USER_checkForErrors")
     300                      .dwattr $C$DW$49, DW_AT_declaration
     301                      .dwattr $C$DW$49, DW_AT_external
     302              $C$DW$50        .dwtag  DW_TAG_formal_parameter
     303                      .dwattr $C$DW$50, DW_AT_type(*$C$DW$T$167)
     304                      .dwendtag $C$DW$49
     305              
     306              
     307              $C$DW$51        .dwtag  DW_TAG_subprogram, DW_AT_name("HAL_enableDebugInt")
     308                      .dwattr $C$DW$51, DW_AT_TI_symbol_name("_HAL_enableDebugInt")
     309                      .dwattr $C$DW$51, DW_AT_declaration
     310                      .dwattr $C$DW$51, DW_AT_external
     311              $C$DW$52        .dwtag  DW_TAG_formal_parameter
     312                      .dwattr $C$DW$52, DW_AT_type(*$C$DW$T$210)
     313                      .dwendtag $C$DW$51
     314              
     315              
     316              $C$DW$53        .dwtag  DW_TAG_subprogram, DW_AT_name("USER_setParams")
     317                      .dwattr $C$DW$53, DW_AT_TI_symbol_name("_USER_setParams")
     318                      .dwattr $C$DW$53, DW_AT_declaration
     319                      .dwattr $C$DW$53, DW_AT_external
     320              $C$DW$54        .dwtag  DW_TAG_formal_parameter
     321                      .dwattr $C$DW$54, DW_AT_type(*$C$DW$T$167)
     322                      .dwendtag $C$DW$53
     323              
     324              
     325              $C$DW$55        .dwtag  DW_TAG_subprogram, DW_AT_name("EST_setFe_neg_max_pu")
     326                      .dwattr $C$DW$55, DW_AT_TI_symbol_name("_EST_setFe_neg_max_pu")
     327                      .dwattr $C$DW$55, DW_AT_declaration
     328                      .dwattr $C$DW$55, DW_AT_external
     329              $C$DW$56        .dwtag  DW_TAG_formal_parameter
     330                      .dwattr $C$DW$56, DW_AT_type(*$C$DW$T$46)
     331              $C$DW$57        .dwtag  DW_TAG_formal_parameter
     332                      .dwattr $C$DW$57, DW_AT_type(*$C$DW$T$236)
TMS320C2000 Assembler PC v6.4.9 Wed Dec 02 17:22:56 2015

Tools Copyright (c) 1996-2015 Texas Instruments Incorporated
C:\Users\ywcheng\AppData\Local\Temp\5808410                          PAGE    8

     333                      .dwendtag $C$DW$55
     334              
     335              
     336              $C$DW$58        .dwtag  DW_TAG_subprogram, DW_AT_name("USER_getErrorCode")
     337                      .dwattr $C$DW$58, DW_AT_TI_symbol_name("_USER_getErrorCode")
     338                      .dwattr $C$DW$58, DW_AT_type(*$C$DW$T$127)
     339                      .dwattr $C$DW$58, DW_AT_declaration
     340                      .dwattr $C$DW$58, DW_AT_external
     341              $C$DW$59        .dwtag  DW_TAG_formal_parameter
     342                      .dwattr $C$DW$59, DW_AT_type(*$C$DW$T$167)
     343                      .dwendtag $C$DW$58
     344              
     345                      .global _Flag_Latch_softwareUpdate
     346 00000000       _Flag_Latch_softwareUpdate:     .usect  ".ebss",1,1,0
     347              $C$DW$60        .dwtag  DW_TAG_variable, DW_AT_name("Flag_Latch_softwareUpdate")
     348                      .dwattr $C$DW$60, DW_AT_TI_symbol_name("_Flag_Latch_softwareUpdate")
     349                      .dwattr $C$DW$60, DW_AT_location[DW_OP_addr _Flag_Latch_softwareUpdate]
     350                      .dwattr $C$DW$60, DW_AT_type(*$C$DW$T$69)
     351                      .dwattr $C$DW$60, DW_AT_external
     352              
     353              $C$DW$61        .dwtag  DW_TAG_subprogram, DW_AT_name("EST_computeDirection_qFmt")
     354                      .dwattr $C$DW$61, DW_AT_TI_symbol_name("_EST_computeDirection_qFmt")
     355                      .dwattr $C$DW$61, DW_AT_type(*$C$DW$T$32)
     356                      .dwattr $C$DW$61, DW_AT_declaration
     357                      .dwattr $C$DW$61, DW_AT_external
     358              $C$DW$62        .dwtag  DW_TAG_formal_parameter
     359                      .dwattr $C$DW$62, DW_AT_type(*$C$DW$T$46)
     360              $C$DW$63        .dwtag  DW_TAG_formal_parameter
     361                      .dwattr $C$DW$63, DW_AT_type(*$C$DW$T$263)
     362                      .dwendtag $C$DW$61
     363              
     364                      .global _gLEDcnt
     365 00000001       _gLEDcnt:       .usect  ".ebss",1,1,0
     366              $C$DW$64        .dwtag  DW_TAG_variable, DW_AT_name("gLEDcnt")
     367                      .dwattr $C$DW$64, DW_AT_TI_symbol_name("_gLEDcnt")
     368                      .dwattr $C$DW$64, DW_AT_location[DW_OP_addr _gLEDcnt]
     369                      .dwattr $C$DW$64, DW_AT_type(*$C$DW$T$22)
     370                      .dwattr $C$DW$64, DW_AT_external
     371              
     372              $C$DW$65        .dwtag  DW_TAG_subprogram, DW_AT_name("EST_getState")
     373                      .dwattr $C$DW$65, DW_AT_TI_symbol_name("_EST_getState")
     374                      .dwattr $C$DW$65, DW_AT_type(*$C$DW$T$125)
     375                      .dwattr $C$DW$65, DW_AT_declaration
     376                      .dwattr $C$DW$65, DW_AT_external
     377              $C$DW$66        .dwtag  DW_TAG_formal_parameter
     378                      .dwattr $C$DW$66, DW_AT_type(*$C$DW$T$46)
     379                      .dwendtag $C$DW$65
     380              
     381              
     382              $C$DW$67        .dwtag  DW_TAG_subprogram, DW_AT_name("EST_isMotorIdentified")
     383                      .dwattr $C$DW$67, DW_AT_TI_symbol_name("_EST_isMotorIdentified")
     384                      .dwattr $C$DW$67, DW_AT_type(*$C$DW$T$69)
     385                      .dwattr $C$DW$67, DW_AT_declaration
     386                      .dwattr $C$DW$67, DW_AT_external
     387              $C$DW$68        .dwtag  DW_TAG_formal_parameter
TMS320C2000 Assembler PC v6.4.9 Wed Dec 02 17:22:56 2015

Tools Copyright (c) 1996-2015 Texas Instruments Incorporated
C:\Users\ywcheng\AppData\Local\Temp\5808410                          PAGE    9

     388                      .dwattr $C$DW$68, DW_AT_type(*$C$DW$T$46)
     389                      .dwendtag $C$DW$67
     390              
     391                      .global _gCounter_updateGlobals
     392 00000002       _gCounter_updateGlobals:        .usect  ".ebss",1,1,0
     393              $C$DW$69        .dwtag  DW_TAG_variable, DW_AT_name("gCounter_updateGlobals")
     394                      .dwattr $C$DW$69, DW_AT_TI_symbol_name("_gCounter_updateGlobals")
     395                      .dwattr $C$DW$69, DW_AT_location[DW_OP_addr _gCounter_updateGlobals]
     396                      .dwattr $C$DW$69, DW_AT_type(*$C$DW$T$66)
     397                      .dwattr $C$DW$69, DW_AT_external
     398              
     399              $C$DW$70        .dwtag  DW_TAG_subprogram, DW_AT_name("CTRL_updateState")
     400                      .dwattr $C$DW$70, DW_AT_TI_symbol_name("_CTRL_updateState")
     401                      .dwattr $C$DW$70, DW_AT_type(*$C$DW$T$69)
     402                      .dwattr $C$DW$70, DW_AT_declaration
     403                      .dwattr $C$DW$70, DW_AT_external
     404              $C$DW$71        .dwtag  DW_TAG_formal_parameter
     405                      .dwattr $C$DW$71, DW_AT_type(*$C$DW$T$160)
     406                      .dwendtag $C$DW$70
     407              
     408                      .global _gMaxCurrentSlope
     409 00000004       _gMaxCurrentSlope:      .usect  ".ebss",2,1,1
     410              $C$DW$72        .dwtag  DW_TAG_variable, DW_AT_name("gMaxCurrentSlope")
     411                      .dwattr $C$DW$72, DW_AT_TI_symbol_name("_gMaxCurrentSlope")
     412                      .dwattr $C$DW$72, DW_AT_location[DW_OP_addr _gMaxCurrentSlope]
     413                      .dwattr $C$DW$72, DW_AT_type(*$C$DW$T$31)
     414                      .dwattr $C$DW$72, DW_AT_external
     415                      .global _ctrlHandle
     416 00000006       _ctrlHandle:    .usect  ".ebss",2,1,1
     417              $C$DW$73        .dwtag  DW_TAG_variable, DW_AT_name("ctrlHandle")
     418                      .dwattr $C$DW$73, DW_AT_TI_symbol_name("_ctrlHandle")
     419                      .dwattr $C$DW$73, DW_AT_location[DW_OP_addr _ctrlHandle]
     420                      .dwattr $C$DW$73, DW_AT_type(*$C$DW$T$160)
     421                      .dwattr $C$DW$73, DW_AT_external
     422              
     423              $C$DW$74        .dwtag  DW_TAG_subprogram, DW_AT_name("__IQmpy")
     424                      .dwattr $C$DW$74, DW_AT_TI_symbol_name("___IQmpy")
     425                      .dwattr $C$DW$74, DW_AT_type(*$C$DW$T$12)
     426                      .dwattr $C$DW$74, DW_AT_declaration
     427                      .dwattr $C$DW$74, DW_AT_external
     428              $C$DW$75        .dwtag  DW_TAG_formal_parameter
     429                      .dwattr $C$DW$75, DW_AT_type(*$C$DW$T$12)
     430              $C$DW$76        .dwtag  DW_TAG_formal_parameter
     431                      .dwattr $C$DW$76, DW_AT_type(*$C$DW$T$12)
     432              $C$DW$77        .dwtag  DW_TAG_formal_parameter
     433                      .dwattr $C$DW$77, DW_AT_type(*$C$DW$T$10)
     434                      .dwendtag $C$DW$74
     435              
     436              
     437              $C$DW$78        .dwtag  DW_TAG_subprogram, DW_AT_name("__IQsat")
     438                      .dwattr $C$DW$78, DW_AT_TI_symbol_name("___IQsat")
     439                      .dwattr $C$DW$78, DW_AT_type(*$C$DW$T$12)
     440                      .dwattr $C$DW$78, DW_AT_declaration
     441                      .dwattr $C$DW$78, DW_AT_external
     442              $C$DW$79        .dwtag  DW_TAG_formal_parameter
TMS320C2000 Assembler PC v6.4.9 Wed Dec 02 17:22:56 2015

Tools Copyright (c) 1996-2015 Texas Instruments Incorporated
C:\Users\ywcheng\AppData\Local\Temp\5808410                          PAGE   10

     443                      .dwattr $C$DW$79, DW_AT_type(*$C$DW$T$12)
     444              $C$DW$80        .dwtag  DW_TAG_formal_parameter
     445                      .dwattr $C$DW$80, DW_AT_type(*$C$DW$T$12)
     446              $C$DW$81        .dwtag  DW_TAG_formal_parameter
     447                      .dwattr $C$DW$81, DW_AT_type(*$C$DW$T$12)
     448                      .dwendtag $C$DW$78
     449              
     450                      .global _halHandle
     451 00000000       _halHandle:     .usect  "rom_accessed_data",2,1,1
     452              $C$DW$82        .dwtag  DW_TAG_variable, DW_AT_name("halHandle")
     453                      .dwattr $C$DW$82, DW_AT_TI_symbol_name("_halHandle")
     454                      .dwattr $C$DW$82, DW_AT_location[DW_OP_addr _halHandle]
     455                      .dwattr $C$DW$82, DW_AT_type(*$C$DW$T$210)
     456                      .dwattr $C$DW$82, DW_AT_external
     457              
     458              $C$DW$83        .dwtag  DW_TAG_subprogram, DW_AT_name("EST_get_pu_to_krpm_sf")
     459                      .dwattr $C$DW$83, DW_AT_TI_symbol_name("_EST_get_pu_to_krpm_sf")
     460                      .dwattr $C$DW$83, DW_AT_type(*$C$DW$T$31)
     461                      .dwattr $C$DW$83, DW_AT_declaration
     462                      .dwattr $C$DW$83, DW_AT_external
     463              $C$DW$84        .dwtag  DW_TAG_formal_parameter
     464                      .dwattr $C$DW$84, DW_AT_type(*$C$DW$T$46)
     465                      .dwendtag $C$DW$83
     466              
     467              $C$DW$85        .dwtag  DW_TAG_variable, DW_AT_name("econst_start")
     468                      .dwattr $C$DW$85, DW_AT_TI_symbol_name("_econst_start")
     469                      .dwattr $C$DW$85, DW_AT_type(*$C$DW$T$230)
     470                      .dwattr $C$DW$85, DW_AT_declaration
     471                      .dwattr $C$DW$85, DW_AT_external
     472              $C$DW$86        .dwtag  DW_TAG_variable, DW_AT_name("switch_end")
     473                      .dwattr $C$DW$86, DW_AT_TI_symbol_name("_switch_end")
     474                      .dwattr $C$DW$86, DW_AT_type(*$C$DW$T$230)
     475                      .dwattr $C$DW$86, DW_AT_declaration
     476                      .dwattr $C$DW$86, DW_AT_external
     477              $C$DW$87        .dwtag  DW_TAG_variable, DW_AT_name("econst_end")
     478                      .dwattr $C$DW$87, DW_AT_TI_symbol_name("_econst_end")
     479                      .dwattr $C$DW$87, DW_AT_type(*$C$DW$T$230)
     480                      .dwattr $C$DW$87, DW_AT_declaration
     481                      .dwattr $C$DW$87, DW_AT_external
     482              $C$DW$88        .dwtag  DW_TAG_variable, DW_AT_name("switch_start")
     483                      .dwattr $C$DW$88, DW_AT_TI_symbol_name("_switch_start")
     484                      .dwattr $C$DW$88, DW_AT_type(*$C$DW$T$230)
     485                      .dwattr $C$DW$88, DW_AT_declaration
     486                      .dwattr $C$DW$88, DW_AT_external
     487              $C$DW$89        .dwtag  DW_TAG_variable, DW_AT_name("RamfuncsLoadEnd")
     488                      .dwattr $C$DW$89, DW_AT_TI_symbol_name("_RamfuncsLoadEnd")
     489                      .dwattr $C$DW$89, DW_AT_type(*$C$DW$T$230)
     490                      .dwattr $C$DW$89, DW_AT_declaration
     491                      .dwattr $C$DW$89, DW_AT_external
     492              $C$DW$90        .dwtag  DW_TAG_variable, DW_AT_name("RamfuncsLoadStart")
     493                      .dwattr $C$DW$90, DW_AT_TI_symbol_name("_RamfuncsLoadStart")
     494                      .dwattr $C$DW$90, DW_AT_type(*$C$DW$T$230)
     495                      .dwattr $C$DW$90, DW_AT_declaration
     496                      .dwattr $C$DW$90, DW_AT_external
     497              $C$DW$91        .dwtag  DW_TAG_variable, DW_AT_name("switch_ram_load")
TMS320C2000 Assembler PC v6.4.9 Wed Dec 02 17:22:56 2015

Tools Copyright (c) 1996-2015 Texas Instruments Incorporated
C:\Users\ywcheng\AppData\Local\Temp\5808410                          PAGE   11

     498                      .dwattr $C$DW$91, DW_AT_TI_symbol_name("_switch_ram_load")
     499                      .dwattr $C$DW$91, DW_AT_type(*$C$DW$T$230)
     500                      .dwattr $C$DW$91, DW_AT_declaration
     501                      .dwattr $C$DW$91, DW_AT_external
     502              $C$DW$92        .dwtag  DW_TAG_variable, DW_AT_name("RamfuncsRunStart")
     503                      .dwattr $C$DW$92, DW_AT_TI_symbol_name("_RamfuncsRunStart")
     504                      .dwattr $C$DW$92, DW_AT_type(*$C$DW$T$230)
     505                      .dwattr $C$DW$92, DW_AT_declaration
     506                      .dwattr $C$DW$92, DW_AT_external
     507              
     508              $C$DW$93        .dwtag  DW_TAG_subprogram, DW_AT_name("HAL_init")
     509                      .dwattr $C$DW$93, DW_AT_TI_symbol_name("_HAL_init")
     510                      .dwattr $C$DW$93, DW_AT_type(*$C$DW$T$210)
     511                      .dwattr $C$DW$93, DW_AT_declaration
     512                      .dwattr $C$DW$93, DW_AT_external
     513              $C$DW$94        .dwtag  DW_TAG_formal_parameter
     514                      .dwattr $C$DW$94, DW_AT_type(*$C$DW$T$3)
     515              $C$DW$95        .dwtag  DW_TAG_formal_parameter
     516                      .dwattr $C$DW$95, DW_AT_type(*$C$DW$T$195)
     517                      .dwendtag $C$DW$93
     518              
     519              
     520              $C$DW$96        .dwtag  DW_TAG_subprogram, DW_AT_name("CTRL_initCtrl")
     521                      .dwattr $C$DW$96, DW_AT_TI_symbol_name("_CTRL_initCtrl")
     522                      .dwattr $C$DW$96, DW_AT_type(*$C$DW$T$160)
     523                      .dwattr $C$DW$96, DW_AT_declaration
     524                      .dwattr $C$DW$96, DW_AT_external
     525              $C$DW$97        .dwtag  DW_TAG_formal_parameter
     526                      .dwattr $C$DW$97, DW_AT_type(*$C$DW$T$193)
     527              $C$DW$98        .dwtag  DW_TAG_formal_parameter
     528                      .dwattr $C$DW$98, DW_AT_type(*$C$DW$T$3)
     529              $C$DW$99        .dwtag  DW_TAG_formal_parameter
     530                      .dwattr $C$DW$99, DW_AT_type(*$C$DW$T$195)
     531                      .dwendtag $C$DW$96
     532              
     533              
     534              $C$DW$100       .dwtag  DW_TAG_subprogram, DW_AT_name("EST_getSpeed_krpm")
     535                      .dwattr $C$DW$100, DW_AT_TI_symbol_name("_EST_getSpeed_krpm")
     536                      .dwattr $C$DW$100, DW_AT_type(*$C$DW$T$31)
     537                      .dwattr $C$DW$100, DW_AT_declaration
     538                      .dwattr $C$DW$100, DW_AT_external
     539              $C$DW$101       .dwtag  DW_TAG_formal_parameter
     540                      .dwattr $C$DW$101, DW_AT_type(*$C$DW$T$46)
     541                      .dwendtag $C$DW$100
     542              
     543              
     544              $C$DW$102       .dwtag  DW_TAG_subprogram, DW_AT_name("EST_getLs_q_H")
     545                      .dwattr $C$DW$102, DW_AT_TI_symbol_name("_EST_getLs_q_H")
     546                      .dwattr $C$DW$102, DW_AT_type(*$C$DW$T$67)
     547                      .dwattr $C$DW$102, DW_AT_declaration
     548                      .dwattr $C$DW$102, DW_AT_external
     549              $C$DW$103       .dwtag  DW_TAG_formal_parameter
     550                      .dwattr $C$DW$103, DW_AT_type(*$C$DW$T$46)
     551                      .dwendtag $C$DW$102
     552              
TMS320C2000 Assembler PC v6.4.9 Wed Dec 02 17:22:56 2015

Tools Copyright (c) 1996-2015 Texas Instruments Incorporated
C:\Users\ywcheng\AppData\Local\Temp\5808410                          PAGE   12

     553              
     554              $C$DW$104       .dwtag  DW_TAG_subprogram, DW_AT_name("EST_getLs_d_H")
     555                      .dwattr $C$DW$104, DW_AT_TI_symbol_name("_EST_getLs_d_H")
     556                      .dwattr $C$DW$104, DW_AT_type(*$C$DW$T$67)
     557                      .dwattr $C$DW$104, DW_AT_declaration
     558                      .dwattr $C$DW$104, DW_AT_external
     559              $C$DW$105       .dwtag  DW_TAG_formal_parameter
     560                      .dwattr $C$DW$105, DW_AT_type(*$C$DW$T$46)
     561                      .dwendtag $C$DW$104
     562              
     563              
     564              $C$DW$106       .dwtag  DW_TAG_subprogram, DW_AT_name("EST_getRr_Ohm")
     565                      .dwattr $C$DW$106, DW_AT_TI_symbol_name("_EST_getRr_Ohm")
     566                      .dwattr $C$DW$106, DW_AT_type(*$C$DW$T$67)
     567                      .dwattr $C$DW$106, DW_AT_declaration
     568                      .dwattr $C$DW$106, DW_AT_external
     569              $C$DW$107       .dwtag  DW_TAG_formal_parameter
     570                      .dwattr $C$DW$107, DW_AT_type(*$C$DW$T$46)
     571                      .dwendtag $C$DW$106
     572              
     573              
     574              $C$DW$108       .dwtag  DW_TAG_subprogram, DW_AT_name("EST_getFlux_VpHz")
     575                      .dwattr $C$DW$108, DW_AT_TI_symbol_name("_EST_getFlux_VpHz")
     576                      .dwattr $C$DW$108, DW_AT_type(*$C$DW$T$67)
     577                      .dwattr $C$DW$108, DW_AT_declaration
     578                      .dwattr $C$DW$108, DW_AT_external
     579              $C$DW$109       .dwtag  DW_TAG_formal_parameter
     580                      .dwattr $C$DW$109, DW_AT_type(*$C$DW$T$46)
     581                      .dwendtag $C$DW$108
     582              
     583              $C$DW$110       .dwtag  DW_TAG_variable, DW_AT_name("econst_ram_load")
     584                      .dwattr $C$DW$110, DW_AT_TI_symbol_name("_econst_ram_load")
     585                      .dwattr $C$DW$110, DW_AT_type(*$C$DW$T$230)
     586                      .dwattr $C$DW$110, DW_AT_declaration
     587                      .dwattr $C$DW$110, DW_AT_external
     588              
     589              $C$DW$111       .dwtag  DW_TAG_subprogram, DW_AT_name("EST_getMaxCurrentSlope_pu")
     590                      .dwattr $C$DW$111, DW_AT_TI_symbol_name("_EST_getMaxCurrentSlope_pu")
     591                      .dwattr $C$DW$111, DW_AT_type(*$C$DW$T$31)
     592                      .dwattr $C$DW$111, DW_AT_declaration
     593                      .dwattr $C$DW$111, DW_AT_external
     594              $C$DW$112       .dwtag  DW_TAG_formal_parameter
     595                      .dwattr $C$DW$112, DW_AT_type(*$C$DW$T$46)
     596                      .dwendtag $C$DW$111
     597              
     598              
     599              $C$DW$113       .dwtag  DW_TAG_subprogram, DW_AT_name("EST_getRs_Ohm")
     600                      .dwattr $C$DW$113, DW_AT_TI_symbol_name("_EST_getRs_Ohm")
     601                      .dwattr $C$DW$113, DW_AT_type(*$C$DW$T$67)
     602                      .dwattr $C$DW$113, DW_AT_declaration
     603                      .dwattr $C$DW$113, DW_AT_external
     604              $C$DW$114       .dwtag  DW_TAG_formal_parameter
     605                      .dwattr $C$DW$114, DW_AT_type(*$C$DW$T$46)
     606                      .dwendtag $C$DW$113
     607              
TMS320C2000 Assembler PC v6.4.9 Wed Dec 02 17:22:56 2015

Tools Copyright (c) 1996-2015 Texas Instruments Incorporated
C:\Users\ywcheng\AppData\Local\Temp\5808410                          PAGE   13

     608              
     609              $C$DW$115       .dwtag  DW_TAG_subprogram, DW_AT_name("EST_getIdRated")
     610                      .dwattr $C$DW$115, DW_AT_TI_symbol_name("_EST_getIdRated")
     611                      .dwattr $C$DW$115, DW_AT_type(*$C$DW$T$67)
     612                      .dwattr $C$DW$115, DW_AT_declaration
     613                      .dwattr $C$DW$115, DW_AT_external
     614              $C$DW$116       .dwtag  DW_TAG_formal_parameter
     615                      .dwattr $C$DW$116, DW_AT_type(*$C$DW$T$46)
     616                      .dwendtag $C$DW$115
     617              
     618                      .global _gPwmData
     619 00000008       _gPwmData:      .usect  ".ebss",6,1,1
     620              $C$DW$117       .dwtag  DW_TAG_variable, DW_AT_name("gPwmData")
     621                      .dwattr $C$DW$117, DW_AT_TI_symbol_name("_gPwmData")
     622                      .dwattr $C$DW$117, DW_AT_location[DW_OP_addr _gPwmData]
     623                      .dwattr $C$DW$117, DW_AT_type(*$C$DW$T$214)
     624                      .dwattr $C$DW$117, DW_AT_external
     625                      .global _gAdcData
     626 0000000e       _gAdcData:      .usect  ".ebss",14,1,1
     627              $C$DW$118       .dwtag  DW_TAG_variable, DW_AT_name("gAdcData")
     628                      .dwattr $C$DW$118, DW_AT_TI_symbol_name("_gAdcData")
     629                      .dwattr $C$DW$118, DW_AT_location[DW_OP_addr _gAdcData]
     630                      .dwattr $C$DW$118, DW_AT_type(*$C$DW$T$113)
     631                      .dwattr $C$DW$118, DW_AT_external
     632                      .global _gMotorVars
     633 00000040       _gMotorVars:    .usect  ".ebss",104,1,1
     634              $C$DW$119       .dwtag  DW_TAG_variable, DW_AT_name("gMotorVars")
     635                      .dwattr $C$DW$119, DW_AT_TI_symbol_name("_gMotorVars")
     636                      .dwattr $C$DW$119, DW_AT_location[DW_OP_addr _gMotorVars]
     637                      .dwattr $C$DW$119, DW_AT_type(*$C$DW$T$218)
     638                      .dwattr $C$DW$119, DW_AT_external
     639              $C$DW$120       .dwtag  DW_TAG_variable, DW_AT_name("hal")
     640                      .dwattr $C$DW$120, DW_AT_TI_symbol_name("_hal")
     641                      .dwattr $C$DW$120, DW_AT_type(*$C$DW$T$207)
     642                      .dwattr $C$DW$120, DW_AT_declaration
     643                      .dwattr $C$DW$120, DW_AT_external
     644                      .global _gUserParams
     645 00000040       _gUserParams:   .usect  "rom_accessed_data",172,1,1
     646              $C$DW$121       .dwtag  DW_TAG_variable, DW_AT_name("gUserParams")
     647                      .dwattr $C$DW$121, DW_AT_TI_symbol_name("_gUserParams")
     648                      .dwattr $C$DW$121, DW_AT_location[DW_OP_addr _gUserParams]
     649                      .dwattr $C$DW$121, DW_AT_type(*$C$DW$T$166)
     650                      .dwattr $C$DW$121, DW_AT_external
     651                      .global _ctrl
     652 00000100       _ctrl:  .usect  "rom_accessed_data",264,1,1
     653              $C$DW$122       .dwtag  DW_TAG_variable, DW_AT_name("ctrl")
     654                      .dwattr $C$DW$122, DW_AT_TI_symbol_name("_ctrl")
     655                      .dwattr $C$DW$122, DW_AT_location[DW_OP_addr _ctrl]
     656                      .dwattr $C$DW$122, DW_AT_type(*$C$DW$T$190)
     657                      .dwattr $C$DW$122, DW_AT_external
     658              ;       C:\ti\ccsv6\tools\compiler\ti-cgt-c2000_6.4.9\bin\opt2000.exe C:\\Users\\ywcheng\\AppData\\Local\\Tem
     659              ;       C:\ti\ccsv6\tools\compiler\ti-cgt-c2000_6.4.9\bin\ac2000.exe -@C:\\Users\\ywcheng\\AppData\\Local\\Te
     660 00000000               .sect   ".text"
     661                      .clink
     662                      .global _updateGlobalVariables_motor
TMS320C2000 Assembler PC v6.4.9 Wed Dec 02 17:22:56 2015

Tools Copyright (c) 1996-2015 Texas Instruments Incorporated
C:\Users\ywcheng\AppData\Local\Temp\5808410                          PAGE   14

     663              
     664              $C$DW$123       .dwtag  DW_TAG_subprogram, DW_AT_name("updateGlobalVariables_motor")
     665                      .dwattr $C$DW$123, DW_AT_low_pc(_updateGlobalVariables_motor)
     666                      .dwattr $C$DW$123, DW_AT_high_pc(0x00)
     667                      .dwattr $C$DW$123, DW_AT_TI_symbol_name("_updateGlobalVariables_motor")
     668                      .dwattr $C$DW$123, DW_AT_external
     669                      .dwattr $C$DW$123, DW_AT_TI_begin_file("C:/ti/motorware/motorware_1_01_00_15/sw/solutions/instaspin_f
     670                      .dwattr $C$DW$123, DW_AT_TI_begin_line(0x1c6)
     671                      .dwattr $C$DW$123, DW_AT_TI_begin_column(0x06)
     672                      .dwattr $C$DW$123, DW_AT_TI_max_frame_size(-6)
     673                      .dwpsn  file "C:/ti/motorware/motorware_1_01_00_15/sw/solutions/instaspin_foc/src/proj_lab02b.c",line
     674              
     675                      .dwfde $C$DW$CIE, _updateGlobalVariables_motor
     676              $C$DW$124       .dwtag  DW_TAG_formal_parameter, DW_AT_name("handle")
     677                      .dwattr $C$DW$124, DW_AT_TI_symbol_name("_handle")
     678                      .dwattr $C$DW$124, DW_AT_type(*$C$DW$T$160)
     679                      .dwattr $C$DW$124, DW_AT_location[DW_OP_reg12]
     680              
     681              ;***************************************************************
     682              ;* FNAME: _updateGlobalVariables_motor  FR SIZE:   4           *
     683              ;*                                                             *
     684              ;* FUNCTION ENVIRONMENT                                        *
     685              ;*                                                             *
     686              ;* FUNCTION PROPERTIES                                         *
     687              ;*                            0 Parameter,  0 Auto,  4 SOE     *
     688              ;***************************************************************
     689              
     690              _updateGlobalVariables_motor:
     691              ;* XT    assigned to $O$R2
     692              ;* AR2   assigned to _handle
     693              $C$DW$125       .dwtag  DW_TAG_variable, DW_AT_name("handle")
     694                      .dwattr $C$DW$125, DW_AT_TI_symbol_name("_handle")
     695                      .dwattr $C$DW$125, DW_AT_type(*$C$DW$T$192)
     696                      .dwattr $C$DW$125, DW_AT_location[DW_OP_reg8]
     697                      .dwcfi  cfa_offset, -2
     698                      .dwcfi  save_reg_to_mem, 26, 0
     699 00000000 B2BD          MOVL      *SP++,XAR1            ; [CPU_] 
     700                      .dwcfi  save_reg_to_mem, 7, 2
     701                      .dwcfi  cfa_offset, -4
     702 00000001 AABD          MOVL      *SP++,XAR2            ; [CPU_] 
     703                      .dwcfi  save_reg_to_mem, 9, 4
     704                      .dwcfi  cfa_offset, -6
     705 00000002 86A4          MOVL      XAR2,XAR4             ; [CPU_] |455| 
     706                      .dwpsn  file "C:/ti/motorware/motorware_1_01_00_15/sw/solutions/instaspin_foc/src/proj_lab02b.c",line
     707 00000003 D018          MOVB      XAR0,#24              ; [CPU_] |459| 
     708 00000004 8A92          MOVL      XAR4,*+XAR2[AR0]      ; [CPU_] |459| 
     709              $C$DW$126       .dwtag  DW_TAG_TI_branch
     710                      .dwattr $C$DW$126, DW_AT_low_pc(0x00)
     711                      .dwattr $C$DW$126, DW_AT_name("_EST_getSpeed_krpm")
     712                      .dwattr $C$DW$126, DW_AT_TI_call
     713 00000005 7640!         LCR       #_EST_getSpeed_krpm   ; [CPU_] |459| 
         00000006 0000 
     714                      ; call occurs [#_EST_getSpeed_krpm] ; [] |459| 
     715 00000007 761F-         MOVW      DP,#_gMotorVars+30    ; [CPU_U] 
         00000008 0001 
TMS320C2000 Assembler PC v6.4.9 Wed Dec 02 17:22:56 2015

Tools Copyright (c) 1996-2015 Texas Instruments Incorporated
C:\Users\ywcheng\AppData\Local\Temp\5808410                          PAGE   15

     716                      .dwpsn  file "C:/ti/motorware/motorware_1_01_00_15/sw/modules/traj/src/32b/traj.h",line 96,column 3,i
     717 00000009 D06C          MOVB      XAR0,#108             ; [CPU_] |96| 
     718                      .dwpsn  file "C:/ti/motorware/motorware_1_01_00_15/sw/solutions/instaspin_foc/src/proj_lab02b.c",line
     719 0000000a 1E1E-         MOVL      @_gMotorVars+30,ACC   ; [CPU_] |459| 
     720                      .dwpsn  file "C:/ti/motorware/motorware_1_01_00_15/sw/modules/traj/src/32b/traj.h",line 96,column 3,i
     721 0000000b 8A92          MOVL      XAR4,*+XAR2[AR0]      ; [CPU_] |96| 
     722                      .dwpsn  file "C:/ti/motorware/motorware_1_01_00_15/sw/solutions/instaspin_foc/src/proj_lab02b.c",line
     723 0000000c D018          MOVB      XAR0,#24              ; [CPU_] |462| 
     724                      .dwpsn  file "C:/ti/motorware/motorware_1_01_00_15/sw/modules/traj/src/32b/traj.h",line 96,column 3,i
     725 0000000d 8BD4          MOVL      XAR1,*+XAR4[2]        ; [CPU_] |96| 
     726                      .dwpsn  file "C:/ti/motorware/motorware_1_01_00_15/sw/solutions/instaspin_foc/src/proj_lab02b.c",line
     727 0000000e 8A92          MOVL      XAR4,*+XAR2[AR0]      ; [CPU_] |462| 
     728              $C$DW$127       .dwtag  DW_TAG_TI_branch
     729                      .dwattr $C$DW$127, DW_AT_low_pc(0x00)
     730                      .dwattr $C$DW$127, DW_AT_name("_EST_get_pu_to_krpm_sf")
     731                      .dwattr $C$DW$127, DW_AT_TI_call
     732 0000000f 7640!         LCR       #_EST_get_pu_to_krpm_sf ; [CPU_] |462| 
         00000010 0000 
     733                      ; call occurs [#_EST_get_pu_to_krpm_sf] ; [] |462| 
     734 00000011 761F-         MOVW      DP,#_gMotorVars+26    ; [CPU_U] 
         00000012 0001 
     735                      .dwpsn  file "C:/ti/motorware/motorware_1_01_00_15/sw/solutions/instaspin_foc/src/proj_lab02b.c",line
     736 00000013 D018          MOVB      XAR0,#24              ; [CPU_] |465| 
     737                      .dwpsn  file "C:/ti/motorware/motorware_1_01_00_15/sw/solutions/instaspin_foc/src/proj_lab02b.c",line
     738 00000014 B2AC          MOVL      XT,XAR1               ; [CPU_] |462| 
     739 00000015 5605          IMPYL     P,XT,ACC              ; [CPU_] |462| 
         00000016 00A9 
     740 00000017 5663          QMPYL     ACC,XT,ACC            ; [CPU_] |462| 
         00000018 00A9 
     741 00000019 56A7          LSL64     ACC:P,#8              ; [CPU_] |462| 
     742 0000001a 1E1A-         MOVL      @_gMotorVars+26,ACC   ; [CPU_] |462| 
     743                      .dwpsn  file "C:/ti/motorware/motorware_1_01_00_15/sw/solutions/instaspin_foc/src/proj_lab02b.c",line
     744 0000001b 8A92          MOVL      XAR4,*+XAR2[AR0]      ; [CPU_] |465| 
     745              $C$DW$128       .dwtag  DW_TAG_TI_branch
     746                      .dwattr $C$DW$128, DW_AT_low_pc(0x00)
     747                      .dwattr $C$DW$128, DW_AT_name("_EST_getIdRated")
     748                      .dwattr $C$DW$128, DW_AT_TI_call
     749 0000001c 7640!         LCR       #_EST_getIdRated      ; [CPU_] |465| 
         0000001d 0000 
     750                      ; call occurs [#_EST_getIdRated] ; [] |465| 
     751 0000001e 761F-         MOVW      DP,#_gMotorVars+42    ; [CPU_U] 
         0000001f 0001 
     752                      .dwpsn  file "C:/ti/motorware/motorware_1_01_00_15/sw/solutions/instaspin_foc/src/proj_lab02b.c",line
     753 00000020 D018          MOVB      XAR0,#24              ; [CPU_] |468| 
     754                      .dwpsn  file "C:/ti/motorware/motorware_1_01_00_15/sw/solutions/instaspin_foc/src/proj_lab02b.c",line
     755 00000021 1E2A-         MOVL      @_gMotorVars+42,ACC   ; [CPU_] |465| 
     756                      .dwpsn  file "C:/ti/motorware/motorware_1_01_00_15/sw/solutions/instaspin_foc/src/proj_lab02b.c",line
     757 00000022 8A92          MOVL      XAR4,*+XAR2[AR0]      ; [CPU_] |468| 
     758              $C$DW$129       .dwtag  DW_TAG_TI_branch
     759                      .dwattr $C$DW$129, DW_AT_low_pc(0x00)
     760                      .dwattr $C$DW$129, DW_AT_name("_EST_getRr_Ohm")
     761                      .dwattr $C$DW$129, DW_AT_TI_call
     762 00000023 7640!         LCR       #_EST_getRr_Ohm       ; [CPU_] |468| 
         00000024 0000 
     763                      ; call occurs [#_EST_getRr_Ohm] ; [] |468| 
TMS320C2000 Assembler PC v6.4.9 Wed Dec 02 17:22:56 2015

Tools Copyright (c) 1996-2015 Texas Instruments Incorporated
C:\Users\ywcheng\AppData\Local\Temp\5808410                          PAGE   16

     764 00000025 761F-         MOVW      DP,#_gMotorVars+44    ; [CPU_U] 
         00000026 0001 
     765                      .dwpsn  file "C:/ti/motorware/motorware_1_01_00_15/sw/solutions/instaspin_foc/src/proj_lab02b.c",line
     766 00000027 D018          MOVB      XAR0,#24              ; [CPU_] |471| 
     767                      .dwpsn  file "C:/ti/motorware/motorware_1_01_00_15/sw/solutions/instaspin_foc/src/proj_lab02b.c",line
     768 00000028 1E2C-         MOVL      @_gMotorVars+44,ACC   ; [CPU_] |468| 
     769                      .dwpsn  file "C:/ti/motorware/motorware_1_01_00_15/sw/solutions/instaspin_foc/src/proj_lab02b.c",line
     770 00000029 8A92          MOVL      XAR4,*+XAR2[AR0]      ; [CPU_] |471| 
     771              $C$DW$130       .dwtag  DW_TAG_TI_branch
     772                      .dwattr $C$DW$130, DW_AT_low_pc(0x00)
     773                      .dwattr $C$DW$130, DW_AT_name("_EST_getRs_Ohm")
     774                      .dwattr $C$DW$130, DW_AT_TI_call
     775 0000002a 7640!         LCR       #_EST_getRs_Ohm       ; [CPU_] |471| 
         0000002b 0000 
     776                      ; call occurs [#_EST_getRs_Ohm] ; [] |471| 
     777 0000002c 761F-         MOVW      DP,#_gMotorVars+46    ; [CPU_U] 
         0000002d 0001 
     778                      .dwpsn  file "C:/ti/motorware/motorware_1_01_00_15/sw/solutions/instaspin_foc/src/proj_lab02b.c",line
     779 0000002e D018          MOVB      XAR0,#24              ; [CPU_] |474| 
     780                      .dwpsn  file "C:/ti/motorware/motorware_1_01_00_15/sw/solutions/instaspin_foc/src/proj_lab02b.c",line
     781 0000002f 1E2E-         MOVL      @_gMotorVars+46,ACC   ; [CPU_] |471| 
     782                      .dwpsn  file "C:/ti/motorware/motorware_1_01_00_15/sw/solutions/instaspin_foc/src/proj_lab02b.c",line
     783 00000030 8A92          MOVL      XAR4,*+XAR2[AR0]      ; [CPU_] |474| 
     784              $C$DW$131       .dwtag  DW_TAG_TI_branch
     785                      .dwattr $C$DW$131, DW_AT_low_pc(0x00)
     786                      .dwattr $C$DW$131, DW_AT_name("_EST_getLs_d_H")
     787                      .dwattr $C$DW$131, DW_AT_TI_call
     788 00000031 7640!         LCR       #_EST_getLs_d_H       ; [CPU_] |474| 
         00000032 0000 
     789                      ; call occurs [#_EST_getLs_d_H] ; [] |474| 
     790 00000033 761F-         MOVW      DP,#_gMotorVars+50    ; [CPU_U] 
         00000034 0001 
     791                      .dwpsn  file "C:/ti/motorware/motorware_1_01_00_15/sw/solutions/instaspin_foc/src/proj_lab02b.c",line
     792 00000035 D018          MOVB      XAR0,#24              ; [CPU_] |477| 
     793                      .dwpsn  file "C:/ti/motorware/motorware_1_01_00_15/sw/solutions/instaspin_foc/src/proj_lab02b.c",line
     794 00000036 1E32-         MOVL      @_gMotorVars+50,ACC   ; [CPU_] |474| 
     795                      .dwpsn  file "C:/ti/motorware/motorware_1_01_00_15/sw/solutions/instaspin_foc/src/proj_lab02b.c",line
     796 00000037 8A92          MOVL      XAR4,*+XAR2[AR0]      ; [CPU_] |477| 
     797              $C$DW$132       .dwtag  DW_TAG_TI_branch
     798                      .dwattr $C$DW$132, DW_AT_low_pc(0x00)
     799                      .dwattr $C$DW$132, DW_AT_name("_EST_getLs_q_H")
     800                      .dwattr $C$DW$132, DW_AT_TI_call
     801 00000038 7640!         LCR       #_EST_getLs_q_H       ; [CPU_] |477| 
         00000039 0000 
     802                      ; call occurs [#_EST_getLs_q_H] ; [] |477| 
     803 0000003a 761F-         MOVW      DP,#_gMotorVars+52    ; [CPU_U] 
         0000003b 0001 
     804                      .dwpsn  file "C:/ti/motorware/motorware_1_01_00_15/sw/solutions/instaspin_foc/src/proj_lab02b.c",line
     805 0000003c D018          MOVB      XAR0,#24              ; [CPU_] |480| 
     806                      .dwpsn  file "C:/ti/motorware/motorware_1_01_00_15/sw/solutions/instaspin_foc/src/proj_lab02b.c",line
     807 0000003d 1E34-         MOVL      @_gMotorVars+52,ACC   ; [CPU_] |477| 
     808                      .dwpsn  file "C:/ti/motorware/motorware_1_01_00_15/sw/solutions/instaspin_foc/src/proj_lab02b.c",line
     809 0000003e 8A92          MOVL      XAR4,*+XAR2[AR0]      ; [CPU_] |480| 
     810              $C$DW$133       .dwtag  DW_TAG_TI_branch
     811                      .dwattr $C$DW$133, DW_AT_low_pc(0x00)
TMS320C2000 Assembler PC v6.4.9 Wed Dec 02 17:22:56 2015

Tools Copyright (c) 1996-2015 Texas Instruments Incorporated
C:\Users\ywcheng\AppData\Local\Temp\5808410                          PAGE   17

     812                      .dwattr $C$DW$133, DW_AT_name("_EST_getFlux_VpHz")
     813                      .dwattr $C$DW$133, DW_AT_TI_call
     814 0000003f 7640!         LCR       #_EST_getFlux_VpHz    ; [CPU_] |480| 
         00000040 0000 
     815                      ; call occurs [#_EST_getFlux_VpHz] ; [] |480| 
     816 00000041 761F-         MOVW      DP,#_gMotorVars+54    ; [CPU_U] 
         00000042 0001 
     817                      .dwpsn  file "C:/ti/motorware/motorware_1_01_00_15/sw/solutions/instaspin_foc/src/proj_lab02b.c",line
     818 00000043 D018          MOVB      XAR0,#24              ; [CPU_] |486| 
     819                      .dwpsn  file "C:/ti/motorware/motorware_1_01_00_15/sw/solutions/instaspin_foc/src/proj_lab02b.c",line
     820 00000044 1E36-         MOVL      @_gMotorVars+54,ACC   ; [CPU_] |480| 
     821                      .dwpsn  file "C:/ti/motorware/motorware_1_01_00_15/sw/solutions/instaspin_foc/src/proj_lab02b.c",line
     822 00000045 92E2          MOV       AL,*+XAR2[4]          ; [CPU_] |483| 
     823 00000046 960A-         MOV       @_gMotorVars+10,AL    ; [CPU_] |483| 
     824                      .dwpsn  file "C:/ti/motorware/motorware_1_01_00_15/sw/solutions/instaspin_foc/src/proj_lab02b.c",line
     825 00000047 8A92          MOVL      XAR4,*+XAR2[AR0]      ; [CPU_] |486| 
     826              $C$DW$134       .dwtag  DW_TAG_TI_branch
     827                      .dwattr $C$DW$134, DW_AT_low_pc(0x00)
     828                      .dwattr $C$DW$134, DW_AT_name("_EST_getState")
     829                      .dwattr $C$DW$134, DW_AT_TI_call
     830 00000048 7640!         LCR       #_EST_getState        ; [CPU_] |486| 
         00000049 0000 
     831                      ; call occurs [#_EST_getState] ; [] |486| 
     832 0000004a 761F-         MOVW      DP,#_gMotorVars+11    ; [CPU_U] 
         0000004b 0001 
     833                      .dwpsn  file "C:/ti/motorware/motorware_1_01_00_15/sw/solutions/instaspin_foc/src/proj_lab02b.c",line
     834 0000004c 9B73          MOV       AH,#115               ; [CPU_] |489| 
     835                      .dwpsn  file "C:/ti/motorware/motorware_1_01_00_15/sw/solutions/instaspin_foc/src/proj_lab02b.c",line
     836 0000004d 960B-         MOV       @_gMotorVars+11,AL    ; [CPU_] |486| 
     837 0000004e 761F-         MOVW      DP,#_gAdcData+12      ; [CPU_U] 
         0000004f 0000 
     838                      .dwpsn  file "C:/ti/motorware/motorware_1_01_00_15/sw/solutions/instaspin_foc/src/proj_lab02b.c",line
     839 00000050 28A9          MOV       AL,#13107             ; [CPU_] |489| 
         00000051 3333 
     840 00000052 871A-         MOVL      XT,@_gAdcData+12      ; [CPU_] |489| 
     841 00000053 5605          IMPYL     P,XT,ACC              ; [CPU_] |489| 
         00000054 00A9 
     842 00000055 5663          QMPYL     ACC,XT,ACC            ; [CPU_] |489| 
         00000056 00A9 
     843 00000057 56A7          LSL64     ACC:P,#8              ; [CPU_] |489| 
     844 00000058 86BE          MOVL      XAR2,*--SP            ; [CPU_] 
     845                      .dwcfi  cfa_offset, -4
     846                      .dwcfi  restore_reg, 9
     847 00000059 8BBE          MOVL      XAR1,*--SP            ; [CPU_] 
     848                      .dwcfi  cfa_offset, -2
     849                      .dwcfi  restore_reg, 7
     850 0000005a 761F-         MOVW      DP,#_gMotorVars+84    ; [CPU_U] 
         0000005b 0002 
     851 0000005c 1E14-         MOVL      @_gMotorVars+84,ACC   ; [CPU_] |489| 
     852              $C$DW$135       .dwtag  DW_TAG_TI_branch
     853                      .dwattr $C$DW$135, DW_AT_low_pc(0x00)
     854                      .dwattr $C$DW$135, DW_AT_TI_return
     855 0000005d 0006          LRETR     ; [CPU_] 
     856                      ; return occurs ; [] 
     857                      .dwattr $C$DW$123, DW_AT_TI_end_file("C:/ti/motorware/motorware_1_01_00_15/sw/solutions/instaspin_foc
TMS320C2000 Assembler PC v6.4.9 Wed Dec 02 17:22:56 2015

Tools Copyright (c) 1996-2015 Texas Instruments Incorporated
C:\Users\ywcheng\AppData\Local\Temp\5808410                          PAGE   18

     858                      .dwattr $C$DW$123, DW_AT_TI_end_line(0x1ec)
     859                      .dwattr $C$DW$123, DW_AT_TI_end_column(0x01)
     860                      .dwendentry
     861                      .dwendtag $C$DW$123
     862              
     863 0000005e               .sect   ".text"
     864                      .clink
     865                      .global _setFeLimitZero
     866              
     867              $C$DW$136       .dwtag  DW_TAG_subprogram, DW_AT_name("setFeLimitZero")
     868                      .dwattr $C$DW$136, DW_AT_low_pc(_setFeLimitZero)
     869                      .dwattr $C$DW$136, DW_AT_high_pc(0x00)
     870                      .dwattr $C$DW$136, DW_AT_TI_symbol_name("_setFeLimitZero")
     871                      .dwattr $C$DW$136, DW_AT_external
     872                      .dwattr $C$DW$136, DW_AT_TI_begin_file("C:/ti/motorware/motorware_1_01_00_15/sw/solutions/instaspin_f
     873                      .dwattr $C$DW$136, DW_AT_TI_begin_line(0x210)
     874                      .dwattr $C$DW$136, DW_AT_TI_begin_column(0x06)
     875                      .dwattr $C$DW$136, DW_AT_TI_max_frame_size(-6)
     876                      .dwpsn  file "C:/ti/motorware/motorware_1_01_00_15/sw/solutions/instaspin_foc/src/proj_lab02b.c",line
     877              
     878                      .dwfde $C$DW$CIE, _setFeLimitZero
     879              $C$DW$137       .dwtag  DW_TAG_formal_parameter, DW_AT_name("handle")
     880                      .dwattr $C$DW$137, DW_AT_TI_symbol_name("_handle")
     881                      .dwattr $C$DW$137, DW_AT_type(*$C$DW$T$160)
     882                      .dwattr $C$DW$137, DW_AT_location[DW_OP_reg12]
     883              
     884              ;***************************************************************
     885              ;* FNAME: _setFeLimitZero               FR SIZE:   4           *
     886              ;*                                                             *
     887              ;* FUNCTION ENVIRONMENT                                        *
     888              ;*                                                             *
     889              ;* FUNCTION PROPERTIES                                         *
     890              ;*                            0 Parameter,  0 Auto,  4 SOE     *
     891              ;***************************************************************
     892              
     893              _setFeLimitZero:
     894              ;* AR2   assigned to _fe_pos_min_pu
     895              $C$DW$138       .dwtag  DW_TAG_variable, DW_AT_name("fe_pos_min_pu")
     896                      .dwattr $C$DW$138, DW_AT_TI_symbol_name("_fe_pos_min_pu")
     897                      .dwattr $C$DW$138, DW_AT_type(*$C$DW$T$31)
     898                      .dwattr $C$DW$138, DW_AT_location[DW_OP_reg8]
     899              ;* AR1   assigned to _handle
     900              $C$DW$139       .dwtag  DW_TAG_variable, DW_AT_name("handle")
     901                      .dwattr $C$DW$139, DW_AT_TI_symbol_name("_handle")
     902                      .dwattr $C$DW$139, DW_AT_type(*$C$DW$T$192)
     903                      .dwattr $C$DW$139, DW_AT_location[DW_OP_reg6]
     904                      .dwcfi  cfa_offset, -2
     905                      .dwcfi  save_reg_to_mem, 26, 0
     906 0000005e B2BD          MOVL      *SP++,XAR1            ; [CPU_] 
     907                      .dwcfi  save_reg_to_mem, 7, 2
     908                      .dwcfi  cfa_offset, -4
     909 0000005f 8BA4          MOVL      XAR1,XAR4             ; [CPU_] |529| 
     910                      .dwpsn  file "C:/ti/motorware/motorware_1_01_00_15/sw/solutions/instaspin_foc/src/proj_lab02b.c",line
     911 00000060 D018          MOVB      XAR0,#24              ; [CPU_] |531| 
     912 00000061 AABD          MOVL      *SP++,XAR2            ; [CPU_] 
TMS320C2000 Assembler PC v6.4.9 Wed Dec 02 17:22:56 2015

Tools Copyright (c) 1996-2015 Texas Instruments Incorporated
C:\Users\ywcheng\AppData\Local\Temp\5808410                          PAGE   19

     913                      .dwcfi  save_reg_to_mem, 9, 4
     914                      .dwcfi  cfa_offset, -6
     915 00000062 8A91          MOVL      XAR4,*+XAR1[AR0]      ; [CPU_] |531| 
     916              $C$DW$140       .dwtag  DW_TAG_TI_branch
     917                      .dwattr $C$DW$140, DW_AT_low_pc(0x00)
     918                      .dwattr $C$DW$140, DW_AT_name("_EST_getState")
     919                      .dwattr $C$DW$140, DW_AT_TI_call
     920 00000063 7640!         LCR       #_EST_getState        ; [CPU_] |531| 
         00000064 0000 
     921                      ; call occurs [#_EST_getState] ; [] |531| 
     922                      .dwpsn  file "C:/ti/motorware/motorware_1_01_00_15/sw/solutions/instaspin_foc/src/proj_lab02b.c",line
     923 00000065 D018          MOVB      XAR0,#24              ; [CPU_] |536| 
     924 00000066 8A91          MOVL      XAR4,*+XAR1[AR0]      ; [CPU_] |536| 
     925              $C$DW$141       .dwtag  DW_TAG_TI_branch
     926                      .dwattr $C$DW$141, DW_AT_low_pc(0x00)
     927                      .dwattr $C$DW$141, DW_AT_name("_EST_isMotorIdentified")
     928                      .dwattr $C$DW$141, DW_AT_TI_call
     929 00000067 7640!         LCR       #_EST_isMotorIdentified ; [CPU_] |536| 
         00000068 0000 
     930                      ; call occurs [#_EST_isMotorIdentified] ; [] |536| 
     931 00000069 5200          CMPB      AL,#0                 ; [CPU_] |536| 
     932 0000006a ED08          BF        $C$L1,NEQ             ; [CPU_] |536| 
     933                      ; branchcc occurs ; [] |536| 
     934 0000006b D084          MOVB      XAR0,#132             ; [CPU_] |536| 
     935 0000006c 9291          MOV       AL,*+XAR1[AR0]        ; [CPU_] |536| 
     936 0000006d 5201          CMPB      AL,#1                 ; [CPU_] |536| 
     937 0000006e EC04          BF        $C$L1,EQ              ; [CPU_] |536| 
     938                      ; branchcc occurs ; [] |536| 
     939                      .dwpsn  file "C:/ti/motorware/motorware_1_01_00_15/sw/solutions/instaspin_foc/src/proj_lab02b.c",line
     940 0000006f 0200          MOVB      ACC,#0                ; [CPU_] |538| 
     941                      .dwpsn  file "C:/ti/motorware/motorware_1_01_00_15/sw/solutions/instaspin_foc/src/proj_lab02b.c",line
     942 00000070 D200          MOVB      XAR2,#0               ; [CPU_] |540| 
     943                      .dwpsn  file "C:/ti/motorware/motorware_1_01_00_15/sw/solutions/instaspin_foc/src/proj_lab02b.c",line
     944 00000071 6F07          B         $C$L2,UNC             ; [CPU_] |541| 
     945                      ; branch occurs ; [] |541| 
     946 00000072       $C$L1:    
     947                      .dwpsn  file "C:/ti/motorware/motorware_1_01_00_15/sw/solutions/instaspin_foc/src/proj_lab02b.c",line
     948 00000072 28A9          MOV       AL,#49808             ; [CPU_] |544| 
         00000073 C290 
     949 00000074 28A8          MOV       AH,#65525             ; [CPU_] |544| 
         00000075 FFF5 
     950                      .dwpsn  file "C:/ti/motorware/motorware_1_01_00_15/sw/solutions/instaspin_foc/src/proj_lab02b.c",line
     951 00000076 8D8A          MOVL      XAR2,#671088          ; [CPU_U] |546| 
         00000077 3D70 
     952 00000078       $C$L2:    
     953                      .dwpsn  file "C:/ti/motorware/motorware_1_01_00_15/sw/solutions/instaspin_foc/src/proj_lab02b.c",line
     954 00000078 D018          MOVB      XAR0,#24              ; [CPU_] |549| 
     955 00000079 8A91          MOVL      XAR4,*+XAR1[AR0]      ; [CPU_] |549| 
     956              $C$DW$142       .dwtag  DW_TAG_TI_branch
     957                      .dwattr $C$DW$142, DW_AT_low_pc(0x00)
     958                      .dwattr $C$DW$142, DW_AT_name("_EST_setFe_neg_max_pu")
     959                      .dwattr $C$DW$142, DW_AT_TI_call
     960 0000007a 7640!         LCR       #_EST_setFe_neg_max_pu ; [CPU_] |549| 
         0000007b 0000 
     961                      ; call occurs [#_EST_setFe_neg_max_pu] ; [] |549| 
TMS320C2000 Assembler PC v6.4.9 Wed Dec 02 17:22:56 2015

Tools Copyright (c) 1996-2015 Texas Instruments Incorporated
C:\Users\ywcheng\AppData\Local\Temp\5808410                          PAGE   20

     962                      .dwpsn  file "C:/ti/motorware/motorware_1_01_00_15/sw/solutions/instaspin_foc/src/proj_lab02b.c",line
     963 0000007c D018          MOVB      XAR0,#24              ; [CPU_] |551| 
     964 0000007d AAA9          MOVL      ACC,XAR2              ; [CPU_] |551| 
     965 0000007e 8A91          MOVL      XAR4,*+XAR1[AR0]      ; [CPU_] |551| 
     966              $C$DW$143       .dwtag  DW_TAG_TI_branch
     967                      .dwattr $C$DW$143, DW_AT_low_pc(0x00)
     968                      .dwattr $C$DW$143, DW_AT_name("_EST_setFe_pos_min_pu")
     969                      .dwattr $C$DW$143, DW_AT_TI_call
     970 0000007f 7640!         LCR       #_EST_setFe_pos_min_pu ; [CPU_] |551| 
         00000080 0000 
     971                      ; call occurs [#_EST_setFe_pos_min_pu] ; [] |551| 
     972 00000081 86BE          MOVL      XAR2,*--SP            ; [CPU_] 
     973                      .dwcfi  cfa_offset, -4
     974                      .dwcfi  restore_reg, 9
     975 00000082 8BBE          MOVL      XAR1,*--SP            ; [CPU_] 
     976                      .dwcfi  cfa_offset, -2
     977                      .dwcfi  restore_reg, 7
     978              $C$DW$144       .dwtag  DW_TAG_TI_branch
     979                      .dwattr $C$DW$144, DW_AT_low_pc(0x00)
     980                      .dwattr $C$DW$144, DW_AT_TI_return
     981 00000083 0006          LRETR     ; [CPU_] 
     982                      ; return occurs ; [] 
     983                      .dwattr $C$DW$136, DW_AT_TI_end_file("C:/ti/motorware/motorware_1_01_00_15/sw/solutions/instaspin_foc
     984                      .dwattr $C$DW$136, DW_AT_TI_end_line(0x22a)
     985                      .dwattr $C$DW$136, DW_AT_TI_end_column(0x01)
     986                      .dwendentry
     987                      .dwendtag $C$DW$136
     988              
     989 00000084               .sect   ".text"
     990                      .clink
     991                      .global _recalcKpKi
     992              
     993              $C$DW$145       .dwtag  DW_TAG_subprogram, DW_AT_name("recalcKpKi")
     994                      .dwattr $C$DW$145, DW_AT_low_pc(_recalcKpKi)
     995                      .dwattr $C$DW$145, DW_AT_high_pc(0x00)
     996                      .dwattr $C$DW$145, DW_AT_TI_symbol_name("_recalcKpKi")
     997                      .dwattr $C$DW$145, DW_AT_external
     998                      .dwattr $C$DW$145, DW_AT_TI_begin_file("C:/ti/motorware/motorware_1_01_00_15/sw/solutions/instaspin_f
     999                      .dwattr $C$DW$145, DW_AT_TI_begin_line(0x1ef)
    1000                      .dwattr $C$DW$145, DW_AT_TI_begin_column(0x06)
    1001                      .dwattr $C$DW$145, DW_AT_TI_max_frame_size(-18)
    1002                      .dwpsn  file "C:/ti/motorware/motorware_1_01_00_15/sw/solutions/instaspin_foc/src/proj_lab02b.c",line
    1003              
    1004                      .dwfde $C$DW$CIE, _recalcKpKi
    1005              $C$DW$146       .dwtag  DW_TAG_formal_parameter, DW_AT_name("handle")
    1006                      .dwattr $C$DW$146, DW_AT_TI_symbol_name("_handle")
    1007                      .dwattr $C$DW$146, DW_AT_type(*$C$DW$T$160)
    1008                      .dwattr $C$DW$146, DW_AT_location[DW_OP_reg12]
    1009              
    1010              ;***************************************************************
    1011              ;* FNAME: _recalcKpKi                   FR SIZE:  16           *
    1012              ;*                                                             *
    1013              ;* FUNCTION ENVIRONMENT                                        *
    1014              ;*                                                             *
    1015              ;* FUNCTION PROPERTIES                                         *
TMS320C2000 Assembler PC v6.4.9 Wed Dec 02 17:22:56 2015

Tools Copyright (c) 1996-2015 Texas Instruments Incorporated
C:\Users\ywcheng\AppData\Local\Temp\5808410                          PAGE   21

    1016              ;*                            2 Parameter,  8 Auto,  6 SOE     *
    1017              ;***************************************************************
    1018              
    1019              _recalcKpKi:
    1020              ;* AR2   assigned to $O$C1
    1021              ;* AR2   assigned to $O$C2
    1022              ;* AR3   assigned to _handle
    1023              $C$DW$147       .dwtag  DW_TAG_variable, DW_AT_name("handle")
    1024                      .dwattr $C$DW$147, DW_AT_TI_symbol_name("_handle")
    1025                      .dwattr $C$DW$147, DW_AT_type(*$C$DW$T$192)
    1026                      .dwattr $C$DW$147, DW_AT_location[DW_OP_reg10]
    1027              ;* AR1   assigned to _EstState
    1028              $C$DW$148       .dwtag  DW_TAG_variable, DW_AT_name("EstState")
    1029                      .dwattr $C$DW$148, DW_AT_TI_symbol_name("_EstState")
    1030                      .dwattr $C$DW$148, DW_AT_type(*$C$DW$T$125)
    1031                      .dwattr $C$DW$148, DW_AT_location[DW_OP_reg6]
    1032              ;* AR1   assigned to _Kp
    1033              $C$DW$149       .dwtag  DW_TAG_variable, DW_AT_name("Kp")
    1034                      .dwattr $C$DW$149, DW_AT_TI_symbol_name("_Kp")
    1035                      .dwattr $C$DW$149, DW_AT_type(*$C$DW$T$31)
    1036                      .dwattr $C$DW$149, DW_AT_location[DW_OP_reg6]
    1037              ;* AL    assigned to _Ki
    1038              $C$DW$150       .dwtag  DW_TAG_variable, DW_AT_name("Ki")
    1039                      .dwattr $C$DW$150, DW_AT_TI_symbol_name("_Ki")
    1040                      .dwattr $C$DW$150, DW_AT_type(*$C$DW$T$31)
    1041                      .dwattr $C$DW$150, DW_AT_location[DW_OP_reg0]
    1042                      .dwcfi  cfa_offset, -2
    1043                      .dwcfi  save_reg_to_mem, 26, 0
    1044 00000084 B2BD          MOVL      *SP++,XAR1            ; [CPU_] 
    1045                      .dwcfi  save_reg_to_mem, 7, 2
    1046                      .dwcfi  cfa_offset, -4
    1047 00000085 AABD          MOVL      *SP++,XAR2            ; [CPU_] 
    1048                      .dwcfi  save_reg_to_mem, 9, 4
    1049                      .dwcfi  cfa_offset, -6
    1050 00000086 A2BD          MOVL      *SP++,XAR3            ; [CPU_] 
    1051                      .dwcfi  save_reg_to_mem, 11, 6
    1052                      .dwcfi  cfa_offset, -8
    1053 00000087 FE0A          ADDB      SP,#10                ; [CPU_U] 
    1054                      .dwcfi  cfa_offset, -18
    1055 00000088 82A4          MOVL      XAR3,XAR4             ; [CPU_] |496| 
    1056                      .dwpsn  file "C:/ti/motorware/motorware_1_01_00_15/sw/solutions/instaspin_foc/src/proj_lab02b.c",line
    1057 00000089 D018          MOVB      XAR0,#24              ; [CPU_] |498| 
    1058 0000008a 8A93          MOVL      XAR4,*+XAR3[AR0]      ; [CPU_] |498| 
    1059              $C$DW$151       .dwtag  DW_TAG_TI_branch
    1060                      .dwattr $C$DW$151, DW_AT_low_pc(0x00)
    1061                      .dwattr $C$DW$151, DW_AT_name("_EST_getState")
    1062                      .dwattr $C$DW$151, DW_AT_TI_call
    1063 0000008b 7640!         LCR       #_EST_getState        ; [CPU_] |498| 
         0000008c 0000 
    1064                      ; call occurs [#_EST_getState] ; [] |498| 
    1065                      .dwpsn  file "C:/ti/motorware/motorware_1_01_00_15/sw/solutions/instaspin_foc/src/proj_lab02b.c",line
    1066 0000008d D018          MOVB      XAR0,#24              ; [CPU_] |500| 
    1067                      .dwpsn  file "C:/ti/motorware/motorware_1_01_00_15/sw/solutions/instaspin_foc/src/proj_lab02b.c",line
    1068 0000008e 59A9          MOVZ      AR1,AL                ; [CPU_] |498| 
    1069                      .dwpsn  file "C:/ti/motorware/motorware_1_01_00_15/sw/solutions/instaspin_foc/src/proj_lab02b.c",line
TMS320C2000 Assembler PC v6.4.9 Wed Dec 02 17:22:56 2015

Tools Copyright (c) 1996-2015 Texas Instruments Incorporated
C:\Users\ywcheng\AppData\Local\Temp\5808410                          PAGE   22

    1070 0000008f 8A93          MOVL      XAR4,*+XAR3[AR0]      ; [CPU_] |500| 
    1071              $C$DW$152       .dwtag  DW_TAG_TI_branch
    1072                      .dwattr $C$DW$152, DW_AT_low_pc(0x00)
    1073                      .dwattr $C$DW$152, DW_AT_name("_EST_isMotorIdentified")
    1074                      .dwattr $C$DW$152, DW_AT_TI_call
    1075 00000090 7640!         LCR       #_EST_isMotorIdentified ; [CPU_] |500| 
         00000091 0000 
    1076                      ; call occurs [#_EST_isMotorIdentified] ; [] |500| 
    1077 00000092 5200          CMPB      AL,#0                 ; [CPU_] |500| 
    1078 00000093 ED64          BF        $C$L3,NEQ             ; [CPU_] |500| 
    1079                      ; branchcc occurs ; [] |500| 
    1080 00000094 92A1          MOV       AL,AR1                ; [CPU_] 
    1081 00000095 5203          CMPB      AL,#3                 ; [CPU_] |500| 
    1082 00000096 ED61          BF        $C$L3,NEQ             ; [CPU_] |500| 
    1083                      ; branchcc occurs ; [] |500| 
    1084                      .dwpsn  file "C:/ti/motorware/motorware_1_01_00_15/sw/solutions/instaspin_foc/src/proj_lab02b.c",line
    1085 00000097 D0C6          MOVB      XAR0,#198             ; [CPU_] |505| 
    1086 00000098 8693          MOVL      XAR2,*+XAR3[AR0]      ; [CPU_] |505| 
    1087 00000099 FF2F          MOV       ACC,#32000 << 15      ; [CPU_] |505| 
         0000009a 7D00 
    1088 0000009b 1E42          MOVL      *-SP[2],ACC           ; [CPU_] |505| 
    1089 0000009c AAA9          MOVL      ACC,XAR2              ; [CPU_] |505| 
    1090              $C$DW$153       .dwtag  DW_TAG_TI_branch
    1091                      .dwattr $C$DW$153, DW_AT_low_pc(0x00)
    1092                      .dwattr $C$DW$153, DW_AT_name("FS$$MPY")
    1093                      .dwattr $C$DW$153, DW_AT_TI_call
    1094 0000009d 7640!         LCR       #FS$$MPY              ; [CPU_] |505| 
         0000009e 0000 
    1095                      ; call occurs [#FS$$MPY] ; [] |505| 
    1096 0000009f 1EA6          MOVL      XAR6,ACC              ; [CPU_] |505| 
    1097 000000a0 9A00          MOV       AL,#0                 ; [CPU_] |505| 
    1098 000000a1 28A8          MOV       AH,#16672             ; [CPU_] |505| 
         000000a2 4120 
    1099 000000a3 1E42          MOVL      *-SP[2],ACC           ; [CPU_] |505| 
    1100 000000a4 06A6          MOVL      ACC,XAR6              ; [CPU_] |505| 
    1101              $C$DW$154       .dwtag  DW_TAG_TI_branch
    1102                      .dwattr $C$DW$154, DW_AT_low_pc(0x00)
    1103                      .dwattr $C$DW$154, DW_AT_name("FS$$MPY")
    1104                      .dwattr $C$DW$154, DW_AT_TI_call
    1105 000000a5 7640!         LCR       #FS$$MPY              ; [CPU_] |505| 
         000000a6 0000 
    1106                      ; call occurs [#FS$$MPY] ; [] |505| 
    1107 000000a7 1EA6          MOVL      XAR6,ACC              ; [CPU_] |505| 
    1108 000000a8 28A9          MOV       AL,#49808             ; [CPU_] |505| 
         000000a9 C290 
    1109 000000aa 28A8          MOV       AH,#15605             ; [CPU_] |505| 
         000000ab 3CF5 
    1110 000000ac 1E42          MOVL      *-SP[2],ACC           ; [CPU_] |505| 
    1111 000000ad 06A6          MOVL      ACC,XAR6              ; [CPU_] |505| 
    1112              $C$DW$155       .dwtag  DW_TAG_TI_branch
    1113                      .dwattr $C$DW$155, DW_AT_low_pc(0x00)
    1114                      .dwattr $C$DW$155, DW_AT_name("FS$$DIV")
    1115                      .dwattr $C$DW$155, DW_AT_TI_call
    1116 000000ae 7640!         LCR       #FS$$DIV              ; [CPU_] |505| 
         000000af 0000 
TMS320C2000 Assembler PC v6.4.9 Wed Dec 02 17:22:56 2015

Tools Copyright (c) 1996-2015 Texas Instruments Incorporated
C:\Users\ywcheng\AppData\Local\Temp\5808410                          PAGE   23

    1117                      ; call occurs [#FS$$DIV] ; [] |505| 
    1118 000000b0 5CAD          MOVZ      AR4,SP                ; [CPU_] |505| 
    1119 000000b1 DC8A          SUBB      XAR4,#10              ; [CPU_U] |505| 
    1120 000000b2 88A4          MOVZ      AR6,AR4               ; [CPU_] |505| 
    1121              $C$DW$156       .dwtag  DW_TAG_TI_branch
    1122                      .dwattr $C$DW$156, DW_AT_low_pc(0x00)
    1123                      .dwattr $C$DW$156, DW_AT_name("FS$$TOFD")
    1124                      .dwattr $C$DW$156, DW_AT_TI_call
    1125 000000b3 7640!         LCR       #FS$$TOFD             ; [CPU_] |505| 
         000000b4 0000 
    1126                      ; call occurs [#FS$$TOFD] ; [] |505| 
    1127 000000b5 5DAD          MOVZ      AR5,SP                ; [CPU_] |505| 
    1128 000000b6 5CAD          MOVZ      AR4,SP                ; [CPU_] |505| 
    1129 000000b7 DD86          SUBB      XAR5,#6               ; [CPU_U] |505| 
    1130 000000b8 DC8A          SUBB      XAR4,#10              ; [CPU_U] |505| 
    1131 000000b9 88A5          MOVZ      AR6,AR5               ; [CPU_] |505| 
    1132 000000ba 5CA4          MOVZ      AR4,AR4               ; [CPU_] |505| 
    1133 000000bb 8F40+         MOVL      XAR5,#$C$FL1          ; [CPU_U] |505| 
         000000bc 0000 
    1134              $C$DW$157       .dwtag  DW_TAG_TI_branch
    1135                      .dwattr $C$DW$157, DW_AT_low_pc(0x00)
    1136                      .dwattr $C$DW$157, DW_AT_name("FD$$MPY")
    1137                      .dwattr $C$DW$157, DW_AT_TI_call
    1138 000000bd 7640!         LCR       #FD$$MPY              ; [CPU_] |505| 
         000000be 0000 
    1139                      ; call occurs [#FD$$MPY] ; [] |505| 
    1140 000000bf 5CAD          MOVZ      AR4,SP                ; [CPU_] |505| 
    1141 000000c0 DC86          SUBB      XAR4,#6               ; [CPU_U] |505| 
    1142 000000c1 5CA4          MOVZ      AR4,AR4               ; [CPU_] |505| 
    1143              $C$DW$158       .dwtag  DW_TAG_TI_branch
    1144                      .dwattr $C$DW$158, DW_AT_low_pc(0x00)
    1145                      .dwattr $C$DW$158, DW_AT_name("FD$$TOL")
    1146                      .dwattr $C$DW$158, DW_AT_TI_call
    1147 000000c2 7640!         LCR       #FD$$TOL              ; [CPU_] |505| 
         000000c3 0000 
    1148                      ; call occurs [#FD$$TOL] ; [] |505| 
    1149                      .dwpsn  file "C:/ti/motorware/motorware_1_01_00_15/sw/solutions/instaspin_foc/src/proj_lab02b.c",line
    1150 000000c4 D0C4          MOVB      XAR0,#196             ; [CPU_] |506| 
    1151                      .dwpsn  file "C:/ti/motorware/motorware_1_01_00_15/sw/solutions/instaspin_foc/src/proj_lab02b.c",line
    1152 000000c5 8BA9          MOVL      XAR1,ACC              ; [CPU_] |505| 
    1153                      .dwpsn  file "C:/ti/motorware/motorware_1_01_00_15/sw/solutions/instaspin_foc/src/proj_lab02b.c",line
    1154 000000c6 AA42          MOVL      *-SP[2],XAR2          ; [CPU_] |506| 
    1155 000000c7 0693          MOVL      ACC,*+XAR3[AR0]       ; [CPU_] |506| 
    1156              $C$DW$159       .dwtag  DW_TAG_TI_branch
    1157                      .dwattr $C$DW$159, DW_AT_low_pc(0x00)
    1158                      .dwattr $C$DW$159, DW_AT_name("FS$$DIV")
    1159                      .dwattr $C$DW$159, DW_AT_TI_call
    1160 000000c8 7640!         LCR       #FS$$DIV              ; [CPU_] |506| 
         000000c9 0000 
    1161                      ; call occurs [#FS$$DIV] ; [] |506| 
    1162 000000ca 86A9          MOVL      XAR2,ACC              ; [CPU_] |506| 
    1163 000000cb 28A9          MOV       AL,#53093             ; [CPU_] |506| 
         000000cc CF65 
    1164 000000cd 28A8          MOV       AH,#14475             ; [CPU_] |506| 
         000000ce 388B 
TMS320C2000 Assembler PC v6.4.9 Wed Dec 02 17:22:56 2015

Tools Copyright (c) 1996-2015 Texas Instruments Incorporated
C:\Users\ywcheng\AppData\Local\Temp\5808410                          PAGE   24

    1165 000000cf 1E42          MOVL      *-SP[2],ACC           ; [CPU_] |506| 
    1166 000000d0 AAA9          MOVL      ACC,XAR2              ; [CPU_] |506| 
    1167              $C$DW$160       .dwtag  DW_TAG_TI_branch
    1168                      .dwattr $C$DW$160, DW_AT_low_pc(0x00)
    1169                      .dwattr $C$DW$160, DW_AT_name("FS$$MPY")
    1170                      .dwattr $C$DW$160, DW_AT_TI_call
    1171 000000d1 7640!         LCR       #FS$$MPY              ; [CPU_] |506| 
         000000d2 0000 
    1172                      ; call occurs [#FS$$MPY] ; [] |506| 
    1173 000000d3 5CAD          MOVZ      AR4,SP                ; [CPU_] |506| 
    1174 000000d4 DC8A          SUBB      XAR4,#10              ; [CPU_U] |506| 
    1175 000000d5 88A4          MOVZ      AR6,AR4               ; [CPU_] |506| 
    1176              $C$DW$161       .dwtag  DW_TAG_TI_branch
    1177                      .dwattr $C$DW$161, DW_AT_low_pc(0x00)
    1178                      .dwattr $C$DW$161, DW_AT_name("FS$$TOFD")
    1179                      .dwattr $C$DW$161, DW_AT_TI_call
    1180 000000d6 7640!         LCR       #FS$$TOFD             ; [CPU_] |506| 
         000000d7 0000 
    1181                      ; call occurs [#FS$$TOFD] ; [] |506| 
    1182 000000d8 5DAD          MOVZ      AR5,SP                ; [CPU_] |506| 
    1183 000000d9 5CAD          MOVZ      AR4,SP                ; [CPU_] |506| 
    1184 000000da DD86          SUBB      XAR5,#6               ; [CPU_U] |506| 
    1185 000000db DC8A          SUBB      XAR4,#10              ; [CPU_U] |506| 
    1186 000000dc 88A5          MOVZ      AR6,AR5               ; [CPU_] |506| 
    1187 000000dd 5CA4          MOVZ      AR4,AR4               ; [CPU_] |506| 
    1188 000000de 8F40+         MOVL      XAR5,#$C$FL1          ; [CPU_U] |506| 
         000000df 0000 
    1189              $C$DW$162       .dwtag  DW_TAG_TI_branch
    1190                      .dwattr $C$DW$162, DW_AT_low_pc(0x00)
    1191                      .dwattr $C$DW$162, DW_AT_name("FD$$MPY")
    1192                      .dwattr $C$DW$162, DW_AT_TI_call
    1193 000000e0 7640!         LCR       #FD$$MPY              ; [CPU_] |506| 
         000000e1 0000 
    1194                      ; call occurs [#FD$$MPY] ; [] |506| 
    1195 000000e2 5CAD          MOVZ      AR4,SP                ; [CPU_] |506| 
    1196 000000e3 DC86          SUBB      XAR4,#6               ; [CPU_U] |506| 
    1197 000000e4 5CA4          MOVZ      AR4,AR4               ; [CPU_] |506| 
    1198              $C$DW$163       .dwtag  DW_TAG_TI_branch
    1199                      .dwattr $C$DW$163, DW_AT_low_pc(0x00)
    1200                      .dwattr $C$DW$163, DW_AT_name("FD$$TOL")
    1201                      .dwattr $C$DW$163, DW_AT_TI_call
    1202 000000e5 7640!         LCR       #FD$$TOL              ; [CPU_] |506| 
         000000e6 0000 
    1203                      ; call occurs [#FD$$TOL] ; [] |506| 
    1204                      .dwpsn  file "C:/ti/motorware/motorware_1_01_00_15/sw/modules/ctrl/src/32b/ctrl.h",line 1688,column 3
    1205 000000e7 D0C8          MOVB      XAR0,#200             ; [CPU_] |1688| 
    1206 000000e8 AA93          MOVL      *+XAR3[AR0],XAR2      ; [CPU_] |1688| 
    1207                      .dwpsn  file "C:/ti/motorware/motorware_1_01_00_15/sw/modules/ctrl/src/32b/ctrl.h",line 1509,column 7
    1208 000000e9 D0CA          MOVB      XAR0,#202             ; [CPU_] |1509| 
    1209 000000ea B293          MOVL      *+XAR3[AR0],XAR1      ; [CPU_] |1509| 
    1210                      .dwpsn  file "C:/ti/motorware/motorware_1_01_00_15/sw/modules/ctrl/src/32b/ctrl.h",line 1513,column 7
    1211 000000eb D0CC          MOVB      XAR0,#204             ; [CPU_] |1513| 
    1212 000000ec B293          MOVL      *+XAR3[AR0],XAR1      ; [CPU_] |1513| 
    1213                      .dwpsn  file "C:/ti/motorware/motorware_1_01_00_15/sw/modules/ctrl/src/32b/ctrl.h",line 1484,column 7
    1214 000000ed D0D0          MOVB      XAR0,#208             ; [CPU_] |1484| 
TMS320C2000 Assembler PC v6.4.9 Wed Dec 02 17:22:56 2015

Tools Copyright (c) 1996-2015 Texas Instruments Incorporated
C:\Users\ywcheng\AppData\Local\Temp\5808410                          PAGE   25

    1215 000000ee 1E93          MOVL      *+XAR3[AR0],ACC       ; [CPU_] |1484| 
    1216                      .dwpsn  file "C:/ti/motorware/motorware_1_01_00_15/sw/modules/pid/src/32b/pid.h",line 333,column 3,is
    1217 000000ef D020          MOVB      XAR0,#32              ; [CPU_] |333| 
    1218 000000f0 8A93          MOVL      XAR4,*+XAR3[AR0]      ; [CPU_] |333| 
    1219                      .dwpsn  file "C:/ti/motorware/motorware_1_01_00_15/sw/modules/ctrl/src/32b/ctrl.h",line 1488,column 7
    1220 000000f1 D0D2          MOVB      XAR0,#210             ; [CPU_] |1488| 
    1221                      .dwpsn  file "C:/ti/motorware/motorware_1_01_00_15/sw/modules/pid/src/32b/pid.h",line 333,column 3,is
    1222 000000f2 1ED4          MOVL      *+XAR4[2],ACC         ; [CPU_] |333| 
    1223                      .dwpsn  file "C:/ti/motorware/motorware_1_01_00_15/sw/modules/ctrl/src/32b/ctrl.h",line 1488,column 7
    1224 000000f3 1E93          MOVL      *+XAR3[AR0],ACC       ; [CPU_] |1488| 
    1225                      .dwpsn  file "C:/ti/motorware/motorware_1_01_00_15/sw/modules/pid/src/32b/pid.h",line 333,column 3,is
    1226 000000f4 D032          MOVB      XAR0,#50              ; [CPU_] |333| 
    1227 000000f5 8A93          MOVL      XAR4,*+XAR3[AR0]      ; [CPU_] |333| 
    1228 000000f6 1ED4          MOVL      *+XAR4[2],ACC         ; [CPU_] |333| 
    1229 000000f7       $C$L3:    
    1230 000000f7 FE8A          SUBB      SP,#10                ; [CPU_U] 
    1231                      .dwcfi  cfa_offset, -8
    1232 000000f8 82BE          MOVL      XAR3,*--SP            ; [CPU_] 
    1233                      .dwcfi  cfa_offset, -6
    1234                      .dwcfi  restore_reg, 11
    1235 000000f9 86BE          MOVL      XAR2,*--SP            ; [CPU_] 
    1236                      .dwcfi  cfa_offset, -4
    1237                      .dwcfi  restore_reg, 9
    1238 000000fa 8BBE          MOVL      XAR1,*--SP            ; [CPU_] 
    1239                      .dwcfi  cfa_offset, -2
    1240                      .dwcfi  restore_reg, 7
    1241              $C$DW$164       .dwtag  DW_TAG_TI_branch
    1242                      .dwattr $C$DW$164, DW_AT_low_pc(0x00)
    1243                      .dwattr $C$DW$164, DW_AT_TI_return
    1244 000000fb 0006          LRETR     ; [CPU_] 
    1245                      ; return occurs ; [] 
    1246                      .dwattr $C$DW$145, DW_AT_TI_end_file("C:/ti/motorware/motorware_1_01_00_15/sw/solutions/instaspin_foc
    1247                      .dwattr $C$DW$145, DW_AT_TI_end_line(0x20d)
    1248                      .dwattr $C$DW$145, DW_AT_TI_end_column(0x01)
    1249                      .dwendentry
    1250                      .dwendtag $C$DW$145
    1251              
    1252 00000000               .sect   "ramfuncs:retain"
    1253                      .retain
    1254                      .retainrefs
    1255                      .global _mainISR
    1256              
    1257              $C$DW$165       .dwtag  DW_TAG_subprogram, DW_AT_name("mainISR")
    1258                      .dwattr $C$DW$165, DW_AT_low_pc(_mainISR)
    1259                      .dwattr $C$DW$165, DW_AT_high_pc(0x00)
    1260                      .dwattr $C$DW$165, DW_AT_TI_symbol_name("_mainISR")
    1261                      .dwattr $C$DW$165, DW_AT_external
    1262                      .dwattr $C$DW$165, DW_AT_TI_begin_file("C:/ti/motorware/motorware_1_01_00_15/sw/solutions/instaspin_f
    1263                      .dwattr $C$DW$165, DW_AT_TI_begin_line(0x1a4)
    1264                      .dwattr $C$DW$165, DW_AT_TI_begin_column(0x10)
    1265                      .dwattr $C$DW$165, DW_AT_TI_interrupt
    1266                      .dwattr $C$DW$165, DW_AT_TI_max_frame_size(-18)
    1267                      .dwpsn  file "C:/ti/motorware/motorware_1_01_00_15/sw/solutions/instaspin_foc/src/proj_lab02b.c",line
    1268              
    1269                      .dwfde $C$DW$CIE, _mainISR
TMS320C2000 Assembler PC v6.4.9 Wed Dec 02 17:22:56 2015

Tools Copyright (c) 1996-2015 Texas Instruments Incorporated
C:\Users\ywcheng\AppData\Local\Temp\5808410                          PAGE   26

    1270              
    1271              ;***************************************************************
    1272              ;* FNAME: _mainISR                      FR SIZE:  16           *
    1273              ;*                                                             *
    1274              ;* FUNCTION ENVIRONMENT                                        *
    1275              ;*                                                             *
    1276              ;* FUNCTION PROPERTIES                                         *
    1277              ;*                            4 Parameter,  0 Auto, 12 SOE     *
    1278              ;***************************************************************
    1279              
    1280              _mainISR:
    1281              ;* AR5   assigned to $O$C1
    1282              ;* AR1   assigned to $O$C2
    1283              ;* AR4   assigned to $O$C3
    1284              ;* AR7   assigned to $O$C4
    1285              ;* AR6   assigned to $O$C5
    1286              ;* AR7   assigned to $O$C6
    1287              ;* AR5   assigned to $O$v1
    1288              ;* XT    assigned to _value
    1289              $C$DW$166       .dwtag  DW_TAG_variable, DW_AT_name("value")
    1290                      .dwattr $C$DW$166, DW_AT_TI_symbol_name("_value")
    1291                      .dwattr $C$DW$166, DW_AT_type(*$C$DW$T$31)
    1292                      .dwattr $C$DW$166, DW_AT_location[DW_OP_reg21]
    1293              ;* XT    assigned to _value
    1294              $C$DW$167       .dwtag  DW_TAG_variable, DW_AT_name("value")
    1295                      .dwattr $C$DW$167, DW_AT_TI_symbol_name("_value")
    1296                      .dwattr $C$DW$167, DW_AT_type(*$C$DW$T$31)
    1297                      .dwattr $C$DW$167, DW_AT_location[DW_OP_reg21]
    1298              ;* XT    assigned to _value
    1299              $C$DW$168       .dwtag  DW_TAG_variable, DW_AT_name("value")
    1300                      .dwattr $C$DW$168, DW_AT_TI_symbol_name("_value")
    1301                      .dwattr $C$DW$168, DW_AT_type(*$C$DW$T$31)
    1302                      .dwattr $C$DW$168, DW_AT_location[DW_OP_reg21]
    1303              ;* XT    assigned to _value
    1304              $C$DW$169       .dwtag  DW_TAG_variable, DW_AT_name("value")
    1305                      .dwattr $C$DW$169, DW_AT_TI_symbol_name("_value")
    1306                      .dwattr $C$DW$169, DW_AT_type(*$C$DW$T$31)
    1307                      .dwattr $C$DW$169, DW_AT_location[DW_OP_reg21]
    1308              ;* XT    assigned to _value
    1309              $C$DW$170       .dwtag  DW_TAG_variable, DW_AT_name("value")
    1310                      .dwattr $C$DW$170, DW_AT_TI_symbol_name("_value")
    1311                      .dwattr $C$DW$170, DW_AT_type(*$C$DW$T$31)
    1312                      .dwattr $C$DW$170, DW_AT_location[DW_OP_reg21]
    1313              ;* XT    assigned to _value
    1314              $C$DW$171       .dwtag  DW_TAG_variable, DW_AT_name("value")
    1315                      .dwattr $C$DW$171, DW_AT_TI_symbol_name("_value")
    1316                      .dwattr $C$DW$171, DW_AT_type(*$C$DW$T$31)
    1317                      .dwattr $C$DW$171, DW_AT_location[DW_OP_reg21]
    1318              ;* XT    assigned to _value
    1319              $C$DW$172       .dwtag  DW_TAG_variable, DW_AT_name("value")
    1320                      .dwattr $C$DW$172, DW_AT_TI_symbol_name("_value")
    1321                      .dwattr $C$DW$172, DW_AT_type(*$C$DW$T$31)
    1322                      .dwattr $C$DW$172, DW_AT_location[DW_OP_reg21]
    1323              ;* AR7   assigned to _period
    1324              $C$DW$173       .dwtag  DW_TAG_variable, DW_AT_name("period")
TMS320C2000 Assembler PC v6.4.9 Wed Dec 02 17:22:56 2015

Tools Copyright (c) 1996-2015 Texas Instruments Incorporated
C:\Users\ywcheng\AppData\Local\Temp\5808410                          PAGE   27

    1325                      .dwattr $C$DW$173, DW_AT_TI_symbol_name("_period")
    1326                      .dwattr $C$DW$173, DW_AT_type(*$C$DW$T$31)
    1327                      .dwattr $C$DW$173, DW_AT_location[DW_OP_reg18]
    1328              ;* AR5   assigned to _obj
    1329              $C$DW$174       .dwtag  DW_TAG_variable, DW_AT_name("obj")
    1330                      .dwattr $C$DW$174, DW_AT_TI_symbol_name("_obj")
    1331                      .dwattr $C$DW$174, DW_AT_type(*$C$DW$T$208)
    1332                      .dwattr $C$DW$174, DW_AT_location[DW_OP_reg14]
    1333              ;* AR1   assigned to $O$U110
    1334              ;* AR4   assigned to $O$U102
    1335                      .dwcfi  cfa_offset, -2
    1336                      .dwcfi  save_reg_to_mem, 26, 0
    1337 00000000 761B          ASP       ; [CPU_] 
    1338 00000001 0005          PUSH      AR1H:AR0H             ; [CPU_] 
    1339                      .dwcfi  save_reg_to_mem, 5, 2
    1340                      .dwcfi  save_reg_to_mem, 7, 3
    1341                      .dwcfi  cfa_offset, -4
    1342 00000002 ABBD          MOVL      *SP++,XT              ; [CPU_] 
    1343                      .dwcfi  save_reg_to_mem, 21, 4
    1344                      .dwcfi  save_reg_to_mem, 22, 5
    1345                      .dwcfi  cfa_offset, -6
    1346 00000003 A8BD          MOVL      *SP++,XAR4            ; [CPU_] 
    1347                      .dwcfi  save_reg_to_mem, 12, 6
    1348                      .dwcfi  save_reg_to_mem, 13, 7
    1349                      .dwcfi  cfa_offset, -8
    1350 00000004 A0BD          MOVL      *SP++,XAR5            ; [CPU_] 
    1351                      .dwcfi  save_reg_to_mem, 14, 8
    1352                      .dwcfi  save_reg_to_mem, 15, 9
    1353                      .dwcfi  cfa_offset, -10
    1354 00000005 C2BD          MOVL      *SP++,XAR6            ; [CPU_] 
    1355                      .dwcfi  save_reg_to_mem, 16, 10
    1356                      .dwcfi  save_reg_to_mem, 17, 11
    1357                      .dwcfi  cfa_offset, -12
    1358 00000006 C3BD          MOVL      *SP++,XAR7            ; [CPU_] 
    1359                      .dwcfi  save_reg_to_mem, 18, 12
    1360                      .dwcfi  save_reg_to_mem, 19, 13
    1361                      .dwcfi  cfa_offset, -14
    1362 00000007 FE04          ADDB      SP,#4                 ; [CPU_U] 
    1363                      .dwcfi  cfa_offset, -18
    1364 00000008 FF69          SPM       0                     ; [CPU_] 
    1365 00000009 2942          CLRC      PAGE0,OVM             ; [CPU_] 
    1366 0000000a 5616          CLRC      AMODE                 ; [CPU_] 
    1367 0000000b 761F-         MOVW      DP,#_gLEDcnt          ; [CPU_U] 
         0000000c 0000 
    1368                      .dwpsn  file "C:/ti/motorware/motorware_1_01_00_15/sw/solutions/instaspin_foc/src/proj_lab02b.c",line
    1369 0000000d 0A01-         INC       @_gLEDcnt             ; [CPU_] |423| 
    1370 0000000e 9201-         MOV       AL,@_gLEDcnt          ; [CPU_] |423| 
    1371 0000000f 9CFF          ADDB      AL,#-1                ; [CPU_] |423| 
    1372 00000010 1BA9          CMP       AL,#3000              ; [CPU_] |423| 
         00000011 0BB8 
    1373 00000012 56C9          BF        $C$L4,LOS             ; [CPU_] |423| 
         00000013 000E 
    1374                      ; branchcc occurs ; [] |423| 
    1375                      .dwpsn  file "C:/ti/motorware/motorware_1_01_00_15/sw/modules/hal/boards/hvkit_rev1p1/f28x/f2802x/src
    1376 00000014 0208          MOVB      ACC,#8                ; [CPU_] |736| 
TMS320C2000 Assembler PC v6.4.9 Wed Dec 02 17:22:56 2015

Tools Copyright (c) 1996-2015 Texas Instruments Incorporated
C:\Users\ywcheng\AppData\Local\Temp\5808410                          PAGE   28

    1377 00000015 761F-         MOVW      DP,#_halHandle        ; [CPU_U] 
         00000016 0000 
    1378 00000017 0700-         ADDL      ACC,@_halHandle       ; [CPU_] |736| 
    1379 00000018 8AA9          MOVL      XAR4,ACC              ; [CPU_] |736| 
    1380 00000019 9A22          MOVB      AL,#34                ; [CPU_] |736| 
    1381 0000001a 8AC4          MOVL      XAR4,*+XAR4[0]        ; [CPU_] |736| 
    1382              $C$DW$175       .dwtag  DW_TAG_TI_branch
    1383                      .dwattr $C$DW$175, DW_AT_low_pc(0x00)
    1384                      .dwattr $C$DW$175, DW_AT_name("_GPIO_toggle")
    1385                      .dwattr $C$DW$175, DW_AT_TI_call
    1386 0000001b 7640!         LCR       #_GPIO_toggle         ; [CPU_] |736| 
         0000001c 0000 
    1387                      ; call occurs [#_GPIO_toggle] ; [] |736| 
    1388 0000001d 761F-         MOVW      DP,#_gLEDcnt          ; [CPU_U] 
         0000001e 0000 
    1389                      .dwpsn  file "C:/ti/motorware/motorware_1_01_00_15/sw/solutions/instaspin_foc/src/proj_lab02b.c",line
    1390 0000001f 2B01-         MOV       @_gLEDcnt,#0          ; [CPU_] |426| 
    1391 00000020       $C$L4:    
    1392 00000020 761F-         MOVW      DP,#_halHandle        ; [CPU_U] 
         00000021 0000 
    1393                      .dwpsn  file "C:/ti/motorware/motorware_1_01_00_15/sw/solutions/instaspin_foc/src/proj_lab02b.c",line
    1394 00000022 8300-         MOVL      XAR5,@_halHandle      ; [CPU_] |431| 
    1395                      .dwpsn  file "C:/ti/motorware/motorware_1_01_00_15/sw/drivers/adc/src/32b/f28x/f2802x/adc.h",line 571
    1396 00000023 8F00          MOVL      XAR4,#26117           ; [CPU_U] |571| 
         00000024 6605 
    1397 00000025 A8A9          MOVL      ACC,XAR4              ; [CPU_] |571| 
    1398 00000026 07C5          ADDL      ACC,*+XAR5[0]         ; [CPU_] |571| 
    1399 00000027 8AA9          MOVL      XAR4,ACC              ; [CPU_] |571| 
    1400                      .dwpsn  file "C:/ti/motorware/motorware_1_01_00_15/sw/drivers/pie/src/32b/f28x/f2802x/pie.h",line 757
    1401 00000028 D078          MOVB      XAR0,#120             ; [CPU_] |757| 
    1402                      .dwpsn  file "C:/ti/motorware/motorware_1_01_00_15/sw/drivers/adc/src/32b/f28x/f2802x/adc.h",line 571
    1403 00000029 56BF          MOVB      *+XAR4[0],#1,UNC      ; [CPU_] |571| 
         0000002a 01C4 
    1404                      .dwpsn  file "C:/ti/motorware/motorware_1_01_00_15/sw/drivers/pie/src/32b/f28x/f2802x/pie.h",line 757
    1405 0000002b 8A95          MOVL      XAR4,*+XAR5[AR0]      ; [CPU_] |757| 
    1406                      .dwpsn  file "C:/ti/motorware/motorware_1_01_00_15/sw/modules/hal/boards/hvkit_rev1p1/f28x/f2802x/src
    1407 0000002c D0A0          MOVB      XAR0,#160             ; [CPU_] |489| 
    1408 0000002d 761F-         MOVW      DP,#_ctrlHandle       ; [CPU_U] 
         0000002e 0000 
    1409                      .dwpsn  file "C:/ti/motorware/motorware_1_01_00_15/sw/drivers/pie/src/32b/f28x/f2802x/pie.h",line 757
    1410 0000002f 28CC          MOV       *+XAR4[1],#512        ; [CPU_] |757| 
         00000030 0200 
    1411                      .dwpsn  file "C:/ti/motorware/motorware_1_01_00_15/sw/drivers/adc/src/32b/f28x/f2802x/adc.h",line 684
    1412 00000031 C4C5          MOVL      XAR6,*+XAR5[0]        ; [CPU_] |684| 
    1413                      .dwpsn  file "C:/ti/motorware/motorware_1_01_00_15/sw/modules/hal/boards/hvkit_rev1p1/f28x/f2802x/src
    1414 00000032 C595          MOVL      XAR7,*+XAR5[AR0]      ; [CPU_] |489| 
    1415                      .dwpsn  file "C:/ti/motorware/motorware_1_01_00_15/sw/modules/hal/boards/hvkit_rev1p1/f28x/f2802x/src
    1416 00000033 8F00-         MOVL      XAR4,#_gAdcData       ; [CPU_U] |490| 
         00000034 000E 
    1417                      .dwpsn  file "C:/ti/motorware/motorware_1_01_00_15/sw/modules/hal/boards/hvkit_rev1p1/f28x/f2802x/src
    1418 00000035 D092          MOVB      XAR0,#146             ; [CPU_] |489| 
    1419                      .dwpsn  file "C:/ti/motorware/motorware_1_01_00_15/sw/drivers/adc/src/32b/f28x/f2802x/adc.h",line 684
    1420 00000036 0ECE          MOVU      ACC,*+XAR6[1]         ; [CPU_] |684| 
    1421 00000037 1EAC          MOVL      XT,ACC                ; [CPU_] |684| 
    1422                      .dwpsn  file "C:/ti/motorware/motorware_1_01_00_15/sw/modules/hal/boards/hvkit_rev1p1/f28x/f2802x/src
TMS320C2000 Assembler PC v6.4.9 Wed Dec 02 17:22:56 2015

Tools Copyright (c) 1996-2015 Texas Instruments Incorporated
C:\Users\ywcheng\AppData\Local\Temp\5808410                          PAGE   29

    1423 00000038 5605          IMPYL     P,XT,XAR7             ; [CPU_] |489| 
         00000039 00A7 
    1424 0000003a 5663          QMPYL     ACC,XT,XAR7           ; [CPU_] |489| 
         0000003b 00A7 
    1425 0000003c 568B          ASR64     ACC:P,#12             ; [CPU_] |489| 
    1426 0000003d A9A9          MOVL      ACC,P                 ; [CPU_] |489| 
    1427 0000003e 0395          SUBL      ACC,*+XAR5[AR0]       ; [CPU_] |489| 
    1428                      .dwpsn  file "C:/ti/motorware/motorware_1_01_00_15/sw/modules/hal/boards/hvkit_rev1p1/f28x/f2802x/src
    1429 0000003f D094          MOVB      XAR0,#148             ; [CPU_] |494| 
    1430                      .dwpsn  file "C:/ti/motorware/motorware_1_01_00_15/sw/modules/hal/boards/hvkit_rev1p1/f28x/f2802x/src
    1431 00000040 1EC4          MOVL      *+XAR4[0],ACC         ; [CPU_] |490| 
    1432                      .dwpsn  file "C:/ti/motorware/motorware_1_01_00_15/sw/drivers/adc/src/32b/f28x/f2802x/adc.h",line 684
    1433 00000041 0ED6          MOVU      ACC,*+XAR6[2]         ; [CPU_] |684| 
    1434 00000042 1EAC          MOVL      XT,ACC                ; [CPU_] |684| 
    1435                      .dwpsn  file "C:/ti/motorware/motorware_1_01_00_15/sw/modules/hal/boards/hvkit_rev1p1/f28x/f2802x/src
    1436 00000043 5605          IMPYL     P,XT,XAR7             ; [CPU_] |494| 
         00000044 00A7 
    1437 00000045 5663          QMPYL     ACC,XT,XAR7           ; [CPU_] |494| 
         00000046 00A7 
    1438 00000047 568B          ASR64     ACC:P,#12             ; [CPU_] |494| 
    1439 00000048 A9A9          MOVL      ACC,P                 ; [CPU_] |494| 
    1440 00000049 0395          SUBL      ACC,*+XAR5[AR0]       ; [CPU_] |494| 
    1441                      .dwpsn  file "C:/ti/motorware/motorware_1_01_00_15/sw/modules/hal/boards/hvkit_rev1p1/f28x/f2802x/src
    1442 0000004a D096          MOVB      XAR0,#150             ; [CPU_] |499| 
    1443                      .dwpsn  file "C:/ti/motorware/motorware_1_01_00_15/sw/modules/hal/boards/hvkit_rev1p1/f28x/f2802x/src
    1444 0000004b 1ED4          MOVL      *+XAR4[2],ACC         ; [CPU_] |495| 
    1445                      .dwpsn  file "C:/ti/motorware/motorware_1_01_00_15/sw/drivers/adc/src/32b/f28x/f2802x/adc.h",line 684
    1446 0000004c 0EDE          MOVU      ACC,*+XAR6[3]         ; [CPU_] |684| 
    1447 0000004d 1EAC          MOVL      XT,ACC                ; [CPU_] |684| 
    1448                      .dwpsn  file "C:/ti/motorware/motorware_1_01_00_15/sw/modules/hal/boards/hvkit_rev1p1/f28x/f2802x/src
    1449 0000004e 5605          IMPYL     P,XT,XAR7             ; [CPU_] |499| 
         0000004f 00A7 
    1450 00000050 5663          QMPYL     ACC,XT,XAR7           ; [CPU_] |499| 
         00000051 00A7 
    1451 00000052 568B          ASR64     ACC:P,#12             ; [CPU_] |499| 
    1452 00000053 A9A9          MOVL      ACC,P                 ; [CPU_] |499| 
    1453 00000054 0395          SUBL      ACC,*+XAR5[AR0]       ; [CPU_] |499| 
    1454                      .dwpsn  file "C:/ti/motorware/motorware_1_01_00_15/sw/modules/hal/boards/hvkit_rev1p1/f28x/f2802x/src
    1455 00000055 D0A2          MOVB      XAR0,#162             ; [CPU_] |504| 
    1456                      .dwpsn  file "C:/ti/motorware/motorware_1_01_00_15/sw/modules/hal/boards/hvkit_rev1p1/f28x/f2802x/src
    1457 00000056 1EE4          MOVL      *+XAR4[4],ACC         ; [CPU_] |500| 
    1458                      .dwpsn  file "C:/ti/motorware/motorware_1_01_00_15/sw/drivers/adc/src/32b/f28x/f2802x/adc.h",line 684
    1459 00000057 0EE6          MOVU      ACC,*+XAR6[4]         ; [CPU_] |684| 
    1460                      .dwpsn  file "C:/ti/motorware/motorware_1_01_00_15/sw/modules/hal/boards/hvkit_rev1p1/f28x/f2802x/src
    1461 00000058 C595          MOVL      XAR7,*+XAR5[AR0]      ; [CPU_] |504| 
    1462                      .dwpsn  file "C:/ti/motorware/motorware_1_01_00_15/sw/solutions/instaspin_foc/src/proj_lab02b.c",line
    1463 00000059 8D40-         MOVL      XAR1,#_gPwmData       ; [CPU_U] |439| 
         0000005a 0008 
    1464                      .dwpsn  file "C:/ti/motorware/motorware_1_01_00_15/sw/drivers/adc/src/32b/f28x/f2802x/adc.h",line 684
    1465 0000005b 1EAC          MOVL      XT,ACC                ; [CPU_] |684| 
    1466                      .dwpsn  file "C:/ti/motorware/motorware_1_01_00_15/sw/modules/hal/boards/hvkit_rev1p1/f28x/f2802x/src
    1467 0000005c D098          MOVB      XAR0,#152             ; [CPU_] |504| 
    1468 0000005d 5605          IMPYL     P,XT,XAR7             ; [CPU_] |504| 
         0000005e 00A7 
    1469 0000005f 5663          QMPYL     ACC,XT,XAR7           ; [CPU_] |504| 
TMS320C2000 Assembler PC v6.4.9 Wed Dec 02 17:22:56 2015

Tools Copyright (c) 1996-2015 Texas Instruments Incorporated
C:\Users\ywcheng\AppData\Local\Temp\5808410                          PAGE   30

         00000060 00A7 
    1470 00000061 568B          ASR64     ACC:P,#12             ; [CPU_] |504| 
    1471 00000062 A9A9          MOVL      ACC,P                 ; [CPU_] |504| 
    1472 00000063 0395          SUBL      ACC,*+XAR5[AR0]       ; [CPU_] |504| 
    1473                      .dwpsn  file "C:/ti/motorware/motorware_1_01_00_15/sw/modules/hal/boards/hvkit_rev1p1/f28x/f2802x/src
    1474 00000064 D09A          MOVB      XAR0,#154             ; [CPU_] |509| 
    1475                      .dwpsn  file "C:/ti/motorware/motorware_1_01_00_15/sw/modules/hal/boards/hvkit_rev1p1/f28x/f2802x/src
    1476 00000065 1EF4          MOVL      *+XAR4[6],ACC         ; [CPU_] |505| 
    1477                      .dwpsn  file "C:/ti/motorware/motorware_1_01_00_15/sw/drivers/adc/src/32b/f28x/f2802x/adc.h",line 684
    1478 00000066 0EEE          MOVU      ACC,*+XAR6[5]         ; [CPU_] |684| 
    1479 00000067 1EAC          MOVL      XT,ACC                ; [CPU_] |684| 
    1480                      .dwpsn  file "C:/ti/motorware/motorware_1_01_00_15/sw/modules/hal/boards/hvkit_rev1p1/f28x/f2802x/src
    1481 00000068 5605          IMPYL     P,XT,XAR7             ; [CPU_] |509| 
         00000069 00A7 
    1482 0000006a 5663          QMPYL     ACC,XT,XAR7           ; [CPU_] |509| 
         0000006b 00A7 
    1483 0000006c 568B          ASR64     ACC:P,#12             ; [CPU_] |509| 
    1484 0000006d A9A9          MOVL      ACC,P                 ; [CPU_] |509| 
    1485 0000006e 0395          SUBL      ACC,*+XAR5[AR0]       ; [CPU_] |509| 
    1486                      .dwpsn  file "C:/ti/motorware/motorware_1_01_00_15/sw/modules/hal/boards/hvkit_rev1p1/f28x/f2802x/src
    1487 0000006f D008          MOVB      XAR0,#8               ; [CPU_] |510| 
    1488 00000070 1E94          MOVL      *+XAR4[AR0],ACC       ; [CPU_] |510| 
    1489                      .dwpsn  file "C:/ti/motorware/motorware_1_01_00_15/sw/modules/hal/boards/hvkit_rev1p1/f28x/f2802x/src
    1490 00000071 D09C          MOVB      XAR0,#156             ; [CPU_] |514| 
    1491                      .dwpsn  file "C:/ti/motorware/motorware_1_01_00_15/sw/drivers/adc/src/32b/f28x/f2802x/adc.h",line 684
    1492 00000072 0EF6          MOVU      ACC,*+XAR6[6]         ; [CPU_] |684| 
    1493 00000073 1EAC          MOVL      XT,ACC                ; [CPU_] |684| 
    1494                      .dwpsn  file "C:/ti/motorware/motorware_1_01_00_15/sw/modules/hal/boards/hvkit_rev1p1/f28x/f2802x/src
    1495 00000074 5605          IMPYL     P,XT,XAR7             ; [CPU_] |514| 
         00000075 00A7 
    1496 00000076 5663          QMPYL     ACC,XT,XAR7           ; [CPU_] |514| 
         00000077 00A7 
    1497 00000078 568B          ASR64     ACC:P,#12             ; [CPU_] |514| 
    1498 00000079 A9A9          MOVL      ACC,P                 ; [CPU_] |514| 
    1499 0000007a 0395          SUBL      ACC,*+XAR5[AR0]       ; [CPU_] |514| 
    1500                      .dwpsn  file "C:/ti/motorware/motorware_1_01_00_15/sw/modules/hal/boards/hvkit_rev1p1/f28x/f2802x/src
    1501 0000007b D00A          MOVB      XAR0,#10              ; [CPU_] |515| 
    1502 0000007c 1E94          MOVL      *+XAR4[AR0],ACC       ; [CPU_] |515| 
    1503                      .dwpsn  file "C:/ti/motorware/motorware_1_01_00_15/sw/modules/hal/boards/hvkit_rev1p1/f28x/f2802x/src
    1504 0000007d D00C          MOVB      XAR0,#12              ; [CPU_] |520| 
    1505                      .dwpsn  file "C:/ti/motorware/motorware_1_01_00_15/sw/drivers/adc/src/32b/f28x/f2802x/adc.h",line 684
    1506 0000007e 0EFE          MOVU      ACC,*+XAR6[7]         ; [CPU_] |684| 
    1507 0000007f 1EAC          MOVL      XT,ACC                ; [CPU_] |684| 
    1508                      .dwpsn  file "C:/ti/motorware/motorware_1_01_00_15/sw/modules/hal/boards/hvkit_rev1p1/f28x/f2802x/src
    1509 00000080 5605          IMPYL     P,XT,XAR7             ; [CPU_] |519| 
         00000081 00A7 
    1510 00000082 5663          QMPYL     ACC,XT,XAR7           ; [CPU_] |519| 
         00000083 00A7 
    1511 00000084 568B          ASR64     ACC:P,#12             ; [CPU_] |519| 
    1512                      .dwpsn  file "C:/ti/motorware/motorware_1_01_00_15/sw/modules/hal/boards/hvkit_rev1p1/f28x/f2802x/src
    1513 00000085 A994          MOVL      *+XAR4[AR0],P         ; [CPU_] |520| 
    1514                      .dwpsn  file "C:/ti/motorware/motorware_1_01_00_15/sw/solutions/instaspin_foc/src/proj_lab02b.c",line
    1515 00000086 A842          MOVL      *-SP[2],XAR4          ; [CPU_] |439| 
    1516 00000087 8A06-         MOVL      XAR4,@_ctrlHandle     ; [CPU_] |439| 
    1517 00000088 B244          MOVL      *-SP[4],XAR1          ; [CPU_] |439| 
TMS320C2000 Assembler PC v6.4.9 Wed Dec 02 17:22:56 2015

Tools Copyright (c) 1996-2015 Texas Instruments Incorporated
C:\Users\ywcheng\AppData\Local\Temp\5808410                          PAGE   31

    1518              $C$DW$176       .dwtag  DW_TAG_TI_branch
    1519                      .dwattr $C$DW$176, DW_AT_low_pc(0x00)
    1520                      .dwattr $C$DW$176, DW_AT_name("_CTRL_run")
    1521                      .dwattr $C$DW$176, DW_AT_TI_call
    1522 00000089 7640!         LCR       #_CTRL_run            ; [CPU_] |439| 
         0000008a 0000 
    1523                      ; call occurs [#_CTRL_run] ; [] |439| 
    1524 0000008b 761F-         MOVW      DP,#_halHandle        ; [CPU_U] 
         0000008c 0000 
    1525 0000008d 027C          MOVB      ACC,#124              ; [CPU_] 
    1526 0000008e BE02          MOVB      XAR6,#2               ; [CPU_] 
    1527 0000008f 0700-         ADDL      ACC,@_halHandle       ; [CPU_] 
    1528 00000090 8AA9          MOVL      XAR4,ACC              ; [CPU_] 
    1529 00000091 3B01          SETC      SXM                   ; [CPU_] 
    1530 00000092       $C$L5:    
    1531                      .dwpsn  file "C:/ti/motorware/motorware_1_01_00_15/sw/drivers/pwm/src/32b/f28x/f2802x/pwm.h",line 171
    1532 00000092 FF2F          MOV       ACC,#-512 << 15       ; [CPU_] |1717| 
         00000093 FE00 
    1533 00000094 8781          MOVL      XT,*XAR1++            ; [CPU_] |1717| 
    1534                      .dwpsn  file "C:/ti/motorware/motorware_1_01_00_15/sw/modules/hal/boards/hvkit_rev1p1/f28x/f2802x/src
    1535 00000095 8384          MOVL      XAR5,*XAR4++          ; [CPU_] |1029| 
    1536                      .dwpsn  file "C:/ti/motorware/motorware_1_01_00_15/sw/drivers/pwm/src/32b/f28x/f2802x/pwm.h",line 171
    1537 00000096 5605          IMPYL     P,XT,ACC              ; [CPU_] |1717| 
         00000097 00A9 
    1538 00000098 5663          QMPYL     ACC,XT,ACC            ; [CPU_] |1717| 
         00000099 00A9 
    1539 0000009a 56A7          LSL64     ACC:P,#8              ; [CPU_] |1717| 
    1540 0000009b 2BAB          MOV       PL,#0                 ; [CPU_] |1717| 
    1541 0000009c 28AA          MOV       PH,#128               ; [CPU_] |1717| 
         0000009d 0080 
    1542 0000009e A9A0          MOVL      XAR0,P                ; [CPU_] |1717| 
    1543                      .dwpsn  file "C:/ti/motorware/motorware_1_01_00_15/sw/modules/hal/boards/hvkit_rev1p1/f28x/f2802x/src
    1544 0000009f 80ED          MOVZ      AR7,*+XAR5[5]         ; [CPU_] |1029| 
    1545                      .dwpsn  file "C:/ti/motorware/motorware_1_01_00_15/sw/drivers/pwm/src/32b/f28x/f2802x/pwm.h",line 171
    1546 000000a0 2BAB          MOV       PL,#0                 ; [CPU_] |1717| 
    1547 000000a1 28AA          MOV       PH,#65408             ; [CPU_] |1717| 
         000000a2 FF80 
    1548 000000a3 5650          MINL      ACC,XAR0              ; [CPU_] |1717| 
         000000a4 00A0 
    1549 000000a5 5661          MAXL      ACC,P                 ; [CPU_] |1717| 
         000000a6 00AB 
    1550 000000a7 D009          MOVB      XAR0,#9               ; [CPU_] |1717| 
    1551 000000a8 FF1F          ADD       ACC,#256 << 15        ; [CPU_] |1717| 
         000000a9 0100 
    1552 000000aa 1EAC          MOVL      XT,ACC                ; [CPU_] |1717| 
    1553 000000ab 5605          IMPYL     P,XT,XAR7             ; [CPU_] |1717| 
         000000ac 00A7 
    1554 000000ad 5663          QMPYL     ACC,XT,XAR7           ; [CPU_] |1717| 
         000000ae 00A7 
    1555 000000af 56A7          LSL64     ACC:P,#8              ; [CPU_] |1717| 
    1556 000000b0 3100          MOV       P,#0                  ; [CPU_] |1717| 
    1557 000000b1 5650          MINL      ACC,XAR7              ; [CPU_] |1717| 
         000000b2 00A7 
    1558 000000b3 5661          MAXL      ACC,P                 ; [CPU_] |1717| 
         000000b4 00AB 
TMS320C2000 Assembler PC v6.4.9 Wed Dec 02 17:22:56 2015

Tools Copyright (c) 1996-2015 Texas Instruments Incorporated
C:\Users\ywcheng\AppData\Local\Temp\5808410                          PAGE   32

    1559 000000b5 9695          MOV       *+XAR5[AR0],AL        ; [CPU_] |1717| 
    1560                      .dwpsn  file "C:/ti/motorware/motorware_1_01_00_15/sw/modules/hal/boards/hvkit_rev1p1/f28x/f2802x/src
    1561 000000b6 000E          BANZ      $C$L5,AR6--           ; [CPU_] |1026| 
         000000b7 FFDC 
    1562                      ; branchcc occurs ; [] |1026| 
    1563 000000b8 761F-         MOVW      DP,#_ctrlHandle       ; [CPU_U] 
         000000b9 0000 
    1564                      .dwpsn  file "C:/ti/motorware/motorware_1_01_00_15/sw/solutions/instaspin_foc/src/proj_lab02b.c",line
    1565 000000ba 8A06-         MOVL      XAR4,@_ctrlHandle     ; [CPU_] |447| 
    1566              $C$DW$177       .dwtag  DW_TAG_TI_branch
    1567                      .dwattr $C$DW$177, DW_AT_low_pc(0x00)
    1568                      .dwattr $C$DW$177, DW_AT_name("_CTRL_setup")
    1569                      .dwattr $C$DW$177, DW_AT_TI_call
    1570 000000bb 7640!         LCR       #_CTRL_setup          ; [CPU_] |447| 
         000000bc 0000 
    1571                      ; call occurs [#_CTRL_setup] ; [] |447| 
    1572 000000bd FE84          SUBB      SP,#4                 ; [CPU_U] 
    1573                      .dwcfi  cfa_offset, -14
    1574 000000be C5BE          MOVL      XAR7,*--SP            ; [CPU_] 
    1575                      .dwcfi  cfa_offset, -12
    1576                      .dwcfi  restore_reg, 18
    1577 000000bf C4BE          MOVL      XAR6,*--SP            ; [CPU_] 
    1578                      .dwcfi  cfa_offset, -10
    1579                      .dwcfi  restore_reg, 16
    1580 000000c0 83BE          MOVL      XAR5,*--SP            ; [CPU_] 
    1581                      .dwcfi  cfa_offset, -8
    1582                      .dwcfi  restore_reg, 14
    1583 000000c1 8ABE          MOVL      XAR4,*--SP            ; [CPU_] 
    1584                      .dwcfi  cfa_offset, -6
    1585                      .dwcfi  restore_reg, 12
    1586 000000c2 87BE          MOVL      XT,*--SP              ; [CPU_] 
    1587                      .dwcfi  cfa_offset, -4
    1588                      .dwcfi  restore_reg, 22
    1589                      .dwcfi  restore_reg, 21
    1590 000000c3 0003          POP       AR1H:AR0H             ; [CPU_] 
    1591                      .dwcfi  cfa_offset, -2
    1592                      .dwcfi  restore_reg, 5
    1593                      .dwcfi  restore_reg, 7
    1594 000000c4 7617          NASP      ; [CPU_] 
    1595              $C$DW$178       .dwtag  DW_TAG_TI_branch
    1596                      .dwattr $C$DW$178, DW_AT_low_pc(0x00)
    1597                      .dwattr $C$DW$178, DW_AT_TI_return
    1598 000000c5 7602          IRET      ; [CPU_] 
    1599                      ; return occurs ; [] 
    1600                      .dwattr $C$DW$165, DW_AT_TI_end_file("C:/ti/motorware/motorware_1_01_00_15/sw/solutions/instaspin_foc
    1601                      .dwattr $C$DW$165, DW_AT_TI_end_line(0x1c3)
    1602                      .dwattr $C$DW$165, DW_AT_TI_end_column(0x01)
    1603                      .dwendentry
    1604                      .dwendtag $C$DW$165
    1605              
    1606 000000fc               .sect   ".text"
    1607                      .clink
    1608                      .global _acim_Dir_qFmtCalc
    1609              
    1610              $C$DW$179       .dwtag  DW_TAG_subprogram, DW_AT_name("acim_Dir_qFmtCalc")
TMS320C2000 Assembler PC v6.4.9 Wed Dec 02 17:22:56 2015

Tools Copyright (c) 1996-2015 Texas Instruments Incorporated
C:\Users\ywcheng\AppData\Local\Temp\5808410                          PAGE   33

    1611                      .dwattr $C$DW$179, DW_AT_low_pc(_acim_Dir_qFmtCalc)
    1612                      .dwattr $C$DW$179, DW_AT_high_pc(0x00)
    1613                      .dwattr $C$DW$179, DW_AT_TI_symbol_name("_acim_Dir_qFmtCalc")
    1614                      .dwattr $C$DW$179, DW_AT_external
    1615                      .dwattr $C$DW$179, DW_AT_TI_begin_file("C:/ti/motorware/motorware_1_01_00_15/sw/solutions/instaspin_f
    1616                      .dwattr $C$DW$179, DW_AT_TI_begin_line(0x22d)
    1617                      .dwattr $C$DW$179, DW_AT_TI_begin_column(0x06)
    1618                      .dwattr $C$DW$179, DW_AT_TI_max_frame_size(-4)
    1619                      .dwpsn  file "C:/ti/motorware/motorware_1_01_00_15/sw/solutions/instaspin_foc/src/proj_lab02b.c",line
    1620              
    1621                      .dwfde $C$DW$CIE, _acim_Dir_qFmtCalc
    1622              $C$DW$180       .dwtag  DW_TAG_formal_parameter, DW_AT_name("handle")
    1623                      .dwattr $C$DW$180, DW_AT_TI_symbol_name("_handle")
    1624                      .dwattr $C$DW$180, DW_AT_type(*$C$DW$T$160)
    1625                      .dwattr $C$DW$180, DW_AT_location[DW_OP_reg12]
    1626              
    1627              ;***************************************************************
    1628              ;* FNAME: _acim_Dir_qFmtCalc            FR SIZE:   2           *
    1629              ;*                                                             *
    1630              ;* FUNCTION ENVIRONMENT                                        *
    1631              ;*                                                             *
    1632              ;* FUNCTION PROPERTIES                                         *
    1633              ;*                            0 Parameter,  0 Auto,  2 SOE     *
    1634              ;***************************************************************
    1635              
    1636              _acim_Dir_qFmtCalc:
    1637              ;* AR1   assigned to _handle
    1638              $C$DW$181       .dwtag  DW_TAG_variable, DW_AT_name("handle")
    1639                      .dwattr $C$DW$181, DW_AT_TI_symbol_name("_handle")
    1640                      .dwattr $C$DW$181, DW_AT_type(*$C$DW$T$192)
    1641                      .dwattr $C$DW$181, DW_AT_location[DW_OP_reg6]
    1642                      .dwcfi  cfa_offset, -2
    1643                      .dwcfi  save_reg_to_mem, 26, 0
    1644 000000fc B2BD          MOVL      *SP++,XAR1            ; [CPU_] 
    1645                      .dwcfi  save_reg_to_mem, 7, 2
    1646                      .dwcfi  cfa_offset, -4
    1647 000000fd 8BA4          MOVL      XAR1,XAR4             ; [CPU_] |558| 
    1648                      .dwpsn  file "C:/ti/motorware/motorware_1_01_00_15/sw/solutions/instaspin_foc/src/proj_lab02b.c",line
    1649 000000fe D018          MOVB      XAR0,#24              ; [CPU_] |560| 
    1650 000000ff 8A91          MOVL      XAR4,*+XAR1[AR0]      ; [CPU_] |560| 
    1651              $C$DW$182       .dwtag  DW_TAG_TI_branch
    1652                      .dwattr $C$DW$182, DW_AT_low_pc(0x00)
    1653                      .dwattr $C$DW$182, DW_AT_name("_EST_getState")
    1654                      .dwattr $C$DW$182, DW_AT_TI_call
    1655 00000100 7640!         LCR       #_EST_getState        ; [CPU_] |560| 
         00000101 0000 
    1656                      ; call occurs [#_EST_getState] ; [] |560| 
    1657 00000102 5205          CMPB      AL,#5                 ; [CPU_] |560| 
    1658 00000103 ED0D          BF        $C$L6,NEQ             ; [CPU_] |560| 
    1659                      ; branchcc occurs ; [] |560| 
    1660                      .dwpsn  file "C:/ti/motorware/motorware_1_01_00_15/sw/solutions/instaspin_foc/src/proj_lab02b.c",line
    1661 00000104 D018          MOVB      XAR0,#24              ; [CPU_] |564| 
    1662 00000105 28A9          MOV       AL,#13107             ; [CPU_] |564| 
         00000106 3333 
    1663 00000107 28A8          MOV       AH,#16179             ; [CPU_] |564| 
TMS320C2000 Assembler PC v6.4.9 Wed Dec 02 17:22:56 2015

Tools Copyright (c) 1996-2015 Texas Instruments Incorporated
C:\Users\ywcheng\AppData\Local\Temp\5808410                          PAGE   34

         00000108 3F33 
    1664 00000109 8A91          MOVL      XAR4,*+XAR1[AR0]      ; [CPU_] |564| 
    1665              $C$DW$183       .dwtag  DW_TAG_TI_branch
    1666                      .dwattr $C$DW$183, DW_AT_low_pc(0x00)
    1667                      .dwattr $C$DW$183, DW_AT_name("_EST_computeDirection_qFmt")
    1668                      .dwattr $C$DW$183, DW_AT_TI_call
    1669 0000010a 7640!         LCR       #_EST_computeDirection_qFmt ; [CPU_] |564| 
         0000010b 0000 
    1670                      ; call occurs [#_EST_computeDirection_qFmt] ; [] |564| 
    1671 0000010c D018          MOVB      XAR0,#24              ; [CPU_] |564| 
    1672 0000010d 8A91          MOVL      XAR4,*+XAR1[AR0]      ; [CPU_] |564| 
    1673              $C$DW$184       .dwtag  DW_TAG_TI_branch
    1674                      .dwattr $C$DW$184, DW_AT_low_pc(0x00)
    1675                      .dwattr $C$DW$184, DW_AT_name("_EST_setDir_qFmt")
    1676                      .dwattr $C$DW$184, DW_AT_TI_call
    1677 0000010e 7640!         LCR       #_EST_setDir_qFmt     ; [CPU_] |564| 
         0000010f 0000 
    1678                      ; call occurs [#_EST_setDir_qFmt] ; [] |564| 
    1679 00000110       $C$L6:    
    1680 00000110 8BBE          MOVL      XAR1,*--SP            ; [CPU_] 
    1681                      .dwcfi  cfa_offset, -2
    1682                      .dwcfi  restore_reg, 7
    1683              $C$DW$185       .dwtag  DW_TAG_TI_branch
    1684                      .dwattr $C$DW$185, DW_AT_low_pc(0x00)
    1685                      .dwattr $C$DW$185, DW_AT_TI_return
    1686 00000111 0006          LRETR     ; [CPU_] 
    1687                      ; return occurs ; [] 
    1688                      .dwattr $C$DW$179, DW_AT_TI_end_file("C:/ti/motorware/motorware_1_01_00_15/sw/solutions/instaspin_foc
    1689                      .dwattr $C$DW$179, DW_AT_TI_end_line(0x238)
    1690                      .dwattr $C$DW$179, DW_AT_TI_end_column(0x01)
    1691                      .dwendentry
    1692                      .dwendtag $C$DW$179
    1693              
    1694 00000112               .sect   ".text"
    1695                      .clink
    1696                      .global _main
    1697              
    1698              $C$DW$186       .dwtag  DW_TAG_subprogram, DW_AT_name("main")
    1699                      .dwattr $C$DW$186, DW_AT_low_pc(_main)
    1700                      .dwattr $C$DW$186, DW_AT_high_pc(0x00)
    1701                      .dwattr $C$DW$186, DW_AT_TI_symbol_name("_main")
    1702                      .dwattr $C$DW$186, DW_AT_external
    1703                      .dwattr $C$DW$186, DW_AT_TI_begin_file("C:/ti/motorware/motorware_1_01_00_15/sw/solutions/instaspin_f
    1704                      .dwattr $C$DW$186, DW_AT_TI_begin_line(0x80)
    1705                      .dwattr $C$DW$186, DW_AT_TI_begin_column(0x06)
    1706                      .dwattr $C$DW$186, DW_AT_TI_max_frame_size(-16)
    1707                      .dwpsn  file "C:/ti/motorware/motorware_1_01_00_15/sw/solutions/instaspin_foc/src/proj_lab02b.c",line
    1708              
    1709                      .dwfde $C$DW$CIE, _main
    1710              
    1711              ;***************************************************************
    1712              ;* FNAME: _main                         FR SIZE:  14           *
    1713              ;*                                                             *
    1714              ;* FUNCTION ENVIRONMENT                                        *
    1715              ;*                                                             *
TMS320C2000 Assembler PC v6.4.9 Wed Dec 02 17:22:56 2015

Tools Copyright (c) 1996-2015 Texas Instruments Incorporated
C:\Users\ywcheng\AppData\Local\Temp\5808410                          PAGE   35

    1716              ;* FUNCTION PROPERTIES                                         *
    1717              ;*                            2 Parameter,  5 Auto,  6 SOE     *
    1718              ;***************************************************************
    1719              
    1720              _main:
    1721              ;* AR5   assigned to $O$C14
    1722              ;* AR4   assigned to $O$C15
    1723              ;* AR5   assigned to $O$C16
    1724              ;* AR4   assigned to $O$C17
    1725              ;* AR6   assigned to $O$C18
    1726              ;* AR6   assigned to $O$C19
    1727              ;* AR3   assigned to $O$C20
    1728              ;* AR6   assigned to $O$C21
    1729              ;* XT    assigned to $O$C22
    1730              ;* AR5   assigned to $O$C23
    1731              ;* AR5   assigned to $O$C24
    1732              ;* AR5   assigned to $O$C25
    1733              ;* AR1   assigned to $O$K32
    1734              ;* AR4   assigned to _obj
    1735              $C$DW$187       .dwtag  DW_TAG_variable, DW_AT_name("obj")
    1736                      .dwattr $C$DW$187, DW_AT_TI_symbol_name("_obj")
    1737                      .dwattr $C$DW$187, DW_AT_type(*$C$DW$T$208)
    1738                      .dwattr $C$DW$187, DW_AT_location[DW_OP_reg12]
    1739              ;* AR4   assigned to _obj
    1740              $C$DW$188       .dwtag  DW_TAG_variable, DW_AT_name("obj")
    1741                      .dwattr $C$DW$188, DW_AT_TI_symbol_name("_obj")
    1742                      .dwattr $C$DW$188, DW_AT_type(*$C$DW$T$208)
    1743                      .dwattr $C$DW$188, DW_AT_location[DW_OP_reg12]
    1744              ;* AH    assigned to _state
    1745              $C$DW$189       .dwtag  DW_TAG_variable, DW_AT_name("state")
    1746                      .dwattr $C$DW$189, DW_AT_TI_symbol_name("_state")
    1747                      .dwattr $C$DW$189, DW_AT_type(*$C$DW$T$69)
    1748                      .dwattr $C$DW$189, DW_AT_location[DW_OP_reg1]
    1749              ;* AR4   assigned to _obj
    1750              $C$DW$190       .dwtag  DW_TAG_variable, DW_AT_name("obj")
    1751                      .dwattr $C$DW$190, DW_AT_TI_symbol_name("_obj")
    1752                      .dwattr $C$DW$190, DW_AT_type(*$C$DW$T$208)
    1753                      .dwattr $C$DW$190, DW_AT_location[DW_OP_reg12]
    1754              ;* AR5   assigned to _handle
    1755              $C$DW$191       .dwtag  DW_TAG_variable, DW_AT_name("handle")
    1756                      .dwattr $C$DW$191, DW_AT_TI_symbol_name("_handle")
    1757                      .dwattr $C$DW$191, DW_AT_type(*$C$DW$T$210)
    1758                      .dwattr $C$DW$191, DW_AT_location[DW_OP_reg14]
    1759              ;* AR5   assigned to _obj
    1760              $C$DW$192       .dwtag  DW_TAG_variable, DW_AT_name("obj")
    1761                      .dwattr $C$DW$192, DW_AT_TI_symbol_name("_obj")
    1762                      .dwattr $C$DW$192, DW_AT_type(*$C$DW$T$208)
    1763                      .dwattr $C$DW$192, DW_AT_location[DW_OP_reg14]
    1764              ;* AR4   assigned to _obj
    1765              $C$DW$193       .dwtag  DW_TAG_variable, DW_AT_name("obj")
    1766                      .dwattr $C$DW$193, DW_AT_TI_symbol_name("_obj")
    1767                      .dwattr $C$DW$193, DW_AT_type(*$C$DW$T$208)
    1768                      .dwattr $C$DW$193, DW_AT_location[DW_OP_reg12]
    1769              ;* AL    assigned to _maxAccel_pu
    1770              $C$DW$194       .dwtag  DW_TAG_variable, DW_AT_name("maxAccel_pu")
TMS320C2000 Assembler PC v6.4.9 Wed Dec 02 17:22:56 2015

Tools Copyright (c) 1996-2015 Texas Instruments Incorporated
C:\Users\ywcheng\AppData\Local\Temp\5808410                          PAGE   36

    1771                      .dwattr $C$DW$194, DW_AT_TI_symbol_name("_maxAccel_pu")
    1772                      .dwattr $C$DW$194, DW_AT_type(*$C$DW$T$31)
    1773                      .dwattr $C$DW$194, DW_AT_location[DW_OP_reg0]
    1774              ;* AL    assigned to _state
    1775              $C$DW$195       .dwtag  DW_TAG_variable, DW_AT_name("state")
    1776                      .dwattr $C$DW$195, DW_AT_TI_symbol_name("_state")
    1777                      .dwattr $C$DW$195, DW_AT_type(*$C$DW$T$69)
    1778                      .dwattr $C$DW$195, DW_AT_location[DW_OP_reg0]
    1779              ;* AR4   assigned to _obj
    1780              $C$DW$196       .dwtag  DW_TAG_variable, DW_AT_name("obj")
    1781                      .dwattr $C$DW$196, DW_AT_TI_symbol_name("_obj")
    1782                      .dwattr $C$DW$196, DW_AT_type(*$C$DW$T$208)
    1783                      .dwattr $C$DW$196, DW_AT_location[DW_OP_reg12]
    1784              ;* AL    assigned to _estState
    1785              $C$DW$197       .dwtag  DW_TAG_variable, DW_AT_name("estState")
    1786                      .dwattr $C$DW$197, DW_AT_TI_symbol_name("_estState")
    1787                      .dwattr $C$DW$197, DW_AT_type(*$C$DW$T$125)
    1788                      .dwattr $C$DW$197, DW_AT_location[DW_OP_reg0]
    1789              $C$DW$198       .dwtag  DW_TAG_variable, DW_AT_name("ctrlState")
    1790                      .dwattr $C$DW$198, DW_AT_TI_symbol_name("_ctrlState")
    1791                      .dwattr $C$DW$198, DW_AT_type(*$C$DW$T$39)
    1792                      .dwattr $C$DW$198, DW_AT_location[DW_OP_breg20 -7]
    1793              ;* AL    assigned to _flag_ctrlStateChanged
    1794              $C$DW$199       .dwtag  DW_TAG_variable, DW_AT_name("flag_ctrlStateChanged")
    1795                      .dwattr $C$DW$199, DW_AT_TI_symbol_name("_flag_ctrlStateChanged")
    1796                      .dwattr $C$DW$199, DW_AT_type(*$C$DW$T$69)
    1797                      .dwattr $C$DW$199, DW_AT_location[DW_OP_reg0]
    1798              ;* AR2   assigned to _obj
    1799              $C$DW$200       .dwtag  DW_TAG_variable, DW_AT_name("obj")
    1800                      .dwattr $C$DW$200, DW_AT_TI_symbol_name("_obj")
    1801                      .dwattr $C$DW$200, DW_AT_type(*$C$DW$T$191)
    1802                      .dwattr $C$DW$200, DW_AT_location[DW_OP_reg8]
    1803              ;* AR3   assigned to _cnt
    1804              $C$DW$201       .dwtag  DW_TAG_variable, DW_AT_name("cnt")
    1805                      .dwattr $C$DW$201, DW_AT_TI_symbol_name("_cnt")
    1806                      .dwattr $C$DW$201, DW_AT_type(*$C$DW$T$32)
    1807                      .dwattr $C$DW$201, DW_AT_location[DW_OP_reg10]
    1808              ;* PL    assigned to _cnt
    1809              $C$DW$202       .dwtag  DW_TAG_variable, DW_AT_name("cnt")
    1810                      .dwattr $C$DW$202, DW_AT_TI_symbol_name("_cnt")
    1811                      .dwattr $C$DW$202, DW_AT_type(*$C$DW$T$32)
    1812                      .dwattr $C$DW$202, DW_AT_location[DW_OP_reg2]
    1813              ;* AL    assigned to _bias
    1814              $C$DW$203       .dwtag  DW_TAG_variable, DW_AT_name("bias")
    1815                      .dwattr $C$DW$203, DW_AT_TI_symbol_name("_bias")
    1816                      .dwattr $C$DW$203, DW_AT_type(*$C$DW$T$31)
    1817                      .dwattr $C$DW$203, DW_AT_location[DW_OP_reg0]
    1818              ;* AL    assigned to _bias
    1819              $C$DW$204       .dwtag  DW_TAG_variable, DW_AT_name("bias")
    1820                      .dwattr $C$DW$204, DW_AT_TI_symbol_name("_bias")
    1821                      .dwattr $C$DW$204, DW_AT_type(*$C$DW$T$31)
    1822                      .dwattr $C$DW$204, DW_AT_location[DW_OP_reg0]
    1823              ;* AR2   assigned to $O$K33
    1824              ;* AR3   assigned to $O$K33
    1825              ;* AR5   assigned to $O$K33
TMS320C2000 Assembler PC v6.4.9 Wed Dec 02 17:22:56 2015

Tools Copyright (c) 1996-2015 Texas Instruments Incorporated
C:\Users\ywcheng\AppData\Local\Temp\5808410                          PAGE   37

    1826              ;* AR3   assigned to $O$K33
    1827              ;* AR3   assigned to $O$K33
    1828              ;* AR4   assigned to $O$v1
    1829              ;* AR4   assigned to $O$v1
    1830              ;* AR4   assigned to $O$v1
    1831              ;* AR2   assigned to $O$v1
    1832              ;* AR4   assigned to $O$v2
    1833              ;* AR4   assigned to $O$v2
    1834              ;* AR4   assigned to $O$v2
    1835              $C$DW$205       .dwtag  DW_TAG_variable, DW_AT_name("version")
    1836                      .dwattr $C$DW$205, DW_AT_TI_symbol_name("_version")
    1837                      .dwattr $C$DW$205, DW_AT_type(*$C$DW$T$37)
    1838                      .dwattr $C$DW$205, DW_AT_location[DW_OP_breg20 -6]
    1839                      .dwcfi  cfa_offset, -2
    1840                      .dwcfi  save_reg_to_mem, 26, 0
    1841 00000112 B2BD          MOVL      *SP++,XAR1            ; [CPU_] 
    1842                      .dwcfi  save_reg_to_mem, 7, 2
    1843                      .dwcfi  cfa_offset, -4
    1844 00000113 AABD          MOVL      *SP++,XAR2            ; [CPU_] 
    1845                      .dwcfi  save_reg_to_mem, 9, 4
    1846                      .dwcfi  cfa_offset, -6
    1847 00000114 A2BD          MOVL      *SP++,XAR3            ; [CPU_] 
    1848                      .dwcfi  save_reg_to_mem, 11, 6
    1849                      .dwcfi  cfa_offset, -8
    1850 00000115 FE08          ADDB      SP,#8                 ; [CPU_U] 
    1851                      .dwcfi  cfa_offset, -16
    1852                      .dwpsn  file "C:/ti/motorware/motorware_1_01_00_15/sw/solutions/instaspin_foc/src/proj_lab02b.c",line
    1853 00000116 8F00!         MOVL      XAR4,#_RamfuncsRunStart ; [CPU_U] |142| 
         00000117 0000 
    1854 00000118 8F40!         MOVL      XAR5,#_RamfuncsLoadEnd ; [CPU_U] |142| 
         00000119 0000 
    1855 0000011a A842          MOVL      *-SP[2],XAR4          ; [CPU_] |142| 
    1856 0000011b 8F00!         MOVL      XAR4,#_RamfuncsLoadStart ; [CPU_U] |142| 
         0000011c 0000 
    1857              $C$DW$206       .dwtag  DW_TAG_TI_branch
    1858                      .dwattr $C$DW$206, DW_AT_low_pc(0x00)
    1859                      .dwattr $C$DW$206, DW_AT_name("_memCopy")
    1860                      .dwattr $C$DW$206, DW_AT_TI_call
    1861 0000011d 7640!         LCR       #_memCopy             ; [CPU_] |142| 
         0000011e 0000 
    1862                      ; call occurs [#_memCopy] ; [] |142| 
    1863 0000011f 761F!         MOVW      DP,#_econst_start     ; [CPU_U] 
         00000120 0000 
    1864                      .dwpsn  file "C:/ti/motorware/motorware_1_01_00_15/sw/solutions/instaspin_foc/src/proj_lab02b.c",line
    1865 00000121 8A00!         MOVL      XAR4,@_econst_start   ; [CPU_] |146| 
    1866 00000122 761F!         MOVW      DP,#_econst_end       ; [CPU_U] 
         00000123 0000 
    1867 00000124 0EC4          MOVU      ACC,*+XAR4[0]         ; [CPU_] |146| 
    1868 00000125 8A00!         MOVL      XAR4,@_econst_end     ; [CPU_] |146| 
    1869 00000126 88C4          MOVZ      AR6,*+XAR4[0]         ; [CPU_] |146| 
    1870 00000127 0FA6          CMPL      ACC,XAR6              ; [CPU_] |146| 
    1871 00000128 EC0A          BF        $C$L7,EQ              ; [CPU_] |146| 
    1872                      ; branchcc occurs ; [] |146| 
    1873                      .dwpsn  file "C:/ti/motorware/motorware_1_01_00_15/sw/solutions/instaspin_foc/src/proj_lab02b.c",line
    1874 00000129 8F00!         MOVL      XAR4,#_econst_ram_load ; [CPU_U] |148| 
TMS320C2000 Assembler PC v6.4.9 Wed Dec 02 17:22:56 2015

Tools Copyright (c) 1996-2015 Texas Instruments Incorporated
C:\Users\ywcheng\AppData\Local\Temp\5808410                          PAGE   38

         0000012a 0000 
    1875 0000012b 8F40!         MOVL      XAR5,#_econst_end     ; [CPU_U] |148| 
         0000012c 0000 
    1876 0000012d A842          MOVL      *-SP[2],XAR4          ; [CPU_] |148| 
    1877 0000012e 8F00!         MOVL      XAR4,#_econst_start   ; [CPU_U] |148| 
         0000012f 0000 
    1878              $C$DW$207       .dwtag  DW_TAG_TI_branch
    1879                      .dwattr $C$DW$207, DW_AT_low_pc(0x00)
    1880                      .dwattr $C$DW$207, DW_AT_name("_memCopy")
    1881                      .dwattr $C$DW$207, DW_AT_TI_call
    1882 00000130 7640!         LCR       #_memCopy             ; [CPU_] |148| 
         00000131 0000 
    1883                      ; call occurs [#_memCopy] ; [] |148| 
    1884 00000132       $C$L7:    
    1885 00000132 761F!         MOVW      DP,#_switch_start     ; [CPU_U] 
         00000133 0000 
    1886                      .dwpsn  file "C:/ti/motorware/motorware_1_01_00_15/sw/solutions/instaspin_foc/src/proj_lab02b.c",line
    1887 00000134 8A00!         MOVL      XAR4,@_switch_start   ; [CPU_] |152| 
    1888 00000135 761F!         MOVW      DP,#_switch_end       ; [CPU_U] 
         00000136 0000 
    1889 00000137 0EC4          MOVU      ACC,*+XAR4[0]         ; [CPU_] |152| 
    1890 00000138 8A00!         MOVL      XAR4,@_switch_end     ; [CPU_] |152| 
    1891 00000139 88C4          MOVZ      AR6,*+XAR4[0]         ; [CPU_] |152| 
    1892 0000013a 0FA6          CMPL      ACC,XAR6              ; [CPU_] |152| 
    1893 0000013b EC0A          BF        $C$L8,EQ              ; [CPU_] |152| 
    1894                      ; branchcc occurs ; [] |152| 
    1895                      .dwpsn  file "C:/ti/motorware/motorware_1_01_00_15/sw/solutions/instaspin_foc/src/proj_lab02b.c",line
    1896 0000013c 8F00!         MOVL      XAR4,#_switch_ram_load ; [CPU_U] |154| 
         0000013d 0000 
    1897 0000013e 8F40!         MOVL      XAR5,#_switch_end     ; [CPU_U] |154| 
         0000013f 0000 
    1898 00000140 A842          MOVL      *-SP[2],XAR4          ; [CPU_] |154| 
    1899 00000141 8F00!         MOVL      XAR4,#_switch_start   ; [CPU_U] |154| 
         00000142 0000 
    1900              $C$DW$208       .dwtag  DW_TAG_TI_branch
    1901                      .dwattr $C$DW$208, DW_AT_low_pc(0x00)
    1902                      .dwattr $C$DW$208, DW_AT_name("_memCopy")
    1903                      .dwattr $C$DW$208, DW_AT_TI_call
    1904 00000143 7640!         LCR       #_memCopy             ; [CPU_] |154| 
         00000144 0000 
    1905                      ; call occurs [#_memCopy] ; [] |154| 
    1906 00000145       $C$L8:    
    1907                      .dwpsn  file "C:/ti/motorware/motorware_1_01_00_15/sw/solutions/instaspin_foc/src/proj_lab02b.c",line
    1908 00000145 8F00!         MOVL      XAR4,#_hal            ; [CPU_U] |161| 
         00000146 0000 
    1909 00000147 02A6          MOVB      ACC,#166              ; [CPU_] |161| 
    1910              $C$DW$209       .dwtag  DW_TAG_TI_branch
    1911                      .dwattr $C$DW$209, DW_AT_low_pc(0x00)
    1912                      .dwattr $C$DW$209, DW_AT_name("_HAL_init")
    1913                      .dwattr $C$DW$209, DW_AT_TI_call
    1914 00000148 7640!         LCR       #_HAL_init            ; [CPU_] |161| 
         00000149 0000 
    1915                      ; call occurs [#_HAL_init] ; [] |161| 
    1916                      .dwpsn  file "C:/ti/motorware/motorware_1_01_00_15/sw/solutions/instaspin_foc/src/proj_lab02b.c",line
    1917 0000014a 8D40-         MOVL      XAR1,#_gUserParams    ; [CPU_U] |165| 
TMS320C2000 Assembler PC v6.4.9 Wed Dec 02 17:22:56 2015

Tools Copyright (c) 1996-2015 Texas Instruments Incorporated
C:\Users\ywcheng\AppData\Local\Temp\5808410                          PAGE   39

         0000014b 0040 
    1918 0000014c 761F-         MOVW      DP,#_halHandle        ; [CPU_U] 
         0000014d 0000 
    1919                      .dwpsn  file "C:/ti/motorware/motorware_1_01_00_15/sw/solutions/instaspin_foc/src/proj_lab02b.c",line
    1920 0000014e A800-         MOVL      @_halHandle,XAR4      ; [CPU_] |161| 
    1921                      .dwpsn  file "C:/ti/motorware/motorware_1_01_00_15/sw/solutions/instaspin_foc/src/proj_lab02b.c",line
    1922 0000014f 8AA1          MOVL      XAR4,XAR1             ; [CPU_] |165| 
    1923              $C$DW$210       .dwtag  DW_TAG_TI_branch
    1924                      .dwattr $C$DW$210, DW_AT_low_pc(0x00)
    1925                      .dwattr $C$DW$210, DW_AT_name("_USER_checkForErrors")
    1926                      .dwattr $C$DW$210, DW_AT_TI_call
    1927 00000150 7640!         LCR       #_USER_checkForErrors ; [CPU_] |165| 
         00000151 0000 
    1928                      ; call occurs [#_USER_checkForErrors] ; [] |165| 
    1929                      .dwpsn  file "C:/ti/motorware/motorware_1_01_00_15/sw/solutions/instaspin_foc/src/proj_lab02b.c",line
    1930 00000152 8AA1          MOVL      XAR4,XAR1             ; [CPU_] |169| 
    1931              $C$DW$211       .dwtag  DW_TAG_TI_branch
    1932                      .dwattr $C$DW$211, DW_AT_low_pc(0x00)
    1933                      .dwattr $C$DW$211, DW_AT_name("_USER_getErrorCode")
    1934                      .dwattr $C$DW$211, DW_AT_TI_call
    1935 00000153 7640!         LCR       #_USER_getErrorCode   ; [CPU_] |169| 
         00000154 0000 
    1936                      ; call occurs [#_USER_getErrorCode] ; [] |169| 
    1937 00000155 8D80-         MOVL      XAR2,#_gMotorVars     ; [CPU_U] |169| 
         00000156 0040 
    1938 00000157 D00C          MOVB      XAR0,#12              ; [CPU_] |169| 
    1939 00000158 9692          MOV       *+XAR2[AR0],AL        ; [CPU_] |169| 
    1940                      .dwpsn  file "C:/ti/motorware/motorware_1_01_00_15/sw/solutions/instaspin_foc/src/proj_lab02b.c",line
    1941 00000159 D00C          MOVB      XAR0,#12              ; [CPU_] |173| 
    1942 0000015a 9292          MOV       AL,*+XAR2[AR0]        ; [CPU_] |173| 
    1943 0000015b 56C0          BF        $C$L29,NEQ            ; [CPU_] |173| 
         0000015c 01F9 
    1944                      ; branchcc occurs ; [] |173| 
    1945                      .dwpsn  file "C:/ti/motorware/motorware_1_01_00_15/sw/solutions/instaspin_foc/src/proj_lab02b.c",line
    1946 0000015d 8AA1          MOVL      XAR4,XAR1             ; [CPU_] |183| 
    1947              $C$DW$212       .dwtag  DW_TAG_TI_branch
    1948                      .dwattr $C$DW$212, DW_AT_low_pc(0x00)
    1949                      .dwattr $C$DW$212, DW_AT_name("_USER_setParams")
    1950                      .dwattr $C$DW$212, DW_AT_TI_call
    1951 0000015e 7640!         LCR       #_USER_setParams      ; [CPU_] |183| 
         0000015f 0000 
    1952                      ; call occurs [#_USER_setParams] ; [] |183| 
    1953 00000160 761F-         MOVW      DP,#_halHandle        ; [CPU_U] 
         00000161 0000 
    1954                      .dwpsn  file "C:/ti/motorware/motorware_1_01_00_15/sw/solutions/instaspin_foc/src/proj_lab02b.c",line
    1955 00000162 83A1          MOVL      XAR5,XAR1             ; [CPU_] |187| 
    1956 00000163 8A00-         MOVL      XAR4,@_halHandle      ; [CPU_] |187| 
    1957              $C$DW$213       .dwtag  DW_TAG_TI_branch
    1958                      .dwattr $C$DW$213, DW_AT_low_pc(0x00)
    1959                      .dwattr $C$DW$213, DW_AT_name("_HAL_setParams")
    1960                      .dwattr $C$DW$213, DW_AT_TI_call
    1961 00000164 7640!         LCR       #_HAL_setParams       ; [CPU_] |187| 
         00000165 0000 
    1962                      ; call occurs [#_HAL_setParams] ; [] |187| 
    1963                      .dwpsn  file "C:/ti/motorware/motorware_1_01_00_15/sw/solutions/instaspin_foc/src/proj_lab02b.c",line
TMS320C2000 Assembler PC v6.4.9 Wed Dec 02 17:22:56 2015

Tools Copyright (c) 1996-2015 Texas Instruments Incorporated
C:\Users\ywcheng\AppData\Local\Temp\5808410                          PAGE   40

    1964 00000166 D500          MOVB      XAR5,#0               ; [CPU_] |195| 
    1965 00000167 7680          MOVL      XAR6,#264             ; [CPU_U] |195| 
         00000168 0108 
    1966 00000169 8F00-         MOVL      XAR4,#_ctrl           ; [CPU_U] |195| 
         0000016a 0100 
    1967 0000016b 06A6          MOVL      ACC,XAR6              ; [CPU_] |195| 
    1968              $C$DW$214       .dwtag  DW_TAG_TI_branch
    1969                      .dwattr $C$DW$214, DW_AT_low_pc(0x00)
    1970                      .dwattr $C$DW$214, DW_AT_name("_CTRL_initCtrl")
    1971                      .dwattr $C$DW$214, DW_AT_TI_call
    1972 0000016c 7640!         LCR       #_CTRL_initCtrl       ; [CPU_] |195| 
         0000016d 0000 
    1973                      ; call occurs [#_CTRL_initCtrl] ; [] |195| 
    1974                      .dwpsn  file "C:/ti/motorware/motorware_1_01_00_15/sw/solutions/instaspin_foc/src/proj_lab02b.c",line
    1975 0000016e 5DAD          MOVZ      AR5,SP                ; [CPU_] |203| 
    1976 0000016f 761F-         MOVW      DP,#_ctrlHandle       ; [CPU_U] 
         00000170 0000 
    1977                      .dwpsn  file "C:/ti/motorware/motorware_1_01_00_15/sw/solutions/instaspin_foc/src/proj_lab02b.c",line
    1978 00000171 A806-         MOVL      @_ctrlHandle,XAR4     ; [CPU_] |195| 
    1979                      .dwpsn  file "C:/ti/motorware/motorware_1_01_00_15/sw/solutions/instaspin_foc/src/proj_lab02b.c",line
    1980 00000172 DD86          SUBB      XAR5,#6               ; [CPU_U] |203| 
    1981 00000173 5DA5          MOVZ      AR5,AR5               ; [CPU_] |203| 
    1982              $C$DW$215       .dwtag  DW_TAG_TI_branch
    1983                      .dwattr $C$DW$215, DW_AT_low_pc(0x00)
    1984                      .dwattr $C$DW$215, DW_AT_name("_CTRL_getVersion")
    1985                      .dwattr $C$DW$215, DW_AT_TI_call
    1986 00000174 7640!         LCR       #_CTRL_getVersion     ; [CPU_] |203| 
         00000175 0000 
    1987                      ; call occurs [#_CTRL_getVersion] ; [] |203| 
    1988                      .dwpsn  file "C:/ti/motorware/motorware_1_01_00_15/sw/solutions/instaspin_foc/src/proj_lab02b.c",line
    1989 00000176 5CAD          MOVZ      AR4,SP                ; [CPU_] |205| 
    1990 00000177 DC86          SUBB      XAR4,#6               ; [CPU_U] |205| 
    1991 00000178 80A4          MOVZ      AR7,AR4               ; [CPU_] |205| 
    1992 00000179 DA0D          ADDB      XAR2,#13              ; [CPU_] |205| 
    1993 0000017a 761F-         MOVW      DP,#_ctrlHandle       ; [CPU_U] 
         0000017b 0000 
    1994                      .dwpsn  file "C:/ti/motorware/motorware_1_01_00_15/sw/solutions/instaspin_foc/src/proj_lab02b.c",line
    1995 0000017c 83A1          MOVL      XAR5,XAR1             ; [CPU_] |210| 
    1996                      .dwpsn  file "C:/ti/motorware/motorware_1_01_00_15/sw/solutions/instaspin_foc/src/proj_lab02b.c",line
    1997 0000017d F603          RPT       #3
    1998 0000017e 2482  ||     PREAD     *XAR2++,*XAR7         ; [CPU_] |205| 
    1999                      .dwpsn  file "C:/ti/motorware/motorware_1_01_00_15/sw/solutions/instaspin_foc/src/proj_lab02b.c",line
    2000 0000017f 8A06-         MOVL      XAR4,@_ctrlHandle     ; [CPU_] |210| 
    2001              $C$DW$216       .dwtag  DW_TAG_TI_branch
    2002                      .dwattr $C$DW$216, DW_AT_low_pc(0x00)
    2003                      .dwattr $C$DW$216, DW_AT_name("_CTRL_setParams")
    2004                      .dwattr $C$DW$216, DW_AT_TI_call
    2005 00000180 7640!         LCR       #_CTRL_setParams      ; [CPU_] |210| 
         00000181 0000 
    2006                      ; call occurs [#_CTRL_setParams] ; [] |210| 
    2007 00000182 761F-         MOVW      DP,#_halHandle        ; [CPU_U] 
         00000183 0000 
    2008                      .dwpsn  file "C:/ti/motorware/motorware_1_01_00_15/sw/solutions/instaspin_foc/src/proj_lab02b.c",line
    2009 00000184 8A00-         MOVL      XAR4,@_halHandle      ; [CPU_] |214| 
    2010              $C$DW$217       .dwtag  DW_TAG_TI_branch
TMS320C2000 Assembler PC v6.4.9 Wed Dec 02 17:22:56 2015

Tools Copyright (c) 1996-2015 Texas Instruments Incorporated
C:\Users\ywcheng\AppData\Local\Temp\5808410                          PAGE   41

    2011                      .dwattr $C$DW$217, DW_AT_low_pc(0x00)
    2012                      .dwattr $C$DW$217, DW_AT_name("_HAL_setupFaults")
    2013                      .dwattr $C$DW$217, DW_AT_TI_call
    2014 00000185 7640!         LCR       #_HAL_setupFaults     ; [CPU_] |214| 
         00000186 0000 
    2015                      ; call occurs [#_HAL_setupFaults] ; [] |214| 
    2016 00000187 761F-         MOVW      DP,#_halHandle        ; [CPU_U] 
         00000188 0000 
    2017                      .dwpsn  file "C:/ti/motorware/motorware_1_01_00_15/sw/solutions/instaspin_foc/src/proj_lab02b.c",line
    2018 00000189 8A00-         MOVL      XAR4,@_halHandle      ; [CPU_] |218| 
    2019 0000018a 7622   EALLOW
    2020                      .dwpsn  file "C:/ti/motorware/motorware_1_01_00_15/sw/modules/hal/boards/hvkit_rev1p1/f28x/f2802x/src
    2021 0000018b D078          MOVB      XAR0,#120             ; [CPU_] |462| 
    2022 0000018c 02F0          MOVB      ACC,#240              ; [CPU_] |462| 
    2023 0000018d 0794          ADDL      ACC,*+XAR4[AR0]       ; [CPU_] |462| 
    2024 0000018e 83A9          MOVL      XAR5,ACC              ; [CPU_] |462| 
    2025 0000018f 7680+         MOVL      XAR6,#_mainISR        ; [CPU_U] |462| 
         00000190 0000 
    2026 00000191 C2C5          MOVL      *+XAR5[0],XAR6        ; [CPU_] |462| 
    2027 00000192 761A   EDIS
    2028 00000193 FF69          SPM       #0                    ; [CPU_] 
    2029                      .dwpsn  file "C:/ti/motorware/motorware_1_01_00_15/sw/solutions/instaspin_foc/src/proj_lab02b.c",line
    2030              $C$DW$218       .dwtag  DW_TAG_TI_branch
    2031                      .dwattr $C$DW$218, DW_AT_low_pc(0x00)
    2032                      .dwattr $C$DW$218, DW_AT_name("_HAL_enableAdcInts")
    2033                      .dwattr $C$DW$218, DW_AT_TI_call
    2034 00000194 7640!         LCR       #_HAL_enableAdcInts   ; [CPU_] |222| 
         00000195 0000 
    2035                      ; call occurs [#_HAL_enableAdcInts] ; [] |222| 
    2036 00000196 761F-         MOVW      DP,#_halHandle        ; [CPU_U] 
         00000197 0000 
    2037                      .dwpsn  file "C:/ti/motorware/motorware_1_01_00_15/sw/solutions/instaspin_foc/src/proj_lab02b.c",line
    2038 00000198 8A00-         MOVL      XAR4,@_halHandle      ; [CPU_] |226| 
    2039              $C$DW$219       .dwtag  DW_TAG_TI_branch
    2040                      .dwattr $C$DW$219, DW_AT_low_pc(0x00)
    2041                      .dwattr $C$DW$219, DW_AT_name("_HAL_enableGlobalInts")
    2042                      .dwattr $C$DW$219, DW_AT_TI_call
    2043 00000199 7640!         LCR       #_HAL_enableGlobalInts ; [CPU_] |226| 
         0000019a 0000 
    2044                      ; call occurs [#_HAL_enableGlobalInts] ; [] |226| 
    2045 0000019b 761F-         MOVW      DP,#_halHandle        ; [CPU_U] 
         0000019c 0000 
    2046                      .dwpsn  file "C:/ti/motorware/motorware_1_01_00_15/sw/solutions/instaspin_foc/src/proj_lab02b.c",line
    2047 0000019d 8A00-         MOVL      XAR4,@_halHandle      ; [CPU_] |230| 
    2048              $C$DW$220       .dwtag  DW_TAG_TI_branch
    2049                      .dwattr $C$DW$220, DW_AT_low_pc(0x00)
    2050                      .dwattr $C$DW$220, DW_AT_name("_HAL_enableDebugInt")
    2051                      .dwattr $C$DW$220, DW_AT_TI_call
    2052 0000019e 7640!         LCR       #_HAL_enableDebugInt  ; [CPU_] |230| 
         0000019f 0000 
    2053                      ; call occurs [#_HAL_enableDebugInt] ; [] |230| 
    2054 000001a0 761F-         MOVW      DP,#_halHandle        ; [CPU_U] 
         000001a1 0000 
    2055                      .dwpsn  file "C:/ti/motorware/motorware_1_01_00_15/sw/modules/hal/boards/hvkit_rev1p1/f28x/f2802x/src
    2056 000001a2 8300-         MOVL      XAR5,@_halHandle      ; [CPU_] |231| 
TMS320C2000 Assembler PC v6.4.9 Wed Dec 02 17:22:56 2015

Tools Copyright (c) 1996-2015 Texas Instruments Incorporated
C:\Users\ywcheng\AppData\Local\Temp\5808410                          PAGE   42

    2057 000001a3 8AA5          MOVL      XAR4,XAR5             ; [CPU_] |231| 
    2058 000001a4 DC7E          ADDB      XAR4,#126             ; [CPU_] |231| 
    2059 000001a5 7622   EALLOW
    2060                      .dwpsn  file "C:/ti/motorware/motorware_1_01_00_15/sw/drivers/pwm/src/32b/f28x/f2802x/pwm.h",line 156
    2061 000001a6 D07C          MOVB      XAR0,#124             ; [CPU_] |1567| 
    2062 000001a7 0218          MOVB      ACC,#24               ; [CPU_] |1567| 
    2063 000001a8 0795          ADDL      ACC,*+XAR5[AR0]       ; [CPU_] |1567| 
    2064 000001a9 83A9          MOVL      XAR5,ACC              ; [CPU_] |1567| 
    2065 000001aa 1AC5          OR        *+XAR5[0],#0x0004     ; [CPU_] |1567| 
         000001ab 0004 
    2066 000001ac 761A   EDIS
    2067 000001ad 7622   EALLOW
    2068 000001ae 0218          MOVB      ACC,#24               ; [CPU_] |1567| 
    2069 000001af 07C4          ADDL      ACC,*+XAR4[0]         ; [CPU_] |1567| 
    2070 000001b0 83A9          MOVL      XAR5,ACC              ; [CPU_] |1567| 
    2071 000001b1 1AC5          OR        *+XAR5[0],#0x0004     ; [CPU_] |1567| 
         000001b2 0004 
    2072 000001b3 761A   EDIS
    2073 000001b4 7622   EALLOW
    2074 000001b5 0218          MOVB      ACC,#24               ; [CPU_] |1567| 
    2075 000001b6 07D4          ADDL      ACC,*+XAR4[2]         ; [CPU_] |1567| 
    2076 000001b7 8AA9          MOVL      XAR4,ACC              ; [CPU_] |1567| 
    2077 000001b8 1AC4          OR        *+XAR4[0],#0x0004     ; [CPU_] |1567| 
         000001b9 0004 
    2078 000001ba 761A   EDIS
    2079 000001bb 761F-         MOVW      DP,#_ctrlHandle       ; [CPU_U] 
         000001bc 0000 
    2080                      .dwpsn  file "C:/ti/motorware/motorware_1_01_00_15/sw/solutions/instaspin_foc/src/proj_lab02b.c",line
    2081 000001bd 8606-         MOVL      XAR2,@_ctrlHandle     ; [CPU_] |253| 
    2082                      .dwpsn  file "C:/ti/motorware/motorware_1_01_00_15/sw/modules/ctrl/src/32b/ctrl.h",line 1246,column 3
    2083 000001be D0F1          MOVB      XAR0,#241             ; [CPU_] |1246| 
    2084 000001bf 56BF          MOVB      *+XAR2[AR0],#1,UNC    ; [CPU_] |1246| 
         000001c0 0192 
    2085 000001c1       $C$L9:    
    2086 000001c1 761F-         MOVW      DP,#_gMotorVars       ; [CPU_U] 
         000001c2 0001 
    2087                      .dwpsn  file "C:/ti/motorware/motorware_1_01_00_15/sw/solutions/instaspin_foc/src/proj_lab02b.c",line
    2088 000001c3 9200-         MOV       AL,@_gMotorVars       ; [CPU_] |259| 
    2089 000001c4 ECFD          BF        $C$L9,EQ              ; [CPU_] |259| 
    2090                      ; branchcc occurs ; [] |259| 
    2091                      .dwpsn  file "C:/ti/motorware/motorware_1_01_00_15/sw/solutions/instaspin_foc/src/proj_lab02b.c",line
    2092 000001c5 FFEF          B         $C$L28,UNC            ; [CPU_] |262| 
         000001c6 0162 
    2093                      ; branch occurs ; [] |262| 
    2094 000001c7       $C$L10:    
    2095 000001c7 761F-         MOVW      DP,#_gCounter_updateGlobals ; [CPU_U] 
         000001c8 0000 
    2096                      .dwpsn  file "C:/ti/motorware/motorware_1_01_00_15/sw/solutions/instaspin_foc/src/proj_lab02b.c",line
    2097 000001c9 0A02-         INC       @_gCounter_updateGlobals ; [CPU_] |267| 
    2098                      .dwpsn  file "C:/ti/motorware/motorware_1_01_00_15/sw/modules/ctrl/src/32b/ctrl.h",line 1060,column 3
    2099 000001ca 92E2          MOV       AL,*+XAR2[4]          ; [CPU_] |1060| 
    2100 000001cb 56C1          BF        $C$L21,EQ             ; [CPU_] |1060| 
         000001cc 00DB 
    2101                      ; branchcc occurs ; [] |1060| 
    2102 000001cd FF69          SPM       #0                    ; [CPU_] 
TMS320C2000 Assembler PC v6.4.9 Wed Dec 02 17:22:56 2015

Tools Copyright (c) 1996-2015 Texas Instruments Incorporated
C:\Users\ywcheng\AppData\Local\Temp\5808410                          PAGE   43

    2103                      .dwpsn  file "C:/ti/motorware/motorware_1_01_00_15/sw/solutions/instaspin_foc/src/proj_lab02b.c",line
    2104 000001ce 8AA2          MOVL      XAR4,XAR2             ; [CPU_] |284| 
    2105              $C$DW$221       .dwtag  DW_TAG_TI_branch
    2106                      .dwattr $C$DW$221, DW_AT_low_pc(0x00)
    2107                      .dwattr $C$DW$221, DW_AT_name("_CTRL_updateState")
    2108                      .dwattr $C$DW$221, DW_AT_TI_call
    2109 000001cf 7640!         LCR       #_CTRL_updateState    ; [CPU_] |284| 
         000001d0 0000 
    2110                      ; call occurs [#_CTRL_updateState] ; [] |284| 
    2111 000001d1 761F-         MOVW      DP,#_ctrlHandle       ; [CPU_U] 
         000001d2 0000 
    2112                      .dwpsn  file "C:/ti/motorware/motorware_1_01_00_15/sw/solutions/instaspin_foc/src/proj_lab02b.c",line
    2113 000001d3 8A06-         MOVL      XAR4,@_ctrlHandle     ; [CPU_] |287| 
    2114 000001d4 93CB          MOV       AH,*+XAR3[1]          ; [CPU_] |287| 
    2115                      .dwpsn  file "C:/ti/motorware/motorware_1_01_00_15/sw/modules/ctrl/src/32b/ctrl.h",line 1218,column 3
    2116 000001d5 D0F0          MOVB      XAR0,#240             ; [CPU_] |1218| 
    2117                      .dwpsn  file "C:/ti/motorware/motorware_1_01_00_15/sw/solutions/instaspin_foc/src/proj_lab02b.c",line
    2118 000001d6 5200          CMPB      AL,#0                 ; [CPU_] |289| 
    2119                      .dwpsn  file "C:/ti/motorware/motorware_1_01_00_15/sw/modules/ctrl/src/32b/ctrl.h",line 1218,column 3
    2120 000001d7 9794          MOV       *+XAR4[AR0],AH        ; [CPU_] |1218| 
    2121                      .dwpsn  file "C:/ti/motorware/motorware_1_01_00_15/sw/solutions/instaspin_foc/src/proj_lab02b.c",line
    2122 000001d8 56C1          BF        $C$L22,EQ             ; [CPU_] |289| 
         000001d9 00EE 
    2123                      ; branchcc occurs ; [] |289| 
    2124                      .dwpsn  file "C:/ti/motorware/motorware_1_01_00_15/sw/modules/ctrl/src/32b/ctrl.h",line 771,column 3,
    2125 000001da 92E4          MOV       AL,*+XAR4[4]          ; [CPU_] |771| 
    2126                      .dwpsn  file "C:/ti/motorware/motorware_1_01_00_15/sw/solutions/instaspin_foc/src/proj_lab02b.c",line
    2127 000001db D018          MOVB      XAR0,#24              ; [CPU_] |292| 
    2128                      .dwpsn  file "C:/ti/motorware/motorware_1_01_00_15/sw/modules/ctrl/src/32b/ctrl.h",line 771,column 3,
    2129 000001dc 9647          MOV       *-SP[7],AL            ; [CPU_] |771| 
    2130                      .dwpsn  file "C:/ti/motorware/motorware_1_01_00_15/sw/solutions/instaspin_foc/src/proj_lab02b.c",line
    2131 000001dd 8A92          MOVL      XAR4,*+XAR2[AR0]      ; [CPU_] |292| 
    2132              $C$DW$222       .dwtag  DW_TAG_TI_branch
    2133                      .dwattr $C$DW$222, DW_AT_low_pc(0x00)
    2134                      .dwattr $C$DW$222, DW_AT_name("_EST_getState")
    2135                      .dwattr $C$DW$222, DW_AT_TI_call
    2136 000001de 7640!         LCR       #_EST_getState        ; [CPU_] |292| 
         000001df 0000 
    2137                      ; call occurs [#_EST_getState] ; [] |292| 
    2138 000001e0 9347          MOV       AH,*-SP[7]            ; [CPU_] |292| 
    2139                      .dwpsn  file "C:/ti/motorware/motorware_1_01_00_15/sw/solutions/instaspin_foc/src/proj_lab02b.c",line
    2140 000001e1 5302          CMPB      AH,#2                 ; [CPU_] |294| 
    2141 000001e2 56C1          BF        $C$L18,EQ             ; [CPU_] |294| 
         000001e3 0095 
    2142                      ; branchcc occurs ; [] |294| 
    2143                      .dwpsn  file "C:/ti/motorware/motorware_1_01_00_15/sw/solutions/instaspin_foc/src/proj_lab02b.c",line
    2144 000001e4 5303          CMPB      AH,#3                 ; [CPU_] |299| 
    2145 000001e5 EC23          BF        $C$L11,EQ             ; [CPU_] |299| 
    2146                      ; branchcc occurs ; [] |299| 
    2147 000001e6 9247          MOV       AL,*-SP[7]            ; [CPU_] 
    2148                      .dwpsn  file "C:/ti/motorware/motorware_1_01_00_15/sw/solutions/instaspin_foc/src/proj_lab02b.c",line
    2149 000001e7 5201          CMPB      AL,#1                 ; [CPU_] |320| 
    2150 000001e8 56C0          BF        $C$L20,NEQ            ; [CPU_] |320| 
         000001e9 00AA 
    2151                      ; branchcc occurs ; [] |320| 
TMS320C2000 Assembler PC v6.4.9 Wed Dec 02 17:22:56 2015

Tools Copyright (c) 1996-2015 Texas Instruments Incorporated
C:\Users\ywcheng\AppData\Local\Temp\5808410                          PAGE   44

    2152 000001ea 761F-         MOVW      DP,#_halHandle        ; [CPU_U] 
         000001eb 0000 
    2153                      .dwpsn  file "C:/ti/motorware/motorware_1_01_00_15/sw/modules/hal/boards/hvkit_rev1p1/f28x/f2802x/src
    2154 000001ec 8300-         MOVL      XAR5,@_halHandle      ; [CPU_] |231| 
    2155 000001ed 8AA5          MOVL      XAR4,XAR5             ; [CPU_] |231| 
    2156 000001ee DC7E          ADDB      XAR4,#126             ; [CPU_] |231| 
    2157 000001ef 7622   EALLOW
    2158                      .dwpsn  file "C:/ti/motorware/motorware_1_01_00_15/sw/drivers/pwm/src/32b/f28x/f2802x/pwm.h",line 156
    2159 000001f0 D07C          MOVB      XAR0,#124             ; [CPU_] |1567| 
    2160 000001f1 0218          MOVB      ACC,#24               ; [CPU_] |1567| 
    2161 000001f2 0795          ADDL      ACC,*+XAR5[AR0]       ; [CPU_] |1567| 
    2162 000001f3 83A9          MOVL      XAR5,ACC              ; [CPU_] |1567| 
    2163 000001f4 1AC5          OR        *+XAR5[0],#0x0004     ; [CPU_] |1567| 
         000001f5 0004 
    2164 000001f6 761A   EDIS
    2165 000001f7 7622   EALLOW
    2166 000001f8 0218          MOVB      ACC,#24               ; [CPU_] |1567| 
    2167 000001f9 07C4          ADDL      ACC,*+XAR4[0]         ; [CPU_] |1567| 
    2168 000001fa 83A9          MOVL      XAR5,ACC              ; [CPU_] |1567| 
    2169 000001fb 1AC5          OR        *+XAR5[0],#0x0004     ; [CPU_] |1567| 
         000001fc 0004 
    2170 000001fd 761A   EDIS
    2171 000001fe 7622   EALLOW
    2172 000001ff 0218          MOVB      ACC,#24               ; [CPU_] |1567| 
    2173 00000200 07D4          ADDL      ACC,*+XAR4[2]         ; [CPU_] |1567| 
    2174 00000201 8AA9          MOVL      XAR4,ACC              ; [CPU_] |1567| 
    2175 00000202 1AC4          OR        *+XAR4[0],#0x0004     ; [CPU_] |1567| 
         00000203 0004 
    2176 00000204 761A   EDIS
    2177                      .dwpsn  file "C:/ti/motorware/motorware_1_01_00_15/sw/solutions/instaspin_foc/src/proj_lab02b.c",line
    2178 00000205 2BCB          MOV       *+XAR3[1],#0          ; [CPU_] |324| 
    2179 00000206 FFEF          B         $C$L20,UNC            ; [CPU_] |324| 
         00000207 008C 
    2180                      ; branch occurs ; [] |324| 
    2181 00000208       $C$L11:    
    2182                      .dwpsn  file "C:/ti/motorware/motorware_1_01_00_15/sw/solutions/instaspin_foc/src/proj_lab02b.c",line
    2183 00000208 5209          CMPB      AL,#9                 ; [CPU_] |301| 
    2184 00000209 56C8          BF        $C$L12,LO             ; [CPU_] |301| 
         0000020a 000B 
    2185                      ; branchcc occurs ; [] |301| 
    2186 0000020b 520C          CMPB      AL,#12                ; [CPU_] |301| 
    2187 0000020c 56C6          BF        $C$L12,HI             ; [CPU_] |301| 
         0000020d 0008 
    2188                      ; branchcc occurs ; [] |301| 
    2189 0000020e 027C          MOVB      ACC,#124              ; [CPU_] 
    2190 0000020f 761F-         MOVW      DP,#_halHandle        ; [CPU_U] 
         00000210 0000 
    2191 00000211 0700-         ADDL      ACC,@_halHandle       ; [CPU_] 
    2192 00000212 8AA9          MOVL      XAR4,ACC              ; [CPU_] 
    2193 00000213 6F3C          B         $C$L17,UNC            ; [CPU_] 
    2194                      ; branch occurs ; [] 
    2195 00000214       $C$L12:    
    2196 00000214 761F-         MOVW      DP,#_halHandle        ; [CPU_U] 
         00000215 0000 
    2197                      .dwpsn  file "C:/ti/motorware/motorware_1_01_00_15/sw/solutions/instaspin_foc/src/proj_lab02b.c",line
TMS320C2000 Assembler PC v6.4.9 Wed Dec 02 17:22:56 2015

Tools Copyright (c) 1996-2015 Texas Instruments Incorporated
C:\Users\ywcheng\AppData\Local\Temp\5808410                          PAGE   45

    2198 00000216 8300-         MOVL      XAR5,@_halHandle      ; [CPU_] |304| 
    2199 00000217 8AA5          MOVL      XAR4,XAR5             ; [CPU_] |304| 
    2200                      .dwpsn  file "C:/ti/motorware/motorware_1_01_00_15/sw/modules/hal/boards/hvkit_rev1p1/f28x/f2802x/src
    2201 00000218 D300          MOVB      XAR3,#0               ; [CPU_] |964| 
    2202                      .dwpsn  file "C:/ti/motorware/motorware_1_01_00_15/sw/solutions/instaspin_foc/src/proj_lab02b.c",line
    2203 00000219 DC7C          ADDB      XAR4,#124             ; [CPU_] |304| 
    2204 0000021a 2901          CLRC      SXM                   ; [CPU_] 
    2205                      .dwpsn  file "C:/ti/motorware/motorware_1_01_00_15/sw/modules/hal/boards/hvkit_rev1p1/f28x/f2802x/src
    2206 0000021b 6F13          B         $C$L14,UNC            ; [CPU_] |964| 
    2207                      ; branch occurs ; [] |964| 
    2208 0000021c       $C$L13:    
    2209                      .dwpsn  file "C:/ti/motorware/motorware_1_01_00_15/sw/modules/hal/boards/hvkit_rev1p1/f28x/f2802x/src
    2210 0000021c 5603          MOV       ACC,AL << 1           ; [CPU_] |319| 
         0000021d 01A9 
    2211 0000021e 1EAC          MOVL      XT,ACC                ; [CPU_] |319| 
    2212                      .dwpsn  file "C:/ti/motorware/motorware_1_01_00_15/sw/modules/hal/boards/hvkit_rev1p1/f28x/f2802x/src
    2213 0000021f C5A5          MOVL      XAR7,XAR5             ; [CPU_] |968| 
    2214                      .dwpsn  file "C:/ti/motorware/motorware_1_01_00_15/sw/modules/hal/boards/hvkit_rev1p1/f28x/f2802x/src
    2215 00000220 A0A9          MOVL      ACC,XAR5              ; [CPU_] |319| 
    2216 00000221 07AC          ADDL      ACC,XT                ; [CPU_] |319| 
    2217 00000222 1EA6          MOVL      XAR6,ACC              ; [CPU_] |319| 
    2218                      .dwpsn  file "C:/ti/motorware/motorware_1_01_00_15/sw/modules/hal/boards/hvkit_rev1p1/f28x/f2802x/src
    2219 00000223 ABA9          MOVL      ACC,XT                ; [CPU_] |968| 
    2220 00000224 5601          ADDL      XAR7,ACC              ; [CPU_] |968| 
         00000225 00A7 
    2221                      .dwpsn  file "C:/ti/motorware/motorware_1_01_00_15/sw/modules/hal/boards/hvkit_rev1p1/f28x/f2802x/src
    2222 00000226 D092          MOVB      XAR0,#146             ; [CPU_] |319| 
    2223 00000227 0696          MOVL      ACC,*+XAR6[AR0]       ; [CPU_] |319| 
    2224                      .dwpsn  file "C:/ti/motorware/motorware_1_01_00_15/sw/modules/hal/boards/hvkit_rev1p1/f28x/f2802x/src
    2225 00000228 D00A          MOVB      XAR0,#10              ; [CPU_] |968| 
    2226 00000229 C597          MOVL      XAR7,*+XAR7[AR0]      ; [CPU_] |968| 
    2227                      .dwpsn  file "C:/ti/motorware/motorware_1_01_00_15/sw/modules/hal/boards/hvkit_rev1p1/f28x/f2802x/src
    2228 0000022a DB01          ADDB      XAR3,#1               ; [CPU_] |964| 
    2229                      .dwpsn  file "C:/ti/motorware/motorware_1_01_00_15/sw/modules/hal/boards/hvkit_rev1p1/f28x/f2802x/src
    2230 0000022b D092          MOVB      XAR0,#146             ; [CPU_] |697| 
    2231                      .dwpsn  file "C:/ti/motorware/motorware_1_01_00_15/sw/modules/hal/boards/hvkit_rev1p1/f28x/f2802x/src
    2232 0000022c 07C7          ADDL      ACC,*+XAR7[0]         ; [CPU_] |968| 
    2233                      .dwpsn  file "C:/ti/motorware/motorware_1_01_00_15/sw/modules/hal/boards/hvkit_rev1p1/f28x/f2802x/src
    2234 0000022d 1E96          MOVL      *+XAR6[AR0],ACC       ; [CPU_] |697| 
    2235 0000022e       $C$L14:    
    2236                      .dwpsn  file "C:/ti/motorware/motorware_1_01_00_15/sw/modules/hal/boards/hvkit_rev1p1/f28x/f2802x/src
    2237 0000022e D0A4          MOVB      XAR0,#164             ; [CPU_] |964| 
    2238 0000022f 92A3          MOV       AL,AR3                ; [CPU_] |964| 
    2239 00000230 5495          CMP       AL,*+XAR5[AR0]        ; [CPU_] |964| 
    2240 00000231 56C8          BF        $C$L13,LO             ; [CPU_] |964| 
         00000232 FFEB 
    2241                      ; branchcc occurs ; [] |964| 
    2242                      .dwpsn  file "C:/ti/motorware/motorware_1_01_00_15/sw/modules/hal/boards/hvkit_rev1p1/f28x/f2802x/src
    2243 00000233 2BAB          MOV       PL,#0                 ; [CPU_] |975| 
    2244 00000234 2901          CLRC      SXM                   ; [CPU_] 
    2245 00000235 6F15          B         $C$L16,UNC            ; [CPU_] |975| 
    2246                      ; branch occurs ; [] |975| 
    2247 00000236       $C$L15:    
    2248                      .dwpsn  file "C:/ti/motorware/motorware_1_01_00_15/sw/modules/hal/boards/hvkit_rev1p1/f28x/f2802x/src
    2249 00000236 5603          MOV       ACC,AL << 1           ; [CPU_] |319| 
TMS320C2000 Assembler PC v6.4.9 Wed Dec 02 17:22:56 2015

Tools Copyright (c) 1996-2015 Texas Instruments Incorporated
C:\Users\ywcheng\AppData\Local\Temp\5808410                          PAGE   46

         00000237 01A9 
    2250 00000238 82A9          MOVL      XAR3,ACC              ; [CPU_] |319| 
    2251                      .dwpsn  file "C:/ti/motorware/motorware_1_01_00_15/sw/modules/hal/boards/hvkit_rev1p1/f28x/f2802x/src
    2252 00000239 C5A5          MOVL      XAR7,XAR5             ; [CPU_] |979| 
    2253                      .dwpsn  file "C:/ti/motorware/motorware_1_01_00_15/sw/modules/hal/boards/hvkit_rev1p1/f28x/f2802x/src
    2254 0000023a A0A9          MOVL      ACC,XAR5              ; [CPU_] |319| 
    2255 0000023b 07A3          ADDL      ACC,XAR3              ; [CPU_] |319| 
    2256 0000023c 1EA6          MOVL      XAR6,ACC              ; [CPU_] |319| 
    2257                      .dwpsn  file "C:/ti/motorware/motorware_1_01_00_15/sw/modules/hal/boards/hvkit_rev1p1/f28x/f2802x/src
    2258 0000023d A2A9          MOVL      ACC,XAR3              ; [CPU_] |979| 
    2259 0000023e 5601          ADDL      XAR7,ACC              ; [CPU_] |979| 
         0000023f 00A7 
    2260                      .dwpsn  file "C:/ti/motorware/motorware_1_01_00_15/sw/modules/hal/boards/hvkit_rev1p1/f28x/f2802x/src
    2261 00000240 D098          MOVB      XAR0,#152             ; [CPU_] |319| 
    2262 00000241 0696          MOVL      ACC,*+XAR6[AR0]       ; [CPU_] |319| 
    2263                      .dwpsn  file "C:/ti/motorware/motorware_1_01_00_15/sw/modules/hal/boards/hvkit_rev1p1/f28x/f2802x/src
    2264 00000242 D040          MOVB      XAR0,#64              ; [CPU_] |979| 
    2265 00000243 C597          MOVL      XAR7,*+XAR7[AR0]      ; [CPU_] |979| 
    2266                      .dwpsn  file "C:/ti/motorware/motorware_1_01_00_15/sw/modules/hal/boards/hvkit_rev1p1/f28x/f2802x/src
    2267 00000244 D098          MOVB      XAR0,#152             ; [CPU_] |701| 
    2268                      .dwpsn  file "C:/ti/motorware/motorware_1_01_00_15/sw/modules/hal/boards/hvkit_rev1p1/f28x/f2802x/src
    2269 00000245 07C7          ADDL      ACC,*+XAR7[0]         ; [CPU_] |979| 
    2270                      .dwpsn  file "C:/ti/motorware/motorware_1_01_00_15/sw/modules/hal/boards/hvkit_rev1p1/f28x/f2802x/src
    2271 00000246 1E96          MOVL      *+XAR6[AR0],ACC       ; [CPU_] |701| 
    2272 00000247 92AB          MOV       AL,PL                 ; [CPU_] |701| 
    2273                      .dwpsn  file "C:/ti/motorware/motorware_1_01_00_15/sw/modules/hal/boards/hvkit_rev1p1/f28x/f2802x/src
    2274 00000248 9C01          ADDB      AL,#1                 ; [CPU_] |975| 
    2275 00000249 27A9          MOV       PL,AL                 ; [CPU_] |975| 
    2276 0000024a       $C$L16:    
    2277                      .dwpsn  file "C:/ti/motorware/motorware_1_01_00_15/sw/modules/hal/boards/hvkit_rev1p1/f28x/f2802x/src
    2278 0000024a D0A5          MOVB      XAR0,#165             ; [CPU_] |975| 
    2279 0000024b 92AB          MOV       AL,PL                 ; [CPU_] |975| 
    2280 0000024c 5495          CMP       AL,*+XAR5[AR0]        ; [CPU_] |975| 
    2281 0000024d 56C8          BF        $C$L15,LO             ; [CPU_] |975| 
         0000024e FFE9 
    2282                      ; branchcc occurs ; [] |975| 
    2283 0000024f       $C$L17:    
    2284                      .dwpsn  file "C:/ti/motorware/motorware_1_01_00_15/sw/solutions/instaspin_foc/src/proj_lab02b.c",line
    2285 0000024f D016          MOVB      XAR0,#22              ; [CPU_] |308| 
    2286 00000250 8F40-         MOVL      XAR5,#_gMotorVars+92  ; [CPU_U] |308| 
         00000251 009C 
    2287 00000252 0694          MOVL      ACC,*+XAR4[AR0]       ; [CPU_] |308| 
    2288                      .dwpsn  file "C:/ti/motorware/motorware_1_01_00_15/sw/solutions/instaspin_foc/src/proj_lab02b.c",line
    2289 00000253 D018          MOVB      XAR0,#24              ; [CPU_] |309| 
    2290                      .dwpsn  file "C:/ti/motorware/motorware_1_01_00_15/sw/solutions/instaspin_foc/src/proj_lab02b.c",line
    2291 00000254 1EC5          MOVL      *+XAR5[0],ACC         ; [CPU_] |308| 
    2292                      .dwpsn  file "C:/ti/motorware/motorware_1_01_00_15/sw/solutions/instaspin_foc/src/proj_lab02b.c",line
    2293 00000255 0694          MOVL      ACC,*+XAR4[AR0]       ; [CPU_] |309| 
    2294                      .dwpsn  file "C:/ti/motorware/motorware_1_01_00_15/sw/solutions/instaspin_foc/src/proj_lab02b.c",line
    2295 00000256 D01A          MOVB      XAR0,#26              ; [CPU_] |310| 
    2296                      .dwpsn  file "C:/ti/motorware/motorware_1_01_00_15/sw/solutions/instaspin_foc/src/proj_lab02b.c",line
    2297 00000257 1ED5          MOVL      *+XAR5[2],ACC         ; [CPU_] |309| 
    2298                      .dwpsn  file "C:/ti/motorware/motorware_1_01_00_15/sw/solutions/instaspin_foc/src/proj_lab02b.c",line
    2299 00000258 0694          MOVL      ACC,*+XAR4[AR0]       ; [CPU_] |310| 
    2300                      .dwpsn  file "C:/ti/motorware/motorware_1_01_00_15/sw/solutions/instaspin_foc/src/proj_lab02b.c",line
TMS320C2000 Assembler PC v6.4.9 Wed Dec 02 17:22:56 2015

Tools Copyright (c) 1996-2015 Texas Instruments Incorporated
C:\Users\ywcheng\AppData\Local\Temp\5808410                          PAGE   47

    2301 00000259 D01C          MOVB      XAR0,#28              ; [CPU_] |313| 
    2302                      .dwpsn  file "C:/ti/motorware/motorware_1_01_00_15/sw/solutions/instaspin_foc/src/proj_lab02b.c",line
    2303 0000025a 1EE5          MOVL      *+XAR5[4],ACC         ; [CPU_] |310| 
    2304                      .dwpsn  file "C:/ti/motorware/motorware_1_01_00_15/sw/solutions/instaspin_foc/src/proj_lab02b.c",line
    2305 0000025b 0694          MOVL      ACC,*+XAR4[AR0]       ; [CPU_] |313| 
    2306                      .dwpsn  file "C:/ti/motorware/motorware_1_01_00_15/sw/solutions/instaspin_foc/src/proj_lab02b.c",line
    2307 0000025c D01E          MOVB      XAR0,#30              ; [CPU_] |314| 
    2308                      .dwpsn  file "C:/ti/motorware/motorware_1_01_00_15/sw/solutions/instaspin_foc/src/proj_lab02b.c",line
    2309 0000025d 1EF5          MOVL      *+XAR5[6],ACC         ; [CPU_] |313| 
    2310                      .dwpsn  file "C:/ti/motorware/motorware_1_01_00_15/sw/solutions/instaspin_foc/src/proj_lab02b.c",line
    2311 0000025e 0694          MOVL      ACC,*+XAR4[AR0]       ; [CPU_] |314| 
    2312 0000025f D008          MOVB      XAR0,#8               ; [CPU_] |314| 
    2313 00000260 1E95          MOVL      *+XAR5[AR0],ACC       ; [CPU_] |314| 
    2314                      .dwpsn  file "C:/ti/motorware/motorware_1_01_00_15/sw/solutions/instaspin_foc/src/proj_lab02b.c",line
    2315 00000261 D020          MOVB      XAR0,#32              ; [CPU_] |315| 
    2316 00000262 0694          MOVL      ACC,*+XAR4[AR0]       ; [CPU_] |315| 
    2317 00000263 D00A          MOVB      XAR0,#10              ; [CPU_] |315| 
    2318 00000264 1E95          MOVL      *+XAR5[AR0],ACC       ; [CPU_] |315| 
    2319 00000265 7622   EALLOW
    2320                      .dwpsn  file "C:/ti/motorware/motorware_1_01_00_15/sw/drivers/pwm/src/32b/f28x/f2802x/pwm.h",line 951
    2321 00000266 0217          MOVB      ACC,#23               ; [CPU_] |951| 
    2322 00000267 07C4          ADDL      ACC,*+XAR4[0]         ; [CPU_] |951| 
    2323 00000268 83A9          MOVL      XAR5,ACC              ; [CPU_] |951| 
    2324 00000269 56BF          MOVB      *+XAR5[0],#4,UNC      ; [CPU_] |951| 
         0000026a 04C5 
    2325 0000026b 761A   EDIS
    2326 0000026c 7622   EALLOW
    2327 0000026d 0217          MOVB      ACC,#23               ; [CPU_] |951| 
    2328 0000026e 07D4          ADDL      ACC,*+XAR4[2]         ; [CPU_] |951| 
    2329 0000026f 83A9          MOVL      XAR5,ACC              ; [CPU_] |951| 
    2330 00000270 56BF          MOVB      *+XAR5[0],#4,UNC      ; [CPU_] |951| 
         00000271 04C5 
    2331 00000272 761A   EDIS
    2332 00000273 7622   EALLOW
    2333 00000274 0217          MOVB      ACC,#23               ; [CPU_] |951| 
    2334 00000275 07E4          ADDL      ACC,*+XAR4[4]         ; [CPU_] |951| 
    2335                      .dwpsn  file "C:/ti/motorware/motorware_1_01_00_15/sw/drivers/pwm/src/32b/f28x/f2802x/pwm.h",line 955
    2336 00000276 6F18          B         $C$L19,UNC            ; [CPU_] |955| 
    2337                      ; branch occurs ; [] |955| 
    2338 00000277       $C$L18:    
    2339 00000277 761F-         MOVW      DP,#_halHandle        ; [CPU_U] 
         00000278 0000 
    2340                      .dwpsn  file "C:/ti/motorware/motorware_1_01_00_15/sw/modules/hal/boards/hvkit_rev1p1/f28x/f2802x/src
    2341 00000279 C400-         MOVL      XAR6,@_halHandle      ; [CPU_] |267| 
    2342 0000027a 8AA6          MOVL      XAR4,XAR6             ; [CPU_] |267| 
    2343 0000027b DC7E          ADDB      XAR4,#126             ; [CPU_] |267| 
    2344 0000027c 7622   EALLOW
    2345                      .dwpsn  file "C:/ti/motorware/motorware_1_01_00_15/sw/drivers/pwm/src/32b/f28x/f2802x/pwm.h",line 951
    2346 0000027d D07C          MOVB      XAR0,#124             ; [CPU_] |951| 
    2347 0000027e 0217          MOVB      ACC,#23               ; [CPU_] |951| 
    2348 0000027f 0796          ADDL      ACC,*+XAR6[AR0]       ; [CPU_] |951| 
    2349 00000280 83A9          MOVL      XAR5,ACC              ; [CPU_] |951| 
    2350 00000281 56BF          MOVB      *+XAR5[0],#4,UNC      ; [CPU_] |951| 
         00000282 04C5 
    2351 00000283 761A   EDIS
TMS320C2000 Assembler PC v6.4.9 Wed Dec 02 17:22:56 2015

Tools Copyright (c) 1996-2015 Texas Instruments Incorporated
C:\Users\ywcheng\AppData\Local\Temp\5808410                          PAGE   48

    2352 00000284 7622   EALLOW
    2353 00000285 0217          MOVB      ACC,#23               ; [CPU_] |951| 
    2354 00000286 07C4          ADDL      ACC,*+XAR4[0]         ; [CPU_] |951| 
    2355 00000287 83A9          MOVL      XAR5,ACC              ; [CPU_] |951| 
    2356 00000288 56BF          MOVB      *+XAR5[0],#4,UNC      ; [CPU_] |951| 
         00000289 04C5 
    2357 0000028a 761A   EDIS
    2358 0000028b 7622   EALLOW
    2359 0000028c 0217          MOVB      ACC,#23               ; [CPU_] |951| 
    2360 0000028d 07D4          ADDL      ACC,*+XAR4[2]         ; [CPU_] |951| 
    2361 0000028e       $C$L19:    
    2362 0000028e 8AA9          MOVL      XAR4,ACC              ; [CPU_] |951| 
    2363 0000028f 56BF          MOVB      *+XAR4[0],#4,UNC      ; [CPU_] |951| 
         00000290 04C4 
    2364 00000291 761A   EDIS
    2365 00000292       $C$L20:    
    2366 00000292 761F-         MOVW      DP,#_ctrlHandle       ; [CPU_U] 
         00000293 0000 
    2367                      .dwpsn  file "C:/ti/motorware/motorware_1_01_00_15/sw/solutions/instaspin_foc/src/proj_lab02b.c",line
    2368 00000294 8A06-         MOVL      XAR4,@_ctrlHandle     ; [CPU_] |327| 
    2369 00000295 D0F5          MOVB      XAR0,#245             ; [CPU_] |327| 
    2370 00000296 9294          MOV       AL,*+XAR4[AR0]        ; [CPU_] |327| 
    2371 00000297 5201          CMPB      AL,#1                 ; [CPU_] |327| 
    2372 00000298 ED2E          BF        $C$L22,NEQ            ; [CPU_] |327| 
    2373                      ; branchcc occurs ; [] |327| 
    2374 00000299 9247          MOV       AL,*-SP[7]            ; [CPU_] 
    2375 0000029a 5201          CMPB      AL,#1                 ; [CPU_] |327| 
    2376 0000029b 56C9          BF        $C$L22,LOS            ; [CPU_] |327| 
         0000029c 002B 
    2377                      ; branchcc occurs ; [] |327| 
    2378 0000029d 761F-         MOVW      DP,#_gMotorVars+16    ; [CPU_U] 
         0000029e 0001 
    2379 0000029f 9210-         MOV       AL,@_gMotorVars+16    ; [CPU_] |327| 
    2380 000002a0 5206          CMPB      AL,#6                 ; [CPU_] |327| 
    2381 000002a1 ED25          BF        $C$L22,NEQ            ; [CPU_] |327| 
    2382                      ; branchcc occurs ; [] |327| 
    2383 000002a2 FF69          SPM       #0                    ; [CPU_] 
    2384                      .dwpsn  file "C:/ti/motorware/motorware_1_01_00_15/sw/solutions/instaspin_foc/src/proj_lab02b.c",line
    2385              $C$DW$223       .dwtag  DW_TAG_TI_branch
    2386                      .dwattr $C$DW$223, DW_AT_low_pc(0x00)
    2387                      .dwattr $C$DW$223, DW_AT_name("_USER_softwareUpdate1p6")
    2388                      .dwattr $C$DW$223, DW_AT_TI_call
    2389 000002a3 7640!         LCR       #_USER_softwareUpdate1p6 ; [CPU_] |332| 
         000002a4 0000 
    2390                      ; call occurs [#_USER_softwareUpdate1p6] ; [] |332| 
    2391 000002a5 6F21          B         $C$L22,UNC            ; [CPU_] |332| 
    2392                      ; branch occurs ; [] |332| 
    2393 000002a6       $C$L21:    
    2394                      .dwpsn  file "C:/ti/motorware/motorware_1_01_00_15/sw/modules/ctrl/src/32b/ctrl.h",line 1218,column 3
    2395 000002a6 D0F0          MOVB      XAR0,#240             ; [CPU_] |1218| 
    2396 000002a7 761F-         MOVW      DP,#_gMotorVars       ; [CPU_U] 
         000002a8 0001 
    2397 000002a9 2B92          MOV       *+XAR2[AR0],#0        ; [CPU_] |1218| 
    2398                      .dwpsn  file "C:/ti/motorware/motorware_1_01_00_15/sw/solutions/instaspin_foc/src/proj_lab02b.c",line
    2399 000002aa 2B00-         MOV       @_gMotorVars,#0       ; [CPU_] |276| 
TMS320C2000 Assembler PC v6.4.9 Wed Dec 02 17:22:56 2015

Tools Copyright (c) 1996-2015 Texas Instruments Incorporated
C:\Users\ywcheng\AppData\Local\Temp\5808410                          PAGE   49

    2400 000002ab 761F-         MOVW      DP,#_halHandle        ; [CPU_U] 
         000002ac 0000 
    2401                      .dwpsn  file "C:/ti/motorware/motorware_1_01_00_15/sw/modules/hal/boards/hvkit_rev1p1/f28x/f2802x/src
    2402 000002ad 8300-         MOVL      XAR5,@_halHandle      ; [CPU_] |231| 
    2403 000002ae 8AA5          MOVL      XAR4,XAR5             ; [CPU_] |231| 
    2404 000002af DC7E          ADDB      XAR4,#126             ; [CPU_] |231| 
    2405 000002b0 7622   EALLOW
    2406                      .dwpsn  file "C:/ti/motorware/motorware_1_01_00_15/sw/drivers/pwm/src/32b/f28x/f2802x/pwm.h",line 156
    2407 000002b1 0218          MOVB      ACC,#24               ; [CPU_] |1567| 
    2408 000002b2 D07C          MOVB      XAR0,#124             ; [CPU_] |1567| 
    2409 000002b3 0795          ADDL      ACC,*+XAR5[AR0]       ; [CPU_] |1567| 
    2410 000002b4 83A9          MOVL      XAR5,ACC              ; [CPU_] |1567| 
    2411 000002b5 1AC5          OR        *+XAR5[0],#0x0004     ; [CPU_] |1567| 
         000002b6 0004 
    2412 000002b7 761A   EDIS
    2413 000002b8 7622   EALLOW
    2414 000002b9 0218          MOVB      ACC,#24               ; [CPU_] |1567| 
    2415 000002ba 07C4          ADDL      ACC,*+XAR4[0]         ; [CPU_] |1567| 
    2416 000002bb 83A9          MOVL      XAR5,ACC              ; [CPU_] |1567| 
    2417 000002bc 1AC5          OR        *+XAR5[0],#0x0004     ; [CPU_] |1567| 
         000002bd 0004 
    2418 000002be 761A   EDIS
    2419 000002bf 7622   EALLOW
    2420 000002c0 0218          MOVB      ACC,#24               ; [CPU_] |1567| 
    2421 000002c1 07D4          ADDL      ACC,*+XAR4[2]         ; [CPU_] |1567| 
    2422 000002c2 8AA9          MOVL      XAR4,ACC              ; [CPU_] |1567| 
    2423 000002c3 1AC4          OR        *+XAR4[0],#0x0004     ; [CPU_] |1567| 
         000002c4 0004 
    2424 000002c5 761A   EDIS
    2425 000002c6       $C$L22:    
    2426                      .dwpsn  file "C:/ti/motorware/motorware_1_01_00_15/sw/solutions/instaspin_foc/src/proj_lab02b.c",line
    2427 000002c6 D018          MOVB      XAR0,#24              ; [CPU_] |339| 
    2428 000002c7 FF69          SPM       #0                    ; [CPU_] 
    2429 000002c8 8A92          MOVL      XAR4,*+XAR2[AR0]      ; [CPU_] |339| 
    2430              $C$DW$224       .dwtag  DW_TAG_TI_branch
    2431                      .dwattr $C$DW$224, DW_AT_low_pc(0x00)
    2432                      .dwattr $C$DW$224, DW_AT_name("_EST_isMotorIdentified")
    2433                      .dwattr $C$DW$224, DW_AT_TI_call
    2434 000002c9 7640!         LCR       #_EST_isMotorIdentified ; [CPU_] |339| 
         000002ca 0000 
    2435                      ; call occurs [#_EST_isMotorIdentified] ; [] |339| 
    2436 000002cb 5200          CMPB      AL,#0                 ; [CPU_] |339| 
    2437 000002cc EC27          BF        $C$L23,EQ             ; [CPU_] |339| 
    2438                      ; branchcc occurs ; [] |339| 
    2439                      .dwpsn  file "C:/ti/motorware/motorware_1_01_00_15/sw/solutions/instaspin_foc/src/proj_lab02b.c",line
    2440 000002cd D018          MOVB      XAR0,#24              ; [CPU_] |342| 
    2441 000002ce 761F-         MOVW      DP,#_gMaxCurrentSlope ; [CPU_U] 
         000002cf 0000 
    2442 000002d0 8A92          MOVL      XAR4,*+XAR2[AR0]      ; [CPU_] |342| 
    2443 000002d1 0604-         MOVL      ACC,@_gMaxCurrentSlope ; [CPU_] |342| 
    2444              $C$DW$225       .dwtag  DW_TAG_TI_branch
    2445                      .dwattr $C$DW$225, DW_AT_low_pc(0x00)
    2446                      .dwattr $C$DW$225, DW_AT_name("_EST_setMaxCurrentSlope_pu")
    2447                      .dwattr $C$DW$225, DW_AT_TI_call
    2448 000002d2 7640!         LCR       #_EST_setMaxCurrentSlope_pu ; [CPU_] |342| 
TMS320C2000 Assembler PC v6.4.9 Wed Dec 02 17:22:56 2015

Tools Copyright (c) 1996-2015 Texas Instruments Incorporated
C:\Users\ywcheng\AppData\Local\Temp\5808410                          PAGE   50

         000002d3 0000 
    2449                      ; call occurs [#_EST_setMaxCurrentSlope_pu] ; [] |342| 
    2450                      .dwpsn  file "C:/ti/motorware/motorware_1_01_00_15/sw/solutions/instaspin_foc/src/proj_lab02b.c",line
    2451 000002d4 8DC0-         MOVL      XAR3,#_gMotorVars     ; [CPU_U] |343| 
         000002d5 0040 
    2452 000002d6 761F-         MOVW      DP,#_ctrlHandle       ; [CPU_U] 
         000002d7 0000 
    2453                      .dwpsn  file "C:/ti/motorware/motorware_1_01_00_15/sw/solutions/instaspin_foc/src/proj_lab02b.c",line
    2454 000002d8 D018          MOVB      XAR0,#24              ; [CPU_] |346| 
    2455                      .dwpsn  file "C:/ti/motorware/motorware_1_01_00_15/sw/solutions/instaspin_foc/src/proj_lab02b.c",line
    2456 000002d9 56BF          MOVB      *+XAR3[2],#1,UNC      ; [CPU_] |343| 
         000002da 01D3 
    2457                      .dwpsn  file "C:/ti/motorware/motorware_1_01_00_15/sw/solutions/instaspin_foc/src/proj_lab02b.c",line
    2458 000002db 8A06-         MOVL      XAR4,@_ctrlHandle     ; [CPU_] |346| 
    2459 000002dc 0693          MOVL      ACC,*+XAR3[AR0]       ; [CPU_] |346| 
    2460              $C$DW$226       .dwtag  DW_TAG_TI_branch
    2461                      .dwattr $C$DW$226, DW_AT_low_pc(0x00)
    2462                      .dwattr $C$DW$226, DW_AT_name("_CTRL_setSpd_ref_krpm")
    2463                      .dwattr $C$DW$226, DW_AT_TI_call
    2464 000002dd 7640!         LCR       #_CTRL_setSpd_ref_krpm ; [CPU_] |346| 
         000002de 0000 
    2465                      ; call occurs [#_CTRL_setSpd_ref_krpm] ; [] |346| 
    2466 000002df 761F-         MOVW      DP,#_ctrlHandle       ; [CPU_U] 
         000002e0 0000 
    2467                      .dwpsn  file "C:/ti/motorware/motorware_1_01_00_15/sw/solutions/instaspin_foc/src/proj_lab02b.c",line
    2468 000002e1 D01C          MOVB      XAR0,#28              ; [CPU_] |349| 
    2469 000002e2 8F40          MOVL      XAR5,#1398            ; [CPU_U] |349| 
         000002e3 0576 
    2470 000002e4 A0AC          MOVL      XT,XAR5               ; [CPU_] |349| 
    2471 000002e5 8A06-         MOVL      XAR4,@_ctrlHandle     ; [CPU_] |349| 
    2472 000002e6 5605          IMPYL     P,XT,*+XAR3[AR0]      ; [CPU_] |349| 
         000002e7 0093 
    2473 000002e8 5663          QMPYL     ACC,XT,*+XAR3[AR0]    ; [CPU_] |349| 
         000002e9 0093 
    2474                      .dwpsn  file "C:/ti/motorware/motorware_1_01_00_15/sw/modules/ctrl/src/32b/ctrl.h",line 1560,column 3
    2475 000002ea D076          MOVB      XAR0,#118             ; [CPU_] |1560| 
    2476                      .dwpsn  file "C:/ti/motorware/motorware_1_01_00_15/sw/solutions/instaspin_foc/src/proj_lab02b.c",line
    2477 000002eb 56A7          LSL64     ACC:P,#8              ; [CPU_] |349| 
    2478                      .dwpsn  file "C:/ti/motorware/motorware_1_01_00_15/sw/modules/ctrl/src/32b/ctrl.h",line 1560,column 3
    2479 000002ec 1E94          MOVL      *+XAR4[AR0],ACC       ; [CPU_] |1560| 
    2480                      .dwpsn  file "C:/ti/motorware/motorware_1_01_00_15/sw/solutions/instaspin_foc/src/proj_lab02b.c",line
    2481 000002ed 9200-         MOV       AL,@_Flag_Latch_softwareUpdate ; [CPU_] |351| 
    2482 000002ee EC13          BF        $C$L25,EQ             ; [CPU_] |351| 
    2483                      ; branchcc occurs ; [] |351| 
    2484                      .dwpsn  file "C:/ti/motorware/motorware_1_01_00_15/sw/solutions/instaspin_foc/src/proj_lab02b.c",line
    2485 000002ef 2B00-         MOV       @_Flag_Latch_softwareUpdate,#0 ; [CPU_] |353| 
    2486                      .dwpsn  file "C:/ti/motorware/motorware_1_01_00_15/sw/solutions/instaspin_foc/src/proj_lab02b.c",line
    2487              $C$DW$227       .dwtag  DW_TAG_TI_branch
    2488                      .dwattr $C$DW$227, DW_AT_low_pc(0x00)
    2489                      .dwattr $C$DW$227, DW_AT_name("_USER_calcPIgains")
    2490                      .dwattr $C$DW$227, DW_AT_TI_call
    2491 000002f0 7640!         LCR       #_USER_calcPIgains    ; [CPU_] |355| 
         000002f1 0000 
    2492                      ; call occurs [#_USER_calcPIgains] ; [] |355| 
    2493 000002f2 6F0C          B         $C$L24,UNC            ; [CPU_] |355| 
TMS320C2000 Assembler PC v6.4.9 Wed Dec 02 17:22:56 2015

Tools Copyright (c) 1996-2015 Texas Instruments Incorporated
C:\Users\ywcheng\AppData\Local\Temp\5808410                          PAGE   51

    2494                      ; branch occurs ; [] |355| 
    2495 000002f3       $C$L23:    
    2496 000002f3 761F-         MOVW      DP,#_Flag_Latch_softwareUpdate ; [CPU_U] 
         000002f4 0000 
    2497                      .dwpsn  file "C:/ti/motorware/motorware_1_01_00_15/sw/solutions/instaspin_foc/src/proj_lab02b.c",line
    2498 000002f5 D018          MOVB      XAR0,#24              ; [CPU_] |364| 
    2499                      .dwpsn  file "C:/ti/motorware/motorware_1_01_00_15/sw/solutions/instaspin_foc/src/proj_lab02b.c",line
    2500 000002f6 56BF-         MOVB      @_Flag_Latch_softwareUpdate,#1,UNC ; [CPU_] |361| 
         000002f7 0100 
    2501                      .dwpsn  file "C:/ti/motorware/motorware_1_01_00_15/sw/solutions/instaspin_foc/src/proj_lab02b.c",line
    2502 000002f8 8A92          MOVL      XAR4,*+XAR2[AR0]      ; [CPU_] |364| 
    2503              $C$DW$228       .dwtag  DW_TAG_TI_branch
    2504                      .dwattr $C$DW$228, DW_AT_low_pc(0x00)
    2505                      .dwattr $C$DW$228, DW_AT_name("_EST_getMaxCurrentSlope_pu")
    2506                      .dwattr $C$DW$228, DW_AT_TI_call
    2507 000002f9 7640!         LCR       #_EST_getMaxCurrentSlope_pu ; [CPU_] |364| 
         000002fa 0000 
    2508                      ; call occurs [#_EST_getMaxCurrentSlope_pu] ; [] |364| 
    2509 000002fb 761F-         MOVW      DP,#_gMaxCurrentSlope ; [CPU_U] 
         000002fc 0000 
    2510 000002fd 1E04-         MOVL      @_gMaxCurrentSlope,ACC ; [CPU_] |364| 
    2511 000002fe       $C$L24:    
    2512 000002fe 761F-         MOVW      DP,#_ctrlHandle       ; [CPU_U] 
         000002ff 0000 
    2513 00000300 8A06-         MOVL      XAR4,@_ctrlHandle     ; [CPU_] |364| 
    2514 00000301       $C$L25:    
    2515                      .dwpsn  file "C:/ti/motorware/motorware_1_01_00_15/sw/solutions/instaspin_foc/src/proj_lab02b.c",line
    2516 00000301 9202-         MOV       AL,@_gCounter_updateGlobals ; [CPU_] |369| 
    2517 00000302 EC07          BF        $C$L26,EQ             ; [CPU_] |369| 
    2518                      ; branchcc occurs ; [] |369| 
    2519                      .dwpsn  file "C:/ti/motorware/motorware_1_01_00_15/sw/solutions/instaspin_foc/src/proj_lab02b.c",line
    2520 00000303 2B02-         MOV       @_gCounter_updateGlobals,#0 ; [CPU_] |372| 
    2521                      .dwpsn  file "C:/ti/motorware/motorware_1_01_00_15/sw/solutions/instaspin_foc/src/proj_lab02b.c",line
    2522              $C$DW$229       .dwtag  DW_TAG_TI_branch
    2523                      .dwattr $C$DW$229, DW_AT_low_pc(0x00)
    2524                      .dwattr $C$DW$229, DW_AT_name("_updateGlobalVariables_motor")
    2525                      .dwattr $C$DW$229, DW_AT_TI_call
    2526 00000304 7640'         LCR       #_updateGlobalVariables_motor ; [CPU_] |374| 
         00000305 0000 
    2527                      ; call occurs [#_updateGlobalVariables_motor] ; [] |374| 
    2528 00000306 761F-         MOVW      DP,#_ctrlHandle       ; [CPU_U] 
         00000307 0000 
    2529 00000308 8A06-         MOVL      XAR4,@_ctrlHandle     ; [CPU_] |374| 
    2530 00000309       $C$L26:    
    2531                      .dwpsn  file "C:/ti/motorware/motorware_1_01_00_15/sw/solutions/instaspin_foc/src/proj_lab02b.c",line
    2532              $C$DW$230       .dwtag  DW_TAG_TI_branch
    2533                      .dwattr $C$DW$230, DW_AT_low_pc(0x00)
    2534                      .dwattr $C$DW$230, DW_AT_name("_recalcKpKi")
    2535                      .dwattr $C$DW$230, DW_AT_TI_call
    2536 00000309 7640'         LCR       #_recalcKpKi          ; [CPU_] |378| 
         0000030a 0084 
    2537                      ; call occurs [#_recalcKpKi] ; [] |378| 
    2538 0000030b 761F-         MOVW      DP,#_ctrlHandle       ; [CPU_U] 
         0000030c 0000 
    2539                      .dwpsn  file "C:/ti/motorware/motorware_1_01_00_15/sw/solutions/instaspin_foc/src/proj_lab02b.c",line
TMS320C2000 Assembler PC v6.4.9 Wed Dec 02 17:22:56 2015

Tools Copyright (c) 1996-2015 Texas Instruments Incorporated
C:\Users\ywcheng\AppData\Local\Temp\5808410                          PAGE   52

    2540 0000030d 8A06-         MOVL      XAR4,@_ctrlHandle     ; [CPU_] |380| 
    2541 0000030e D084          MOVB      XAR0,#132             ; [CPU_] |380| 
    2542 0000030f 9294          MOV       AL,*+XAR4[AR0]        ; [CPU_] |380| 
    2543 00000310 5201          CMPB      AL,#1                 ; [CPU_] |380| 
    2544 00000311 EC08          BF        $C$L27,EQ             ; [CPU_] |380| 
    2545                      ; branchcc occurs ; [] |380| 
    2546                      .dwpsn  file "C:/ti/motorware/motorware_1_01_00_15/sw/solutions/instaspin_foc/src/proj_lab02b.c",line
    2547              $C$DW$231       .dwtag  DW_TAG_TI_branch
    2548                      .dwattr $C$DW$231, DW_AT_low_pc(0x00)
    2549                      .dwattr $C$DW$231, DW_AT_name("_setFeLimitZero")
    2550                      .dwattr $C$DW$231, DW_AT_TI_call
    2551 00000312 7640'         LCR       #_setFeLimitZero      ; [CPU_] |383| 
         00000313 005E 
    2552                      ; call occurs [#_setFeLimitZero] ; [] |383| 
    2553 00000314 761F-         MOVW      DP,#_ctrlHandle       ; [CPU_U] 
         00000315 0000 
    2554                      .dwpsn  file "C:/ti/motorware/motorware_1_01_00_15/sw/solutions/instaspin_foc/src/proj_lab02b.c",line
    2555 00000316 8A06-         MOVL      XAR4,@_ctrlHandle     ; [CPU_] |386| 
    2556              $C$DW$232       .dwtag  DW_TAG_TI_branch
    2557                      .dwattr $C$DW$232, DW_AT_low_pc(0x00)
    2558                      .dwattr $C$DW$232, DW_AT_name("_acim_Dir_qFmtCalc")
    2559                      .dwattr $C$DW$232, DW_AT_TI_call
    2560 00000317 7640'         LCR       #_acim_Dir_qFmtCalc   ; [CPU_] |386| 
         00000318 00FC 
    2561                      ; call occurs [#_acim_Dir_qFmtCalc] ; [] |386| 
    2562 00000319       $C$L27:    
    2563                      .dwpsn  file "C:/ti/motorware/motorware_1_01_00_15/sw/solutions/instaspin_foc/src/proj_lab02b.c",line
    2564 00000319 D018          MOVB      XAR0,#24              ; [CPU_] |390| 
    2565 0000031a 8DC0-         MOVL      XAR3,#_gMotorVars     ; [CPU_U] |390| 
         0000031b 0040 
    2566 0000031c 8A92          MOVL      XAR4,*+XAR2[AR0]      ; [CPU_] |390| 
    2567 0000031d 92DB          MOV       AL,*+XAR3[3]          ; [CPU_] |390| 
    2568              $C$DW$233       .dwtag  DW_TAG_TI_branch
    2569                      .dwattr $C$DW$233, DW_AT_low_pc(0x00)
    2570                      .dwattr $C$DW$233, DW_AT_name("_EST_setFlag_enableForceAngle")
    2571                      .dwattr $C$DW$233, DW_AT_TI_call
    2572 0000031e 7640!         LCR       #_EST_setFlag_enableForceAngle ; [CPU_] |390| 
         0000031f 0000 
    2573                      ; call occurs [#_EST_setFlag_enableForceAngle] ; [] |390| 
    2574 00000320 761F-         MOVW      DP,#_ctrlHandle       ; [CPU_U] 
         00000321 0000 
    2575                      .dwpsn  file "C:/ti/motorware/motorware_1_01_00_15/sw/solutions/instaspin_foc/src/proj_lab02b.c",line
    2576 00000322 8606-         MOVL      XAR2,@_ctrlHandle     ; [CPU_] |393| 
    2577 00000323 D008          MOVB      XAR0,#8               ; [CPU_] |393| 
    2578 00000324 9293          MOV       AL,*+XAR3[AR0]        ; [CPU_] |393| 
    2579                      .dwpsn  file "C:/ti/motorware/motorware_1_01_00_15/sw/modules/ctrl/src/32b/ctrl.h",line 1262,column 3
    2580 00000325 D0F2          MOVB      XAR0,#242             ; [CPU_] |1262| 
    2581 00000326 9692          MOV       *+XAR2[AR0],AL        ; [CPU_] |1262| 
    2582 00000327       $C$L28:    
    2583                      .dwpsn  file "C:/ti/motorware/motorware_1_01_00_15/sw/solutions/instaspin_foc/src/proj_lab02b.c",line
    2584 00000327 8DC0-         MOVL      XAR3,#_gMotorVars     ; [CPU_U] |262| 
         00000328 0040 
    2585 00000329 92C3          MOV       AL,*+XAR3[0]          ; [CPU_] |262| 
    2586 0000032a 56C0          BF        $C$L10,NEQ            ; [CPU_] |262| 
         0000032b FE9D 
TMS320C2000 Assembler PC v6.4.9 Wed Dec 02 17:22:56 2015

Tools Copyright (c) 1996-2015 Texas Instruments Incorporated
C:\Users\ywcheng\AppData\Local\Temp\5808410                          PAGE   53

    2587                      ; branchcc occurs ; [] |262| 
    2588 0000032c 761F-         MOVW      DP,#_halHandle        ; [CPU_U] 
         0000032d 0000 
    2589                      .dwpsn  file "C:/ti/motorware/motorware_1_01_00_15/sw/modules/hal/boards/hvkit_rev1p1/f28x/f2802x/src
    2590 0000032e 8300-         MOVL      XAR5,@_halHandle      ; [CPU_] |231| 
    2591 0000032f 8AA5          MOVL      XAR4,XAR5             ; [CPU_] |231| 
    2592 00000330 DC7E          ADDB      XAR4,#126             ; [CPU_] |231| 
    2593 00000331 7622   EALLOW
    2594                      .dwpsn  file "C:/ti/motorware/motorware_1_01_00_15/sw/drivers/pwm/src/32b/f28x/f2802x/pwm.h",line 156
    2595 00000332 D07C          MOVB      XAR0,#124             ; [CPU_] |1567| 
    2596 00000333 0218          MOVB      ACC,#24               ; [CPU_] |1567| 
    2597 00000334 0795          ADDL      ACC,*+XAR5[AR0]       ; [CPU_] |1567| 
    2598 00000335 83A9          MOVL      XAR5,ACC              ; [CPU_] |1567| 
    2599 00000336 1AC5          OR        *+XAR5[0],#0x0004     ; [CPU_] |1567| 
         00000337 0004 
    2600 00000338 761A   EDIS
    2601 00000339 7622   EALLOW
    2602 0000033a 0218          MOVB      ACC,#24               ; [CPU_] |1567| 
    2603 0000033b 07C4          ADDL      ACC,*+XAR4[0]         ; [CPU_] |1567| 
    2604 0000033c 83A9          MOVL      XAR5,ACC              ; [CPU_] |1567| 
    2605 0000033d 1AC5          OR        *+XAR5[0],#0x0004     ; [CPU_] |1567| 
         0000033e 0004 
    2606 0000033f 761A   EDIS
    2607 00000340 7622   EALLOW
    2608 00000341 0218          MOVB      ACC,#24               ; [CPU_] |1567| 
    2609 00000342 07D4          ADDL      ACC,*+XAR4[2]         ; [CPU_] |1567| 
    2610 00000343 8AA9          MOVL      XAR4,ACC              ; [CPU_] |1567| 
    2611 00000344 1AC4          OR        *+XAR4[0],#0x0004     ; [CPU_] |1567| 
         00000345 0004 
    2612 00000346 761A   EDIS
    2613 00000347 FF69          SPM       #0                    ; [CPU_] 
    2614                      .dwpsn  file "C:/ti/motorware/motorware_1_01_00_15/sw/solutions/instaspin_foc/src/proj_lab02b.c",line
    2615 00000348 8AA2          MOVL      XAR4,XAR2             ; [CPU_] |412| 
    2616 00000349 83A1          MOVL      XAR5,XAR1             ; [CPU_] |412| 
    2617              $C$DW$234       .dwtag  DW_TAG_TI_branch
    2618                      .dwattr $C$DW$234, DW_AT_low_pc(0x00)
    2619                      .dwattr $C$DW$234, DW_AT_name("_CTRL_setParams")
    2620                      .dwattr $C$DW$234, DW_AT_TI_call
    2621 0000034a 7640!         LCR       #_CTRL_setParams      ; [CPU_] |412| 
         0000034b 0000 
    2622                      ; call occurs [#_CTRL_setParams] ; [] |412| 
    2623 0000034c 761F-         MOVW      DP,#_gMotorVars+1     ; [CPU_U] 
         0000034d 0001 
    2624                      .dwpsn  file "C:/ti/motorware/motorware_1_01_00_15/sw/solutions/instaspin_foc/src/proj_lab02b.c",line
    2625 0000034e 2B01-         MOV       @_gMotorVars+1,#0     ; [CPU_] |413| 
    2626 0000034f 761F-         MOVW      DP,#_ctrlHandle       ; [CPU_U] 
         00000350 0000 
    2627                      .dwpsn  file "C:/ti/motorware/motorware_1_01_00_15/sw/solutions/instaspin_foc/src/proj_lab02b.c",line
    2628 00000351 8606-         MOVL      XAR2,@_ctrlHandle     ; [CPU_] |415| 
    2629 00000352 FFEF          B         $C$L9,UNC             ; [CPU_] |415| 
         00000353 FE6F 
    2630                      ; branch occurs ; [] |415| 
    2631 00000354       $C$L29:    
    2632 00000354 761F-         MOVW      DP,#_gMotorVars       ; [CPU_U] 
         00000355 0001 
TMS320C2000 Assembler PC v6.4.9 Wed Dec 02 17:22:56 2015

Tools Copyright (c) 1996-2015 Texas Instruments Incorporated
C:\Users\ywcheng\AppData\Local\Temp\5808410                          PAGE   54

    2633                      .dwpsn  file "C:/ti/motorware/motorware_1_01_00_15/sw/solutions/instaspin_foc/src/proj_lab02b.c",line
    2634 00000356 2B00-         MOV       @_gMotorVars,#0       ; [CPU_] |177| 
    2635                      .dwpsn  file "C:/ti/motorware/motorware_1_01_00_15/sw/solutions/instaspin_foc/src/proj_lab02b.c",line
    2636 00000357 6FFD          B         $C$L29,UNC            ; [CPU_] |178| 
    2637                      ; branch occurs ; [] |178| 
    2638                      .dwattr $C$DW$186, DW_AT_TI_end_file("C:/ti/motorware/motorware_1_01_00_15/sw/solutions/instaspin_foc
    2639                      .dwattr $C$DW$186, DW_AT_TI_end_line(0x1a1)
    2640                      .dwattr $C$DW$186, DW_AT_TI_end_column(0x01)
    2641                      .dwendentry
    2642                      .dwendtag $C$DW$186
    2643              
    2644              ;***************************************************************
    2645              ;* FLOATING-POINT CONSTANTS                                    *
    2646              ;***************************************************************
    2647 00000000               .sect   ".econst"
    2648                      .align  2
    2649 00000000 0000  $C$FL1: .xldouble       $strtod("0x1p+24")
         00000001 0000 
         00000002 0000 
         00000003 4170 
    2650              ;**************************************************************
    2651              ;* UNDEFINED EXTERNAL REFERENCES                              *
    2652              ;**************************************************************
    2653                      .global _CTRL_setSpd_ref_krpm
    2654                      .global _CTRL_setParams
    2655                      .global _HAL_enableAdcInts
    2656                      .global _CTRL_setup
    2657                      .global _CTRL_run
    2658                      .global _USER_calcPIgains
    2659                      .global _CTRL_getVersion
    2660                      .global _USER_softwareUpdate1p6
    2661                      .global _HAL_setupFaults
    2662                      .global _HAL_enableGlobalInts
    2663                      .global _HAL_setParams
    2664                      .global _GPIO_toggle
    2665                      .global _EST_setMaxCurrentSlope_pu
    2666                      .global _EST_setDir_qFmt
    2667                      .global _memCopy
    2668                      .global _EST_setFe_pos_min_pu
    2669                      .global _EST_setFlag_enableForceAngle
    2670                      .global _USER_checkForErrors
    2671                      .global _HAL_enableDebugInt
    2672                      .global _USER_setParams
    2673                      .global _EST_setFe_neg_max_pu
    2674                      .global _USER_getErrorCode
    2675                      .global _EST_computeDirection_qFmt
    2676                      .global _EST_getState
    2677                      .global _EST_isMotorIdentified
    2678                      .global _CTRL_updateState
    2679                      .global _EST_get_pu_to_krpm_sf
    2680                      .global _econst_start
    2681                      .global _switch_end
    2682                      .global _econst_end
    2683                      .global _switch_start
    2684                      .global _RamfuncsLoadEnd
TMS320C2000 Assembler PC v6.4.9 Wed Dec 02 17:22:56 2015

Tools Copyright (c) 1996-2015 Texas Instruments Incorporated
C:\Users\ywcheng\AppData\Local\Temp\5808410                          PAGE   55

    2685                      .global _RamfuncsLoadStart
    2686                      .global _switch_ram_load
    2687                      .global _RamfuncsRunStart
    2688                      .global _HAL_init
    2689                      .global _CTRL_initCtrl
    2690                      .global _EST_getSpeed_krpm
    2691                      .global _EST_getLs_q_H
    2692                      .global _EST_getLs_d_H
    2693                      .global _EST_getRr_Ohm
    2694                      .global _EST_getFlux_VpHz
    2695                      .global _econst_ram_load
    2696                      .global _EST_getMaxCurrentSlope_pu
    2697                      .global _EST_getRs_Ohm
    2698                      .global _EST_getIdRated
    2699                      .global _hal
    2700                      .global FD$$MPY
    2701                      .global FS$$TOFD
    2702                      .global FS$$MPY
    2703                      .global FS$$DIV
    2704                      .global FD$$TOL
    2705              
    2706              ;***************************************************************
    2707              ;* TYPE INFORMATION                                            *
    2708              ;***************************************************************
    2709              
    2710              $C$DW$T$38      .dwtag  DW_TAG_enumeration_type
    2711                      .dwattr $C$DW$T$38, DW_AT_byte_size(0x01)
    2712              $C$DW$235       .dwtag  DW_TAG_enumerator, DW_AT_name("CTRL_State_Error"), DW_AT_const_value(0x00)
    2713              $C$DW$236       .dwtag  DW_TAG_enumerator, DW_AT_name("CTRL_State_Idle"), DW_AT_const_value(0x01)
    2714              $C$DW$237       .dwtag  DW_TAG_enumerator, DW_AT_name("CTRL_State_OffLine"), DW_AT_const_value(0x02)
    2715              $C$DW$238       .dwtag  DW_TAG_enumerator, DW_AT_name("CTRL_State_OnLine"), DW_AT_const_value(0x03)
    2716              $C$DW$239       .dwtag  DW_TAG_enumerator, DW_AT_name("CTRL_numStates"), DW_AT_const_value(0x04)
    2717                      .dwendtag $C$DW$T$38
    2718              
    2719              $C$DW$T$39      .dwtag  DW_TAG_typedef, DW_AT_name("CTRL_State_e")
    2720                      .dwattr $C$DW$T$39, DW_AT_type(*$C$DW$T$38)
    2721                      .dwattr $C$DW$T$39, DW_AT_language(DW_LANG_C)
    2722              
    2723              $C$DW$T$40      .dwtag  DW_TAG_enumeration_type
    2724                      .dwattr $C$DW$T$40, DW_AT_byte_size(0x01)
    2725              $C$DW$240       .dwtag  DW_TAG_enumerator, DW_AT_name("CTRL_ErrorCode_NoError"), DW_AT_const_value(0x00)
    2726              $C$DW$241       .dwtag  DW_TAG_enumerator, DW_AT_name("CTRL_ErrorCode_IdClip"), DW_AT_const_value(0x01)
    2727              $C$DW$242       .dwtag  DW_TAG_enumerator, DW_AT_name("CTRL_ErrorCode_EstError"), DW_AT_const_value(0x02)
    2728              $C$DW$243       .dwtag  DW_TAG_enumerator, DW_AT_name("CTRL_numErrorCodes"), DW_AT_const_value(0x03)
    2729                      .dwendtag $C$DW$T$40
    2730              
    2731              $C$DW$T$41      .dwtag  DW_TAG_typedef, DW_AT_name("CTRL_ErrorCode_e")
    2732                      .dwattr $C$DW$T$41, DW_AT_type(*$C$DW$T$40)
    2733                      .dwattr $C$DW$T$41, DW_AT_language(DW_LANG_C)
    2734              
    2735              $C$DW$T$71      .dwtag  DW_TAG_enumeration_type
    2736                      .dwattr $C$DW$T$71, DW_AT_byte_size(0x01)
    2737              $C$DW$244       .dwtag  DW_TAG_enumerator, DW_AT_name("CTRL_TargetProc_2806x"), DW_AT_const_value(0x00)
    2738              $C$DW$245       .dwtag  DW_TAG_enumerator, DW_AT_name("CTRL_TargetProc_2805x"), DW_AT_const_value(0x01)
    2739              $C$DW$246       .dwtag  DW_TAG_enumerator, DW_AT_name("CTRL_TargetProc_2803x"), DW_AT_const_value(0x02)
TMS320C2000 Assembler PC v6.4.9 Wed Dec 02 17:22:56 2015

Tools Copyright (c) 1996-2015 Texas Instruments Incorporated
C:\Users\ywcheng\AppData\Local\Temp\5808410                          PAGE   56

    2740              $C$DW$247       .dwtag  DW_TAG_enumerator, DW_AT_name("CTRL_TargetProc_2802x"), DW_AT_const_value(0x03)
    2741              $C$DW$248       .dwtag  DW_TAG_enumerator, DW_AT_name("CTRL_TargetProc_Unknown"), DW_AT_const_value(0x04)
    2742                      .dwendtag $C$DW$T$71
    2743              
    2744              $C$DW$T$72      .dwtag  DW_TAG_typedef, DW_AT_name("CTRL_TargetProc_e")
    2745                      .dwattr $C$DW$T$72, DW_AT_type(*$C$DW$T$71)
    2746                      .dwattr $C$DW$T$72, DW_AT_language(DW_LANG_C)
    2747              
    2748              $C$DW$T$121     .dwtag  DW_TAG_enumeration_type
    2749                      .dwattr $C$DW$T$121, DW_AT_byte_size(0x01)
    2750              $C$DW$249       .dwtag  DW_TAG_enumerator, DW_AT_name("MOTOR_Type_Induction"), DW_AT_const_value(0x00)
    2751              $C$DW$250       .dwtag  DW_TAG_enumerator, DW_AT_name("MOTOR_Type_Pm"), DW_AT_const_value(0x01)
    2752                      .dwendtag $C$DW$T$121
    2753              
    2754              $C$DW$T$122     .dwtag  DW_TAG_typedef, DW_AT_name("MOTOR_Type_e")
    2755                      .dwattr $C$DW$T$122, DW_AT_type(*$C$DW$T$121)
    2756                      .dwattr $C$DW$T$122, DW_AT_language(DW_LANG_C)
    2757              
    2758              $C$DW$T$124     .dwtag  DW_TAG_enumeration_type
    2759                      .dwattr $C$DW$T$124, DW_AT_byte_size(0x01)
    2760              $C$DW$251       .dwtag  DW_TAG_enumerator, DW_AT_name("EST_State_Error"), DW_AT_const_value(0x00)
    2761              $C$DW$252       .dwtag  DW_TAG_enumerator, DW_AT_name("EST_State_Idle"), DW_AT_const_value(0x01)
    2762              $C$DW$253       .dwtag  DW_TAG_enumerator, DW_AT_name("EST_State_RoverL"), DW_AT_const_value(0x02)
    2763              $C$DW$254       .dwtag  DW_TAG_enumerator, DW_AT_name("EST_State_Rs"), DW_AT_const_value(0x03)
    2764              $C$DW$255       .dwtag  DW_TAG_enumerator, DW_AT_name("EST_State_RampUp"), DW_AT_const_value(0x04)
    2765              $C$DW$256       .dwtag  DW_TAG_enumerator, DW_AT_name("EST_State_IdRated"), DW_AT_const_value(0x05)
    2766              $C$DW$257       .dwtag  DW_TAG_enumerator, DW_AT_name("EST_State_RatedFlux_OL"), DW_AT_const_value(0x06)
    2767              $C$DW$258       .dwtag  DW_TAG_enumerator, DW_AT_name("EST_State_RatedFlux"), DW_AT_const_value(0x07)
    2768              $C$DW$259       .dwtag  DW_TAG_enumerator, DW_AT_name("EST_State_RampDown"), DW_AT_const_value(0x08)
    2769              $C$DW$260       .dwtag  DW_TAG_enumerator, DW_AT_name("EST_State_LockRotor"), DW_AT_const_value(0x09)
    2770              $C$DW$261       .dwtag  DW_TAG_enumerator, DW_AT_name("EST_State_Ls"), DW_AT_const_value(0x0a)
    2771              $C$DW$262       .dwtag  DW_TAG_enumerator, DW_AT_name("EST_State_Rr"), DW_AT_const_value(0x0b)
    2772              $C$DW$263       .dwtag  DW_TAG_enumerator, DW_AT_name("EST_State_MotorIdentified"), DW_AT_const_value(0x0c)
    2773              $C$DW$264       .dwtag  DW_TAG_enumerator, DW_AT_name("EST_State_OnLine"), DW_AT_const_value(0x0d)
    2774              $C$DW$265       .dwtag  DW_TAG_enumerator, DW_AT_name("EST_numStates"), DW_AT_const_value(0x0e)
    2775                      .dwendtag $C$DW$T$124
    2776              
    2777              $C$DW$T$125     .dwtag  DW_TAG_typedef, DW_AT_name("EST_State_e")
    2778                      .dwattr $C$DW$T$125, DW_AT_type(*$C$DW$T$124)
    2779                      .dwattr $C$DW$T$125, DW_AT_language(DW_LANG_C)
    2780              
    2781              $C$DW$T$126     .dwtag  DW_TAG_enumeration_type
    2782                      .dwattr $C$DW$T$126, DW_AT_byte_size(0x01)
    2783              $C$DW$266       .dwtag  DW_TAG_enumerator, DW_AT_name("USER_ErrorCode_NoError"), DW_AT_const_value(0x00)
    2784              $C$DW$267       .dwtag  DW_TAG_enumerator, DW_AT_name("USER_ErrorCode_iqFullScaleCurrent_A_High"), DW_AT_cons
    2785              $C$DW$268       .dwtag  DW_TAG_enumerator, DW_AT_name("USER_ErrorCode_iqFullScaleCurrent_A_Low"), DW_AT_const
    2786              $C$DW$269       .dwtag  DW_TAG_enumerator, DW_AT_name("USER_ErrorCode_iqFullScaleVoltage_V_High"), DW_AT_cons
    2787              $C$DW$270       .dwtag  DW_TAG_enumerator, DW_AT_name("USER_ErrorCode_iqFullScaleVoltage_V_Low"), DW_AT_const
    2788              $C$DW$271       .dwtag  DW_TAG_enumerator, DW_AT_name("USER_ErrorCode_iqFullScaleFreq_Hz_High"), DW_AT_const_
    2789              $C$DW$272       .dwtag  DW_TAG_enumerator, DW_AT_name("USER_ErrorCode_iqFullScaleFreq_Hz_Low"), DW_AT_const_v
    2790              $C$DW$273       .dwtag  DW_TAG_enumerator, DW_AT_name("USER_ErrorCode_numPwmTicksPerIsrTick_High"), DW_AT_con
    2791              $C$DW$274       .dwtag  DW_TAG_enumerator, DW_AT_name("USER_ErrorCode_numPwmTicksPerIsrTick_Low"), DW_AT_cons
    2792              $C$DW$275       .dwtag  DW_TAG_enumerator, DW_AT_name("USER_ErrorCode_numIsrTicksPerCtrlTick_High"), DW_AT_co
    2793              $C$DW$276       .dwtag  DW_TAG_enumerator, DW_AT_name("USER_ErrorCode_numIsrTicksPerCtrlTick_Low"), DW_AT_con
    2794              $C$DW$277       .dwtag  DW_TAG_enumerator, DW_AT_name("USER_ErrorCode_numCtrlTicksPerCurrentTick_High"), DW_A
TMS320C2000 Assembler PC v6.4.9 Wed Dec 02 17:22:56 2015

Tools Copyright (c) 1996-2015 Texas Instruments Incorporated
C:\Users\ywcheng\AppData\Local\Temp\5808410                          PAGE   57

    2795              $C$DW$278       .dwtag  DW_TAG_enumerator, DW_AT_name("USER_ErrorCode_numCtrlTicksPerCurrentTick_Low"), DW_AT
    2796              $C$DW$279       .dwtag  DW_TAG_enumerator, DW_AT_name("USER_ErrorCode_numCtrlTicksPerEstTick_High"), DW_AT_co
    2797              $C$DW$280       .dwtag  DW_TAG_enumerator, DW_AT_name("USER_ErrorCode_numCtrlTicksPerEstTick_Low"), DW_AT_con
    2798              $C$DW$281       .dwtag  DW_TAG_enumerator, DW_AT_name("USER_ErrorCode_numCtrlTicksPerSpeedTick_High"), DW_AT_
    2799              $C$DW$282       .dwtag  DW_TAG_enumerator, DW_AT_name("USER_ErrorCode_numCtrlTicksPerSpeedTick_Low"), DW_AT_c
    2800              $C$DW$283       .dwtag  DW_TAG_enumerator, DW_AT_name("USER_ErrorCode_numCtrlTicksPerTrajTick_High"), DW_AT_c
    2801              $C$DW$284       .dwtag  DW_TAG_enumerator, DW_AT_name("USER_ErrorCode_numCtrlTicksPerTrajTick_Low"), DW_AT_co
    2802              $C$DW$285       .dwtag  DW_TAG_enumerator, DW_AT_name("USER_ErrorCode_numCurrentSensors_High"), DW_AT_const_v
    2803              $C$DW$286       .dwtag  DW_TAG_enumerator, DW_AT_name("USER_ErrorCode_numCurrentSensors_Low"), DW_AT_const_va
    2804              $C$DW$287       .dwtag  DW_TAG_enumerator, DW_AT_name("USER_ErrorCode_numVoltageSensors_High"), DW_AT_const_v
    2805              $C$DW$288       .dwtag  DW_TAG_enumerator, DW_AT_name("USER_ErrorCode_numVoltageSensors_Low"), DW_AT_const_va
    2806              $C$DW$289       .dwtag  DW_TAG_enumerator, DW_AT_name("USER_ErrorCode_offsetPole_rps_High"), DW_AT_const_valu
    2807              $C$DW$290       .dwtag  DW_TAG_enumerator, DW_AT_name("USER_ErrorCode_offsetPole_rps_Low"), DW_AT_const_value
    2808              $C$DW$291       .dwtag  DW_TAG_enumerator, DW_AT_name("USER_ErrorCode_fluxPole_rps_High"), DW_AT_const_value(
    2809              $C$DW$292       .dwtag  DW_TAG_enumerator, DW_AT_name("USER_ErrorCode_fluxPole_rps_Low"), DW_AT_const_value(0
    2810              $C$DW$293       .dwtag  DW_TAG_enumerator, DW_AT_name("USER_ErrorCode_zeroSpeedLimit_High"), DW_AT_const_valu
    2811              $C$DW$294       .dwtag  DW_TAG_enumerator, DW_AT_name("USER_ErrorCode_zeroSpeedLimit_Low"), DW_AT_const_value
    2812              $C$DW$295       .dwtag  DW_TAG_enumerator, DW_AT_name("USER_ErrorCode_forceAngleFreq_Hz_High"), DW_AT_const_v
    2813              $C$DW$296       .dwtag  DW_TAG_enumerator, DW_AT_name("USER_ErrorCode_forceAngleFreq_Hz_Low"), DW_AT_const_va
    2814              $C$DW$297       .dwtag  DW_TAG_enumerator, DW_AT_name("USER_ErrorCode_maxAccel_Hzps_High"), DW_AT_const_value
    2815              $C$DW$298       .dwtag  DW_TAG_enumerator, DW_AT_name("USER_ErrorCode_maxAccel_Hzps_Low"), DW_AT_const_value(
    2816              $C$DW$299       .dwtag  DW_TAG_enumerator, DW_AT_name("USER_ErrorCode_maxAccel_est_Hzps_High"), DW_AT_const_v
    2817              $C$DW$300       .dwtag  DW_TAG_enumerator, DW_AT_name("USER_ErrorCode_maxAccel_est_Hzps_Low"), DW_AT_const_va
    2818              $C$DW$301       .dwtag  DW_TAG_enumerator, DW_AT_name("USER_ErrorCode_directionPole_rps_High"), DW_AT_const_v
    2819              $C$DW$302       .dwtag  DW_TAG_enumerator, DW_AT_name("USER_ErrorCode_directionPole_rps_Low"), DW_AT_const_va
    2820              $C$DW$303       .dwtag  DW_TAG_enumerator, DW_AT_name("USER_ErrorCode_speedPole_rps_High"), DW_AT_const_value
    2821              $C$DW$304       .dwtag  DW_TAG_enumerator, DW_AT_name("USER_ErrorCode_speedPole_rps_Low"), DW_AT_const_value(
    2822              $C$DW$305       .dwtag  DW_TAG_enumerator, DW_AT_name("USER_ErrorCode_dcBusPole_rps_High"), DW_AT_const_value
    2823              $C$DW$306       .dwtag  DW_TAG_enumerator, DW_AT_name("USER_ErrorCode_dcBusPole_rps_Low"), DW_AT_const_value(
    2824              $C$DW$307       .dwtag  DW_TAG_enumerator, DW_AT_name("USER_ErrorCode_fluxFraction_High"), DW_AT_const_value(
    2825              $C$DW$308       .dwtag  DW_TAG_enumerator, DW_AT_name("USER_ErrorCode_fluxFraction_Low"), DW_AT_const_value(0
    2826              $C$DW$309       .dwtag  DW_TAG_enumerator, DW_AT_name("USER_ErrorCode_indEst_speedMaxFraction_High"), DW_AT_c
    2827              $C$DW$310       .dwtag  DW_TAG_enumerator, DW_AT_name("USER_ErrorCode_indEst_speedMaxFraction_Low"), DW_AT_co
    2828              $C$DW$311       .dwtag  DW_TAG_enumerator, DW_AT_name("USER_ErrorCode_powerWarpGain_High"), DW_AT_const_value
    2829              $C$DW$312       .dwtag  DW_TAG_enumerator, DW_AT_name("USER_ErrorCode_powerWarpGain_Low"), DW_AT_const_value(
    2830              $C$DW$313       .dwtag  DW_TAG_enumerator, DW_AT_name("USER_ErrorCode_systemFreq_MHz_High"), DW_AT_const_valu
    2831              $C$DW$314       .dwtag  DW_TAG_enumerator, DW_AT_name("USER_ErrorCode_systemFreq_MHz_Low"), DW_AT_const_value
    2832              $C$DW$315       .dwtag  DW_TAG_enumerator, DW_AT_name("USER_ErrorCode_pwmFreq_kHz_High"), DW_AT_const_value(0
    2833              $C$DW$316       .dwtag  DW_TAG_enumerator, DW_AT_name("USER_ErrorCode_pwmFreq_kHz_Low"), DW_AT_const_value(0x
    2834              $C$DW$317       .dwtag  DW_TAG_enumerator, DW_AT_name("USER_ErrorCode_voltage_sf_High"), DW_AT_const_value(0x
    2835              $C$DW$318       .dwtag  DW_TAG_enumerator, DW_AT_name("USER_ErrorCode_voltage_sf_Low"), DW_AT_const_value(0x3
    2836              $C$DW$319       .dwtag  DW_TAG_enumerator, DW_AT_name("USER_ErrorCode_current_sf_High"), DW_AT_const_value(0x
    2837              $C$DW$320       .dwtag  DW_TAG_enumerator, DW_AT_name("USER_ErrorCode_current_sf_Low"), DW_AT_const_value(0x3
    2838              $C$DW$321       .dwtag  DW_TAG_enumerator, DW_AT_name("USER_ErrorCode_voltageFilterPole_Hz_High"), DW_AT_cons
    2839              $C$DW$322       .dwtag  DW_TAG_enumerator, DW_AT_name("USER_ErrorCode_voltageFilterPole_Hz_Low"), DW_AT_const
    2840              $C$DW$323       .dwtag  DW_TAG_enumerator, DW_AT_name("USER_ErrorCode_maxVsMag_pu_High"), DW_AT_const_value(0
    2841              $C$DW$324       .dwtag  DW_TAG_enumerator, DW_AT_name("USER_ErrorCode_maxVsMag_pu_Low"), DW_AT_const_value(0x
    2842              $C$DW$325       .dwtag  DW_TAG_enumerator, DW_AT_name("USER_ErrorCode_estKappa_High"), DW_AT_const_value(0x3b
    2843              $C$DW$326       .dwtag  DW_TAG_enumerator, DW_AT_name("USER_ErrorCode_estKappa_Low"), DW_AT_const_value(0x3c)
    2844              $C$DW$327       .dwtag  DW_TAG_enumerator, DW_AT_name("USER_ErrorCode_motor_type_Unknown"), DW_AT_const_value
    2845              $C$DW$328       .dwtag  DW_TAG_enumerator, DW_AT_name("USER_ErrorCode_motor_numPolePairs_High"), DW_AT_const_
    2846              $C$DW$329       .dwtag  DW_TAG_enumerator, DW_AT_name("USER_ErrorCode_motor_numPolePairs_Low"), DW_AT_const_v
    2847              $C$DW$330       .dwtag  DW_TAG_enumerator, DW_AT_name("USER_ErrorCode_motor_ratedFlux_High"), DW_AT_const_val
    2848              $C$DW$331       .dwtag  DW_TAG_enumerator, DW_AT_name("USER_ErrorCode_motor_ratedFlux_Low"), DW_AT_const_valu
    2849              $C$DW$332       .dwtag  DW_TAG_enumerator, DW_AT_name("USER_ErrorCode_motor_Rr_High"), DW_AT_const_value(0x42
TMS320C2000 Assembler PC v6.4.9 Wed Dec 02 17:22:56 2015

Tools Copyright (c) 1996-2015 Texas Instruments Incorporated
C:\Users\ywcheng\AppData\Local\Temp\5808410                          PAGE   58

    2850              $C$DW$333       .dwtag  DW_TAG_enumerator, DW_AT_name("USER_ErrorCode_motor_Rr_Low"), DW_AT_const_value(0x43)
    2851              $C$DW$334       .dwtag  DW_TAG_enumerator, DW_AT_name("USER_ErrorCode_motor_Rs_High"), DW_AT_const_value(0x44
    2852              $C$DW$335       .dwtag  DW_TAG_enumerator, DW_AT_name("USER_ErrorCode_motor_Rs_Low"), DW_AT_const_value(0x45)
    2853              $C$DW$336       .dwtag  DW_TAG_enumerator, DW_AT_name("USER_ErrorCode_motor_Ls_d_High"), DW_AT_const_value(0x
    2854              $C$DW$337       .dwtag  DW_TAG_enumerator, DW_AT_name("USER_ErrorCode_motor_Ls_d_Low"), DW_AT_const_value(0x4
    2855              $C$DW$338       .dwtag  DW_TAG_enumerator, DW_AT_name("USER_ErrorCode_motor_Ls_q_High"), DW_AT_const_value(0x
    2856              $C$DW$339       .dwtag  DW_TAG_enumerator, DW_AT_name("USER_ErrorCode_motor_Ls_q_Low"), DW_AT_const_value(0x4
    2857              $C$DW$340       .dwtag  DW_TAG_enumerator, DW_AT_name("USER_ErrorCode_maxCurrent_High"), DW_AT_const_value(0x
    2858              $C$DW$341       .dwtag  DW_TAG_enumerator, DW_AT_name("USER_ErrorCode_maxCurrent_Low"), DW_AT_const_value(0x4
    2859              $C$DW$342       .dwtag  DW_TAG_enumerator, DW_AT_name("USER_ErrorCode_maxCurrent_resEst_High"), DW_AT_const_v
    2860              $C$DW$343       .dwtag  DW_TAG_enumerator, DW_AT_name("USER_ErrorCode_maxCurrent_resEst_Low"), DW_AT_const_va
    2861              $C$DW$344       .dwtag  DW_TAG_enumerator, DW_AT_name("USER_ErrorCode_maxCurrent_indEst_High"), DW_AT_const_v
    2862              $C$DW$345       .dwtag  DW_TAG_enumerator, DW_AT_name("USER_ErrorCode_maxCurrent_indEst_Low"), DW_AT_const_va
    2863              $C$DW$346       .dwtag  DW_TAG_enumerator, DW_AT_name("USER_ErrorCode_maxCurrentSlope_High"), DW_AT_const_val
    2864              $C$DW$347       .dwtag  DW_TAG_enumerator, DW_AT_name("USER_ErrorCode_maxCurrentSlope_Low"), DW_AT_const_valu
    2865              $C$DW$348       .dwtag  DW_TAG_enumerator, DW_AT_name("USER_ErrorCode_maxCurrentSlope_powerWarp_High"), DW_AT
    2866              $C$DW$349       .dwtag  DW_TAG_enumerator, DW_AT_name("USER_ErrorCode_maxCurrentSlope_powerWarp_Low"), DW_AT_
    2867              $C$DW$350       .dwtag  DW_TAG_enumerator, DW_AT_name("USER_ErrorCode_IdRated_High"), DW_AT_const_value(0x54)
    2868              $C$DW$351       .dwtag  DW_TAG_enumerator, DW_AT_name("USER_ErrorCode_IdRated_Low"), DW_AT_const_value(0x55)
    2869              $C$DW$352       .dwtag  DW_TAG_enumerator, DW_AT_name("USER_ErrorCode_IdRatedFraction_indEst_High"), DW_AT_co
    2870              $C$DW$353       .dwtag  DW_TAG_enumerator, DW_AT_name("USER_ErrorCode_IdRatedFraction_indEst_Low"), DW_AT_con
    2871              $C$DW$354       .dwtag  DW_TAG_enumerator, DW_AT_name("USER_ErrorCode_IdRatedFraction_ratedFlux_High"), DW_AT
    2872              $C$DW$355       .dwtag  DW_TAG_enumerator, DW_AT_name("USER_ErrorCode_IdRatedFraction_ratedFlux_Low"), DW_AT_
    2873              $C$DW$356       .dwtag  DW_TAG_enumerator, DW_AT_name("USER_ErrorCode_IdRated_delta_High"), DW_AT_const_value
    2874              $C$DW$357       .dwtag  DW_TAG_enumerator, DW_AT_name("USER_ErrorCode_IdRated_delta_Low"), DW_AT_const_value(
    2875              $C$DW$358       .dwtag  DW_TAG_enumerator, DW_AT_name("USER_ErrorCode_fluxEstFreq_Hz_High"), DW_AT_const_valu
    2876              $C$DW$359       .dwtag  DW_TAG_enumerator, DW_AT_name("USER_ErrorCode_fluxEstFreq_Hz_Low"), DW_AT_const_value
    2877              $C$DW$360       .dwtag  DW_TAG_enumerator, DW_AT_name("USER_ErrorCode_ctrlFreq_Hz_High"), DW_AT_const_value(0
    2878              $C$DW$361       .dwtag  DW_TAG_enumerator, DW_AT_name("USER_ErrorCode_ctrlFreq_Hz_Low"), DW_AT_const_value(0x
    2879              $C$DW$362       .dwtag  DW_TAG_enumerator, DW_AT_name("USER_ErrorCode_estFreq_Hz_High"), DW_AT_const_value(0x
    2880              $C$DW$363       .dwtag  DW_TAG_enumerator, DW_AT_name("USER_ErrorCode_estFreq_Hz_Low"), DW_AT_const_value(0x6
    2881              $C$DW$364       .dwtag  DW_TAG_enumerator, DW_AT_name("USER_ErrorCode_RoverL_estFreq_Hz_High"), DW_AT_const_v
    2882              $C$DW$365       .dwtag  DW_TAG_enumerator, DW_AT_name("USER_ErrorCode_RoverL_estFreq_Hz_Low"), DW_AT_const_va
    2883              $C$DW$366       .dwtag  DW_TAG_enumerator, DW_AT_name("USER_ErrorCode_trajFreq_Hz_High"), DW_AT_const_value(0
    2884              $C$DW$367       .dwtag  DW_TAG_enumerator, DW_AT_name("USER_ErrorCode_trajFreq_Hz_Low"), DW_AT_const_value(0x
    2885              $C$DW$368       .dwtag  DW_TAG_enumerator, DW_AT_name("USER_ErrorCode_ctrlPeriod_sec_High"), DW_AT_const_valu
    2886              $C$DW$369       .dwtag  DW_TAG_enumerator, DW_AT_name("USER_ErrorCode_ctrlPeriod_sec_Low"), DW_AT_const_value
    2887              $C$DW$370       .dwtag  DW_TAG_enumerator, DW_AT_name("USER_ErrorCode_maxNegativeIdCurrent_a_High"), DW_AT_co
    2888              $C$DW$371       .dwtag  DW_TAG_enumerator, DW_AT_name("USER_ErrorCode_maxNegativeIdCurrent_a_Low"), DW_AT_con
    2889              $C$DW$372       .dwtag  DW_TAG_enumerator, DW_AT_name("USER_numErrorCodes"), DW_AT_const_value(0x6a)
    2890                      .dwendtag $C$DW$T$126
    2891              
    2892              $C$DW$T$127     .dwtag  DW_TAG_typedef, DW_AT_name("USER_ErrorCode_e")
    2893                      .dwattr $C$DW$T$127, DW_AT_type(*$C$DW$T$126)
    2894                      .dwattr $C$DW$T$127, DW_AT_language(DW_LANG_C)
    2895              
    2896              $C$DW$T$171     .dwtag  DW_TAG_enumeration_type
    2897                      .dwattr $C$DW$T$171, DW_AT_byte_size(0x01)
    2898              $C$DW$373       .dwtag  DW_TAG_enumerator, DW_AT_name("ADC_IntNumber_1"), DW_AT_const_value(0x00)
    2899              $C$DW$374       .dwtag  DW_TAG_enumerator, DW_AT_name("ADC_IntNumber_2"), DW_AT_const_value(0x01)
    2900              $C$DW$375       .dwtag  DW_TAG_enumerator, DW_AT_name("ADC_IntNumber_3"), DW_AT_const_value(0x02)
    2901              $C$DW$376       .dwtag  DW_TAG_enumerator, DW_AT_name("ADC_IntNumber_4"), DW_AT_const_value(0x03)
    2902              $C$DW$377       .dwtag  DW_TAG_enumerator, DW_AT_name("ADC_IntNumber_5"), DW_AT_const_value(0x04)
    2903              $C$DW$378       .dwtag  DW_TAG_enumerator, DW_AT_name("ADC_IntNumber_6"), DW_AT_const_value(0x05)
    2904              $C$DW$379       .dwtag  DW_TAG_enumerator, DW_AT_name("ADC_IntNumber_7"), DW_AT_const_value(0x06)
TMS320C2000 Assembler PC v6.4.9 Wed Dec 02 17:22:56 2015

Tools Copyright (c) 1996-2015 Texas Instruments Incorporated
C:\Users\ywcheng\AppData\Local\Temp\5808410                          PAGE   59

    2905              $C$DW$380       .dwtag  DW_TAG_enumerator, DW_AT_name("ADC_IntNumber_8"), DW_AT_const_value(0x07)
    2906              $C$DW$381       .dwtag  DW_TAG_enumerator, DW_AT_name("ADC_IntNumber_9"), DW_AT_const_value(0x08)
    2907              $C$DW$382       .dwtag  DW_TAG_enumerator, DW_AT_name("ADC_IntNumber_1HP"), DW_AT_const_value(0x09)
    2908              $C$DW$383       .dwtag  DW_TAG_enumerator, DW_AT_name("ADC_IntNumber_2HP"), DW_AT_const_value(0x0a)
    2909              $C$DW$384       .dwtag  DW_TAG_enumerator, DW_AT_name("ADC_IntNumber_9HP"), DW_AT_const_value(0x0e)
    2910                      .dwendtag $C$DW$T$171
    2911              
    2912              $C$DW$T$172     .dwtag  DW_TAG_typedef, DW_AT_name("ADC_IntNumber_e")
    2913                      .dwattr $C$DW$T$172, DW_AT_type(*$C$DW$T$171)
    2914                      .dwattr $C$DW$T$172, DW_AT_language(DW_LANG_C)
    2915              
    2916              $C$DW$T$174     .dwtag  DW_TAG_enumeration_type
    2917                      .dwattr $C$DW$T$174, DW_AT_byte_size(0x01)
    2918              $C$DW$385       .dwtag  DW_TAG_enumerator, DW_AT_name("ADC_ResultNumber_0"), DW_AT_const_value(0x00)
    2919              $C$DW$386       .dwtag  DW_TAG_enumerator, DW_AT_name("ADC_ResultNumber_1"), DW_AT_const_value(0x01)
    2920              $C$DW$387       .dwtag  DW_TAG_enumerator, DW_AT_name("ADC_ResultNumber_2"), DW_AT_const_value(0x02)
    2921              $C$DW$388       .dwtag  DW_TAG_enumerator, DW_AT_name("ADC_ResultNumber_3"), DW_AT_const_value(0x03)
    2922              $C$DW$389       .dwtag  DW_TAG_enumerator, DW_AT_name("ADC_ResultNumber_4"), DW_AT_const_value(0x04)
    2923              $C$DW$390       .dwtag  DW_TAG_enumerator, DW_AT_name("ADC_ResultNumber_5"), DW_AT_const_value(0x05)
    2924              $C$DW$391       .dwtag  DW_TAG_enumerator, DW_AT_name("ADC_ResultNumber_6"), DW_AT_const_value(0x06)
    2925              $C$DW$392       .dwtag  DW_TAG_enumerator, DW_AT_name("ADC_ResultNumber_7"), DW_AT_const_value(0x07)
    2926              $C$DW$393       .dwtag  DW_TAG_enumerator, DW_AT_name("ADC_ResultNumber_8"), DW_AT_const_value(0x08)
    2927              $C$DW$394       .dwtag  DW_TAG_enumerator, DW_AT_name("ADC_ResultNumber_9"), DW_AT_const_value(0x09)
    2928              $C$DW$395       .dwtag  DW_TAG_enumerator, DW_AT_name("ADC_ResultNumber_10"), DW_AT_const_value(0x0a)
    2929              $C$DW$396       .dwtag  DW_TAG_enumerator, DW_AT_name("ADC_ResultNumber_11"), DW_AT_const_value(0x0b)
    2930              $C$DW$397       .dwtag  DW_TAG_enumerator, DW_AT_name("ADC_ResultNumber_12"), DW_AT_const_value(0x0c)
    2931              $C$DW$398       .dwtag  DW_TAG_enumerator, DW_AT_name("ADC_ResultNumber_13"), DW_AT_const_value(0x0d)
    2932              $C$DW$399       .dwtag  DW_TAG_enumerator, DW_AT_name("ADC_ResultNumber_14"), DW_AT_const_value(0x0e)
