TMS320C2000 Assembler PC v6.4.9 Wed Dec 02 17:22:59 2015

Tools Copyright (c) 1996-2015 Texas Instruments Incorporated
C:\Users\ywcheng\AppData\Local\Temp\5601210                          PAGE    1

       1              ;***************************************************************
       2              ;* TMS320C2000 C/C++ Codegen                         PC v6.4.9 *
       3              ;* Date/Time created: Wed Dec 02 17:22:58 2015                 *
       4              ;***************************************************************
       5                      .compiler_opts --float_support=softlib --hll_source=on --mem_model:code=flat --mem_model:data=large -
       6        0002  FP      .set    XAR2
       7              
       8              $C$DW$CU        .dwtag  DW_TAG_compile_unit
       9                      .dwattr $C$DW$CU, DW_AT_name("C:/ti/motorware/motorware_1_01_00_15/sw/modules/user/src/32b/user.c")
      10                      .dwattr $C$DW$CU, DW_AT_producer("TI TMS320C2000 C/C++ Codegen PC v6.4.9 Copyright (c) 1996-2015 Texa
      11                      .dwattr $C$DW$CU, DW_AT_TI_version(0x01)
      12                      .dwattr $C$DW$CU, DW_AT_comp_dir("C:\ti\motorware\motorware_1_01_00_15\sw\solutions\instaspin_foc\boa
      13              
      14              $C$DW$1 .dwtag  DW_TAG_subprogram, DW_AT_name("CTRL_setGains")
      15                      .dwattr $C$DW$1, DW_AT_TI_symbol_name("_CTRL_setGains")
      16                      .dwattr $C$DW$1, DW_AT_declaration
      17                      .dwattr $C$DW$1, DW_AT_external
      18              $C$DW$2 .dwtag  DW_TAG_formal_parameter
      19                      .dwattr $C$DW$2, DW_AT_type(*$C$DW$T$87)
      20              $C$DW$3 .dwtag  DW_TAG_formal_parameter
      21                      .dwattr $C$DW$3, DW_AT_type(*$C$DW$T$84)
      22              $C$DW$4 .dwtag  DW_TAG_formal_parameter
      23                      .dwattr $C$DW$4, DW_AT_type(*$C$DW$T$93)
      24              $C$DW$5 .dwtag  DW_TAG_formal_parameter
      25                      .dwattr $C$DW$5, DW_AT_type(*$C$DW$T$93)
      26              $C$DW$6 .dwtag  DW_TAG_formal_parameter
      27                      .dwattr $C$DW$6, DW_AT_type(*$C$DW$T$93)
      28                      .dwendtag $C$DW$1
      29              
      30              
      31              $C$DW$7 .dwtag  DW_TAG_subprogram, DW_AT_name("EST_setLs_qFmt")
      32                      .dwattr $C$DW$7, DW_AT_TI_symbol_name("_EST_setLs_qFmt")
      33                      .dwattr $C$DW$7, DW_AT_declaration
      34                      .dwattr $C$DW$7, DW_AT_external
      35              $C$DW$8 .dwtag  DW_TAG_formal_parameter
      36                      .dwattr $C$DW$8, DW_AT_type(*$C$DW$T$33)
      37              $C$DW$9 .dwtag  DW_TAG_formal_parameter
      38                      .dwattr $C$DW$9, DW_AT_type(*$C$DW$T$96)
      39                      .dwendtag $C$DW$7
      40              
      41              
      42              $C$DW$10        .dwtag  DW_TAG_subprogram, DW_AT_name("EST_setLs_d_pu")
      43                      .dwattr $C$DW$10, DW_AT_TI_symbol_name("_EST_setLs_d_pu")
      44                      .dwattr $C$DW$10, DW_AT_declaration
      45                      .dwattr $C$DW$10, DW_AT_external
      46              $C$DW$11        .dwtag  DW_TAG_formal_parameter
      47                      .dwattr $C$DW$11, DW_AT_type(*$C$DW$T$33)
      48              $C$DW$12        .dwtag  DW_TAG_formal_parameter
      49                      .dwattr $C$DW$12, DW_AT_type(*$C$DW$T$93)
      50                      .dwendtag $C$DW$10
      51              
      52              
      53              $C$DW$13        .dwtag  DW_TAG_subprogram, DW_AT_name("EST_setLs_q_pu")
      54                      .dwattr $C$DW$13, DW_AT_TI_symbol_name("_EST_setLs_q_pu")
      55                      .dwattr $C$DW$13, DW_AT_declaration
TMS320C2000 Assembler PC v6.4.9 Wed Dec 02 17:22:59 2015

Tools Copyright (c) 1996-2015 Texas Instruments Incorporated
C:\Users\ywcheng\AppData\Local\Temp\5601210                          PAGE    2

      56                      .dwattr $C$DW$13, DW_AT_external
      57              $C$DW$14        .dwtag  DW_TAG_formal_parameter
      58                      .dwattr $C$DW$14, DW_AT_type(*$C$DW$T$33)
      59              $C$DW$15        .dwtag  DW_TAG_formal_parameter
      60                      .dwattr $C$DW$15, DW_AT_type(*$C$DW$T$93)
      61                      .dwendtag $C$DW$13
      62              
      63              
      64              $C$DW$16        .dwtag  DW_TAG_subprogram, DW_AT_name("sqrt")
      65                      .dwattr $C$DW$16, DW_AT_TI_symbol_name("_sqrt")
      66                      .dwattr $C$DW$16, DW_AT_type(*$C$DW$T$17)
      67                      .dwattr $C$DW$16, DW_AT_declaration
      68                      .dwattr $C$DW$16, DW_AT_external
      69              $C$DW$17        .dwtag  DW_TAG_formal_parameter
      70                      .dwattr $C$DW$17, DW_AT_type(*$C$DW$T$17)
      71                      .dwendtag $C$DW$16
      72              
      73              
      74              $C$DW$18        .dwtag  DW_TAG_subprogram, DW_AT_name("pow")
      75                      .dwattr $C$DW$18, DW_AT_TI_symbol_name("_pow")
      76                      .dwattr $C$DW$18, DW_AT_type(*$C$DW$T$17)
      77                      .dwattr $C$DW$18, DW_AT_declaration
      78                      .dwattr $C$DW$18, DW_AT_external
      79              $C$DW$19        .dwtag  DW_TAG_formal_parameter
      80                      .dwattr $C$DW$19, DW_AT_type(*$C$DW$T$17)
      81              $C$DW$20        .dwtag  DW_TAG_formal_parameter
      82                      .dwattr $C$DW$20, DW_AT_type(*$C$DW$T$17)
      83                      .dwendtag $C$DW$18
      84              
      85              
      86              $C$DW$21        .dwtag  DW_TAG_subprogram, DW_AT_name("EST_getFlux_pu")
      87                      .dwattr $C$DW$21, DW_AT_TI_symbol_name("_EST_getFlux_pu")
      88                      .dwattr $C$DW$21, DW_AT_type(*$C$DW$T$20)
      89                      .dwattr $C$DW$21, DW_AT_declaration
      90                      .dwattr $C$DW$21, DW_AT_external
      91              $C$DW$22        .dwtag  DW_TAG_formal_parameter
      92                      .dwattr $C$DW$22, DW_AT_type(*$C$DW$T$33)
      93                      .dwendtag $C$DW$21
      94              
      95              
      96              $C$DW$23        .dwtag  DW_TAG_subprogram, DW_AT_name("_IQ30toF")
      97                      .dwattr $C$DW$23, DW_AT_TI_symbol_name("__IQ30toF")
      98                      .dwattr $C$DW$23, DW_AT_type(*$C$DW$T$16)
      99                      .dwattr $C$DW$23, DW_AT_declaration
     100                      .dwattr $C$DW$23, DW_AT_external
     101              $C$DW$24        .dwtag  DW_TAG_formal_parameter
     102                      .dwattr $C$DW$24, DW_AT_type(*$C$DW$T$12)
     103                      .dwendtag $C$DW$23
     104              
     105              
     106              $C$DW$25        .dwtag  DW_TAG_subprogram, DW_AT_name("modf")
     107                      .dwattr $C$DW$25, DW_AT_TI_symbol_name("_modf")
     108                      .dwattr $C$DW$25, DW_AT_type(*$C$DW$T$17)
     109                      .dwattr $C$DW$25, DW_AT_declaration
     110                      .dwattr $C$DW$25, DW_AT_external
TMS320C2000 Assembler PC v6.4.9 Wed Dec 02 17:22:59 2015

Tools Copyright (c) 1996-2015 Texas Instruments Incorporated
C:\Users\ywcheng\AppData\Local\Temp\5601210                          PAGE    3

     111              $C$DW$26        .dwtag  DW_TAG_formal_parameter
     112                      .dwattr $C$DW$26, DW_AT_type(*$C$DW$T$17)
     113              $C$DW$27        .dwtag  DW_TAG_formal_parameter
     114                      .dwattr $C$DW$27, DW_AT_type(*$C$DW$T$125)
     115                      .dwendtag $C$DW$25
     116              
     117              
     118              $C$DW$28        .dwtag  DW_TAG_subprogram, DW_AT_name("__IQmpy")
     119                      .dwattr $C$DW$28, DW_AT_TI_symbol_name("___IQmpy")
     120                      .dwattr $C$DW$28, DW_AT_type(*$C$DW$T$12)
     121                      .dwattr $C$DW$28, DW_AT_declaration
     122                      .dwattr $C$DW$28, DW_AT_external
     123              $C$DW$29        .dwtag  DW_TAG_formal_parameter
     124                      .dwattr $C$DW$29, DW_AT_type(*$C$DW$T$12)
     125              $C$DW$30        .dwtag  DW_TAG_formal_parameter
     126                      .dwattr $C$DW$30, DW_AT_type(*$C$DW$T$12)
     127              $C$DW$31        .dwtag  DW_TAG_formal_parameter
     128                      .dwattr $C$DW$31, DW_AT_type(*$C$DW$T$10)
     129                      .dwendtag $C$DW$28
     130              
     131              
     132              $C$DW$32        .dwtag  DW_TAG_subprogram, DW_AT_name("log")
     133                      .dwattr $C$DW$32, DW_AT_TI_symbol_name("_log")
     134                      .dwattr $C$DW$32, DW_AT_type(*$C$DW$T$17)
     135                      .dwattr $C$DW$32, DW_AT_declaration
     136                      .dwattr $C$DW$32, DW_AT_external
     137              $C$DW$33        .dwtag  DW_TAG_formal_parameter
     138                      .dwattr $C$DW$33, DW_AT_type(*$C$DW$T$17)
     139                      .dwendtag $C$DW$32
     140              
     141              
     142              $C$DW$34        .dwtag  DW_TAG_subprogram, DW_AT_name("EST_getRs_Ohm")
     143                      .dwattr $C$DW$34, DW_AT_TI_symbol_name("_EST_getRs_Ohm")
     144                      .dwattr $C$DW$34, DW_AT_type(*$C$DW$T$54)
     145                      .dwattr $C$DW$34, DW_AT_declaration
     146                      .dwattr $C$DW$34, DW_AT_external
     147              $C$DW$35        .dwtag  DW_TAG_formal_parameter
     148                      .dwattr $C$DW$35, DW_AT_type(*$C$DW$T$33)
     149                      .dwendtag $C$DW$34
     150              
     151              
     152              $C$DW$36        .dwtag  DW_TAG_subprogram, DW_AT_name("EST_getLs_coarse_max_pu")
     153                      .dwattr $C$DW$36, DW_AT_TI_symbol_name("_EST_getLs_coarse_max_pu")
     154                      .dwattr $C$DW$36, DW_AT_type(*$C$DW$T$20)
     155                      .dwattr $C$DW$36, DW_AT_declaration
     156                      .dwattr $C$DW$36, DW_AT_external
     157              $C$DW$37        .dwtag  DW_TAG_formal_parameter
     158                      .dwattr $C$DW$37, DW_AT_type(*$C$DW$T$33)
     159                      .dwendtag $C$DW$36
     160              
     161              
     162              $C$DW$38        .dwtag  DW_TAG_subprogram, DW_AT_name("EST_getLs_d_pu")
     163                      .dwattr $C$DW$38, DW_AT_TI_symbol_name("_EST_getLs_d_pu")
     164                      .dwattr $C$DW$38, DW_AT_type(*$C$DW$T$20)
     165                      .dwattr $C$DW$38, DW_AT_declaration
TMS320C2000 Assembler PC v6.4.9 Wed Dec 02 17:22:59 2015

Tools Copyright (c) 1996-2015 Texas Instruments Incorporated
C:\Users\ywcheng\AppData\Local\Temp\5601210                          PAGE    4

     166                      .dwattr $C$DW$38, DW_AT_external
     167              $C$DW$39        .dwtag  DW_TAG_formal_parameter
     168                      .dwattr $C$DW$39, DW_AT_type(*$C$DW$T$33)
     169                      .dwendtag $C$DW$38
     170              
     171              
     172              $C$DW$40        .dwtag  DW_TAG_subprogram, DW_AT_name("EST_getLs_d_H")
     173                      .dwattr $C$DW$40, DW_AT_TI_symbol_name("_EST_getLs_d_H")
     174                      .dwattr $C$DW$40, DW_AT_type(*$C$DW$T$54)
     175                      .dwattr $C$DW$40, DW_AT_declaration
     176                      .dwattr $C$DW$40, DW_AT_external
     177              $C$DW$41        .dwtag  DW_TAG_formal_parameter
     178                      .dwattr $C$DW$41, DW_AT_type(*$C$DW$T$33)
     179                      .dwendtag $C$DW$40
     180              
     181              
     182              $C$DW$42        .dwtag  DW_TAG_subprogram, DW_AT_name("EST_getLs_q_pu")
     183                      .dwattr $C$DW$42, DW_AT_TI_symbol_name("_EST_getLs_q_pu")
     184                      .dwattr $C$DW$42, DW_AT_type(*$C$DW$T$20)
     185                      .dwattr $C$DW$42, DW_AT_declaration
     186                      .dwattr $C$DW$42, DW_AT_external
     187              $C$DW$43        .dwtag  DW_TAG_formal_parameter
     188                      .dwattr $C$DW$43, DW_AT_type(*$C$DW$T$33)
     189                      .dwendtag $C$DW$42
     190              
     191              
     192              $C$DW$44        .dwtag  DW_TAG_subprogram, DW_AT_name("EST_getLs_q_H")
     193                      .dwattr $C$DW$44, DW_AT_TI_symbol_name("_EST_getLs_q_H")
     194                      .dwattr $C$DW$44, DW_AT_type(*$C$DW$T$54)
     195                      .dwattr $C$DW$44, DW_AT_declaration
     196                      .dwattr $C$DW$44, DW_AT_external
     197              $C$DW$45        .dwtag  DW_TAG_formal_parameter
     198                      .dwattr $C$DW$45, DW_AT_type(*$C$DW$T$33)
     199                      .dwendtag $C$DW$44
     200              
     201              ;       C:\ti\ccsv6\tools\compiler\ti-cgt-c2000_6.4.9\bin\opt2000.exe C:\\Users\\ywcheng\\AppData\\Local\\Tem
     202              ;       C:\ti\ccsv6\tools\compiler\ti-cgt-c2000_6.4.9\bin\ac2000.exe -@C:\\Users\\ywcheng\\AppData\\Local\\Te
     203 00000000               .sect   ".text"
     204                      .clink
     205                      .global _USER_softwareUpdate1p6
     206              
     207              $C$DW$46        .dwtag  DW_TAG_subprogram, DW_AT_name("USER_softwareUpdate1p6")
     208                      .dwattr $C$DW$46, DW_AT_low_pc(_USER_softwareUpdate1p6)
     209                      .dwattr $C$DW$46, DW_AT_high_pc(0x00)
     210                      .dwattr $C$DW$46, DW_AT_TI_symbol_name("_USER_softwareUpdate1p6")
     211                      .dwattr $C$DW$46, DW_AT_external
     212                      .dwattr $C$DW$46, DW_AT_TI_begin_file("C:/ti/motorware/motorware_1_01_00_15/sw/modules/user/src/32b/u
     213                      .dwattr $C$DW$46, DW_AT_TI_begin_line(0x341)
     214                      .dwattr $C$DW$46, DW_AT_TI_begin_column(0x06)
     215                      .dwattr $C$DW$46, DW_AT_TI_max_frame_size(-22)
     216                      .dwpsn  file "C:/ti/motorware/motorware_1_01_00_15/sw/modules/user/src/32b/user.c",line 834,column 1,
     217              
     218                      .dwfde $C$DW$CIE, _USER_softwareUpdate1p6
     219              $C$DW$47        .dwtag  DW_TAG_formal_parameter, DW_AT_name("handle")
     220                      .dwattr $C$DW$47, DW_AT_TI_symbol_name("_handle")
TMS320C2000 Assembler PC v6.4.9 Wed Dec 02 17:22:59 2015

Tools Copyright (c) 1996-2015 Texas Instruments Incorporated
C:\Users\ywcheng\AppData\Local\Temp\5601210                          PAGE    5

     221                      .dwattr $C$DW$47, DW_AT_type(*$C$DW$T$87)
     222                      .dwattr $C$DW$47, DW_AT_location[DW_OP_reg12]
     223              
     224              ;***************************************************************
     225              ;* FNAME: _USER_softwareUpdate1p6       FR SIZE:  20           *
     226              ;*                                                             *
     227              ;* FUNCTION ENVIRONMENT                                        *
     228              ;*                                                             *
     229              ;* FUNCTION PROPERTIES                                         *
     230              ;*                            2 Parameter, 11 Auto,  6 SOE     *
     231              ;***************************************************************
     232              
     233              _USER_softwareUpdate1p6:
     234              ;* AL    assigned to _ceil_result
     235              $C$DW$48        .dwtag  DW_TAG_variable, DW_AT_name("ceil_result")
     236                      .dwattr $C$DW$48, DW_AT_TI_symbol_name("_ceil_result")
     237                      .dwattr $C$DW$48, DW_AT_type(*$C$DW$T$17)
     238                      .dwattr $C$DW$48, DW_AT_location[DW_OP_reg0]
     239              $C$DW$49        .dwtag  DW_TAG_variable, DW_AT_name("ceil_y")
     240                      .dwattr $C$DW$49, DW_AT_TI_symbol_name("_ceil_y")
     241                      .dwattr $C$DW$49, DW_AT_type(*$C$DW$T$17)
     242                      .dwattr $C$DW$49, DW_AT_location[DW_OP_breg20 -4]
     243              ;* AR2   assigned to _Ls_q_pu
     244              $C$DW$50        .dwtag  DW_TAG_variable, DW_AT_name("Ls_q_pu")
     245                      .dwattr $C$DW$50, DW_AT_TI_symbol_name("_Ls_q_pu")
     246                      .dwattr $C$DW$50, DW_AT_type(*$C$DW$T$20)
     247                      .dwattr $C$DW$50, DW_AT_location[DW_OP_reg8]
     248              ;* AR1   assigned to _L_max
     249              $C$DW$51        .dwtag  DW_TAG_variable, DW_AT_name("L_max")
     250                      .dwattr $C$DW$51, DW_AT_TI_symbol_name("_L_max")
     251                      .dwattr $C$DW$51, DW_AT_type(*$C$DW$T$54)
     252                      .dwattr $C$DW$51, DW_AT_location[DW_OP_reg6]
     253              ;* AR6   assigned to _Ls_coarse_max
     254              $C$DW$52        .dwtag  DW_TAG_variable, DW_AT_name("Ls_coarse_max")
     255                      .dwattr $C$DW$52, DW_AT_TI_symbol_name("_Ls_coarse_max")
     256                      .dwattr $C$DW$52, DW_AT_type(*$C$DW$T$54)
     257                      .dwattr $C$DW$52, DW_AT_location[DW_OP_reg16]
     258              ;* AR3   assigned to _handle
     259              $C$DW$53        .dwtag  DW_TAG_variable, DW_AT_name("handle")
     260                      .dwattr $C$DW$53, DW_AT_TI_symbol_name("_handle")
     261                      .dwattr $C$DW$53, DW_AT_type(*$C$DW$T$88)
     262                      .dwattr $C$DW$53, DW_AT_location[DW_OP_reg10]
     263                      .dwcfi  cfa_offset, -2
     264                      .dwcfi  save_reg_to_mem, 26, 0
     265 00000000 B2BD          MOVL      *SP++,XAR1            ; [CPU_] 
     266                      .dwcfi  save_reg_to_mem, 7, 2
     267                      .dwcfi  cfa_offset, -4
     268 00000001 AABD          MOVL      *SP++,XAR2            ; [CPU_] 
     269                      .dwcfi  save_reg_to_mem, 9, 4
     270                      .dwcfi  cfa_offset, -6
     271 00000002 A2BD          MOVL      *SP++,XAR3            ; [CPU_] 
     272                      .dwcfi  save_reg_to_mem, 11, 6
     273                      .dwcfi  cfa_offset, -8
     274 00000003 FE0E          ADDB      SP,#14                ; [CPU_U] 
     275                      .dwcfi  cfa_offset, -22
TMS320C2000 Assembler PC v6.4.9 Wed Dec 02 17:22:59 2015

Tools Copyright (c) 1996-2015 Texas Instruments Incorporated
C:\Users\ywcheng\AppData\Local\Temp\5601210                          PAGE    6

     276 00000004 82A4          MOVL      XAR3,XAR4             ; [CPU_] |834| 
     277                      .dwpsn  file "C:/ti/motorware/motorware_1_01_00_15/sw/modules/user/src/32b/user.c",line 837,column 25
     278 00000005 D018          MOVB      XAR0,#24              ; [CPU_] |837| 
     279 00000006 8A93          MOVL      XAR4,*+XAR3[AR0]      ; [CPU_] |837| 
     280              $C$DW$54        .dwtag  DW_TAG_TI_branch
     281                      .dwattr $C$DW$54, DW_AT_low_pc(0x00)
     282                      .dwattr $C$DW$54, DW_AT_name("_EST_getLs_coarse_max_pu")
     283                      .dwattr $C$DW$54, DW_AT_TI_call
     284 00000007 7640!         LCR       #_EST_getLs_coarse_max_pu ; [CPU_] |837| 
         00000008 0000 
     285                      ; call occurs [#_EST_getLs_coarse_max_pu] ; [] |837| 
     286              $C$DW$55        .dwtag  DW_TAG_TI_branch
     287                      .dwattr $C$DW$55, DW_AT_low_pc(0x00)
     288                      .dwattr $C$DW$55, DW_AT_name("__IQ30toF")
     289                      .dwattr $C$DW$55, DW_AT_TI_call
     290 00000009 7640!         LCR       #__IQ30toF            ; [CPU_] |837| 
         0000000a 0000 
     291                      ; call occurs [#__IQ30toF] ; [] |837| 
     292 0000000b 1EA6          MOVL      XAR6,ACC              ; [CPU_] |837| 
     293                      .dwpsn  file "C:/ti/motorware/motorware_1_01_00_15/sw/modules/user/src/32b/user.c",line 838,column 23
     294 0000000c 28A9          MOV       AL,#33142             ; [CPU_] |838| 
         0000000d 8176 
     295 0000000e 28A8          MOV       AH,#15517             ; [CPU_] |838| 
         0000000f 3C9D 
     296 00000010 1E42          MOVL      *-SP[2],ACC           ; [CPU_] |838| 
     297 00000011 06A6          MOVL      ACC,XAR6              ; [CPU_] |838| 
     298              $C$DW$56        .dwtag  DW_TAG_TI_branch
     299                      .dwattr $C$DW$56, DW_AT_low_pc(0x00)
     300                      .dwattr $C$DW$56, DW_AT_name("FS$$MPY")
     301                      .dwattr $C$DW$56, DW_AT_TI_call
     302 00000012 7640!         LCR       #FS$$MPY              ; [CPU_] |838| 
         00000013 0000 
     303                      ; call occurs [#FS$$MPY] ; [] |838| 
     304 00000014 D088          MOVB      XAR0,#136             ; [CPU_] |838| 
     305 00000015 1E42          MOVL      *-SP[2],ACC           ; [CPU_] |838| 
     306 00000016 0693          MOVL      ACC,*+XAR3[AR0]       ; [CPU_] |838| 
     307              $C$DW$57        .dwtag  DW_TAG_TI_branch
     308                      .dwattr $C$DW$57, DW_AT_low_pc(0x00)
     309                      .dwattr $C$DW$57, DW_AT_name("FS$$DIV")
     310                      .dwattr $C$DW$57, DW_AT_TI_call
     311 00000017 7640!         LCR       #FS$$DIV              ; [CPU_] |838| 
         00000018 0000 
     312                      ; call occurs [#FS$$DIV] ; [] |838| 
     313              $C$DW$58        .dwtag  DW_TAG_TI_branch
     314                      .dwattr $C$DW$58, DW_AT_low_pc(0x00)
     315                      .dwattr $C$DW$58, DW_AT_name("_log")
     316                      .dwattr $C$DW$58, DW_AT_TI_call
     317 00000019 7640!         LCR       #_log                 ; [CPU_] |838| 
         0000001a 0000 
     318                      ; call occurs [#_log] ; [] |838| 
     319 0000001b 8BA9          MOVL      XAR1,ACC              ; [CPU_] |838| 
     320 0000001c 9A00          MOV       AL,#0                 ; [CPU_] |838| 
     321 0000001d 28A8          MOV       AH,#16384             ; [CPU_] |838| 
         0000001e 4000 
     322              $C$DW$59        .dwtag  DW_TAG_TI_branch
TMS320C2000 Assembler PC v6.4.9 Wed Dec 02 17:22:59 2015

Tools Copyright (c) 1996-2015 Texas Instruments Incorporated
C:\Users\ywcheng\AppData\Local\Temp\5601210                          PAGE    7

     323                      .dwattr $C$DW$59, DW_AT_low_pc(0x00)
     324                      .dwattr $C$DW$59, DW_AT_name("_log")
     325                      .dwattr $C$DW$59, DW_AT_TI_call
     326 0000001f 7640!         LCR       #_log                 ; [CPU_] |838| 
         00000020 0000 
     327                      ; call occurs [#_log] ; [] |838| 
     328 00000021 1E42          MOVL      *-SP[2],ACC           ; [CPU_] |838| 
     329 00000022 B2A9          MOVL      ACC,XAR1              ; [CPU_] |838| 
     330              $C$DW$60        .dwtag  DW_TAG_TI_branch
     331                      .dwattr $C$DW$60, DW_AT_low_pc(0x00)
     332                      .dwattr $C$DW$60, DW_AT_name("FS$$DIV")
     333                      .dwattr $C$DW$60, DW_AT_TI_call
     334 00000023 7640!         LCR       #FS$$DIV              ; [CPU_] |838| 
         00000024 0000 
     335                      ; call occurs [#FS$$DIV] ; [] |838| 
     336                      .dwpsn  file "C:/ti/ccsv6/tools/compiler/ti-cgt-c2000_6.4.9/include/math.h",line 143,column 14,is_stm
     337 00000025 5CAD          MOVZ      AR4,SP                ; [CPU_] |143| 
     338 00000026 DC84          SUBB      XAR4,#4               ; [CPU_U] |143| 
     339 00000027 5CA4          MOVZ      AR4,AR4               ; [CPU_] |143| 
     340              $C$DW$61        .dwtag  DW_TAG_TI_branch
     341                      .dwattr $C$DW$61, DW_AT_low_pc(0x00)
     342                      .dwattr $C$DW$61, DW_AT_name("_modf")
     343                      .dwattr $C$DW$61, DW_AT_TI_call
     344 00000028 7640!         LCR       #_modf                ; [CPU_] |143| 
         00000029 0000 
     345                      ; call occurs [#_modf] ; [] |143| 
     346 0000002a 1EA6          MOVL      XAR6,ACC              ; [CPU_] |143| 
     347 0000002b 9A00          MOV       AL,#0                 ; [CPU_] |143| 
     348 0000002c 9B00          MOV       AH,#0                 ; [CPU_] |143| 
     349 0000002d 1E42          MOVL      *-SP[2],ACC           ; [CPU_] |143| 
     350 0000002e 06A6          MOVL      ACC,XAR6              ; [CPU_] |143| 
     351              $C$DW$62        .dwtag  DW_TAG_TI_branch
     352                      .dwattr $C$DW$62, DW_AT_low_pc(0x00)
     353                      .dwattr $C$DW$62, DW_AT_name("FS$$CMP")
     354                      .dwattr $C$DW$62, DW_AT_TI_call
     355 0000002f 7640!         LCR       #FS$$CMP              ; [CPU_] |143| 
         00000030 0000 
     356                      ; call occurs [#FS$$CMP] ; [] |143| 
     357 00000031 5200          CMPB      AL,#0                 ; [CPU_] |143| 
     358 00000032 56C2          BF        $C$L1,GT              ; [CPU_] |143| 
         00000033 0004 
     359                      ; branchcc occurs ; [] |143| 
     360                      .dwpsn  file "C:/ti/ccsv6/tools/compiler/ti-cgt-c2000_6.4.9/include/math.h",line 150,column 18,is_stm
     361 00000034 0644          MOVL      ACC,*-SP[4]           ; [CPU_] |150| 
     362 00000035 6F07          B         $C$L2,UNC             ; [CPU_] |150| 
     363                      ; branch occurs ; [] |150| 
     364 00000036       $C$L1:    
     365                      .dwpsn  file "C:/ti/ccsv6/tools/compiler/ti-cgt-c2000_6.4.9/include/math.h",line 146,column 18,is_stm
     366 00000036 FF2F          MOV       ACC,#32512 << 15      ; [CPU_] |146| 
         00000037 7F00 
     367 00000038 1E42          MOVL      *-SP[2],ACC           ; [CPU_] |146| 
     368 00000039 0644          MOVL      ACC,*-SP[4]           ; [CPU_] |146| 
     369              $C$DW$63        .dwtag  DW_TAG_TI_branch
     370                      .dwattr $C$DW$63, DW_AT_low_pc(0x00)
     371                      .dwattr $C$DW$63, DW_AT_name("FS$$ADD")
TMS320C2000 Assembler PC v6.4.9 Wed Dec 02 17:22:59 2015

Tools Copyright (c) 1996-2015 Texas Instruments Incorporated
C:\Users\ywcheng\AppData\Local\Temp\5601210                          PAGE    8

     372                      .dwattr $C$DW$63, DW_AT_TI_call
     373 0000003a 7640!         LCR       #FS$$ADD              ; [CPU_] |146| 
         0000003b 0000 
     374                      ; call occurs [#FS$$ADD] ; [] |146| 
     375 0000003c       $C$L2:    
     376                      .dwpsn  file "C:/ti/motorware/motorware_1_01_00_15/sw/modules/user/src/32b/user.c",line 840,column 17
     377              $C$DW$64        .dwtag  DW_TAG_TI_branch
     378                      .dwattr $C$DW$64, DW_AT_low_pc(0x00)
     379                      .dwattr $C$DW$64, DW_AT_name("FS$$TOI")
     380                      .dwattr $C$DW$64, DW_AT_TI_call
     381 0000003c 7640!         LCR       #FS$$TOI              ; [CPU_] |840| 
         0000003d 0000 
     382                      ; call occurs [#FS$$TOI] ; [] |840| 
     383 0000003e 964D          MOV       *-SP[13],AL           ; [CPU_] |840| 
     384              $C$DW$65        .dwtag  DW_TAG_TI_branch
     385                      .dwattr $C$DW$65, DW_AT_low_pc(0x00)
     386                      .dwattr $C$DW$65, DW_AT_name("I$$TOFS")
     387                      .dwattr $C$DW$65, DW_AT_TI_call
     388 0000003f 7640!         LCR       #I$$TOFS              ; [CPU_] |840| 
         00000040 0000 
     389                      ; call occurs [#I$$TOFS] ; [] |840| 
     390 00000041 1E42          MOVL      *-SP[2],ACC           ; [CPU_] |840| 
     391 00000042 9A00          MOV       AL,#0                 ; [CPU_] |840| 
     392 00000043 28A8          MOV       AH,#16384             ; [CPU_] |840| 
         00000044 4000 
     393              $C$DW$66        .dwtag  DW_TAG_TI_branch
     394                      .dwattr $C$DW$66, DW_AT_low_pc(0x00)
     395                      .dwattr $C$DW$66, DW_AT_name("_pow")
     396                      .dwattr $C$DW$66, DW_AT_TI_call
     397 00000045 7640!         LCR       #_pow                 ; [CPU_] |840| 
         00000046 0000 
     398                      ; call occurs [#_pow] ; [] |840| 
     399 00000047 1EA6          MOVL      XAR6,ACC              ; [CPU_] |840| 
     400 00000048 28A9          MOV       AL,#33142             ; [CPU_] |840| 
         00000049 8176 
     401 0000004a 28A8          MOV       AH,#15517             ; [CPU_] |840| 
         0000004b 3C9D 
     402 0000004c 1E42          MOVL      *-SP[2],ACC           ; [CPU_] |840| 
     403 0000004d 06A6          MOVL      ACC,XAR6              ; [CPU_] |840| 
     404              $C$DW$67        .dwtag  DW_TAG_TI_branch
     405                      .dwattr $C$DW$67, DW_AT_low_pc(0x00)
     406                      .dwattr $C$DW$67, DW_AT_name("FS$$MPY")
     407                      .dwattr $C$DW$67, DW_AT_TI_call
     408 0000004e 7640!         LCR       #FS$$MPY              ; [CPU_] |840| 
         0000004f 0000 
     409                      ; call occurs [#FS$$MPY] ; [] |840| 
     410                      .dwpsn  file "C:/ti/motorware/motorware_1_01_00_15/sw/modules/user/src/32b/user.c",line 842,column 15
     411 00000050 D08A          MOVB      XAR0,#138             ; [CPU_] |842| 
     412                      .dwpsn  file "C:/ti/motorware/motorware_1_01_00_15/sw/modules/user/src/32b/user.c",line 840,column 17
     413 00000051 8BA9          MOVL      XAR1,ACC              ; [CPU_] |840| 
     414                      .dwpsn  file "C:/ti/motorware/motorware_1_01_00_15/sw/modules/user/src/32b/user.c",line 842,column 15
     415 00000052 1E42          MOVL      *-SP[2],ACC           ; [CPU_] |842| 
     416 00000053 0693          MOVL      ACC,*+XAR3[AR0]       ; [CPU_] |842| 
     417              $C$DW$68        .dwtag  DW_TAG_TI_branch
     418                      .dwattr $C$DW$68, DW_AT_low_pc(0x00)
TMS320C2000 Assembler PC v6.4.9 Wed Dec 02 17:22:59 2015

Tools Copyright (c) 1996-2015 Texas Instruments Incorporated
C:\Users\ywcheng\AppData\Local\Temp\5601210                          PAGE    9

     419                      .dwattr $C$DW$68, DW_AT_name("FS$$DIV")
     420                      .dwattr $C$DW$68, DW_AT_TI_call
     421 00000054 7640!         LCR       #FS$$DIV              ; [CPU_] |842| 
         00000055 0000 
     422                      ; call occurs [#FS$$DIV] ; [] |842| 
     423 00000056 5CAD          MOVZ      AR4,SP                ; [CPU_] |842| 
     424 00000057 DC8C          SUBB      XAR4,#12              ; [CPU_U] |842| 
     425 00000058 88A4          MOVZ      AR6,AR4               ; [CPU_] |842| 
     426              $C$DW$69        .dwtag  DW_TAG_TI_branch
     427                      .dwattr $C$DW$69, DW_AT_low_pc(0x00)
     428                      .dwattr $C$DW$69, DW_AT_name("FS$$TOFD")
     429                      .dwattr $C$DW$69, DW_AT_TI_call
     430 00000059 7640!         LCR       #FS$$TOFD             ; [CPU_] |842| 
         0000005a 0000 
     431                      ; call occurs [#FS$$TOFD] ; [] |842| 
     432 0000005b 5DAD          MOVZ      AR5,SP                ; [CPU_] |842| 
     433 0000005c 5CAD          MOVZ      AR4,SP                ; [CPU_] |842| 
     434 0000005d DD88          SUBB      XAR5,#8               ; [CPU_U] |842| 
     435 0000005e DC8C          SUBB      XAR4,#12              ; [CPU_U] |842| 
     436 0000005f 88A5          MOVZ      AR6,AR5               ; [CPU_] |842| 
     437 00000060 5CA4          MOVZ      AR4,AR4               ; [CPU_] |842| 
     438 00000061 8F40+         MOVL      XAR5,#$C$FL1          ; [CPU_U] |842| 
         00000062 0000 
     439              $C$DW$70        .dwtag  DW_TAG_TI_branch
     440                      .dwattr $C$DW$70, DW_AT_low_pc(0x00)
     441                      .dwattr $C$DW$70, DW_AT_name("FD$$MPY")
     442                      .dwattr $C$DW$70, DW_AT_TI_call
     443 00000063 7640!         LCR       #FD$$MPY              ; [CPU_] |842| 
         00000064 0000 
     444                      ; call occurs [#FD$$MPY] ; [] |842| 
     445 00000065 5CAD          MOVZ      AR4,SP                ; [CPU_] |842| 
     446 00000066 DC88          SUBB      XAR4,#8               ; [CPU_U] |842| 
     447 00000067 5CA4          MOVZ      AR4,AR4               ; [CPU_] |842| 
     448              $C$DW$71        .dwtag  DW_TAG_TI_branch
     449                      .dwattr $C$DW$71, DW_AT_low_pc(0x00)
     450                      .dwattr $C$DW$71, DW_AT_name("FD$$TOL")
     451                      .dwattr $C$DW$71, DW_AT_TI_call
     452 00000068 7640!         LCR       #FD$$TOL              ; [CPU_] |842| 
         00000069 0000 
     453                      ; call occurs [#FD$$TOL] ; [] |842| 
     454                      .dwpsn  file "C:/ti/motorware/motorware_1_01_00_15/sw/modules/user/src/32b/user.c",line 846,column 3,
     455 0000006a D088          MOVB      XAR0,#136             ; [CPU_] |846| 
     456                      .dwpsn  file "C:/ti/motorware/motorware_1_01_00_15/sw/modules/user/src/32b/user.c",line 842,column 15
     457 0000006b 86A9          MOVL      XAR2,ACC              ; [CPU_] |842| 
     458                      .dwpsn  file "C:/ti/motorware/motorware_1_01_00_15/sw/modules/user/src/32b/user.c",line 846,column 3,
     459 0000006c B242          MOVL      *-SP[2],XAR1          ; [CPU_] |846| 
     460 0000006d 0693          MOVL      ACC,*+XAR3[AR0]       ; [CPU_] |846| 
     461              $C$DW$72        .dwtag  DW_TAG_TI_branch
     462                      .dwattr $C$DW$72, DW_AT_low_pc(0x00)
     463                      .dwattr $C$DW$72, DW_AT_name("FS$$DIV")
     464                      .dwattr $C$DW$72, DW_AT_TI_call
     465 0000006e 7640!         LCR       #FS$$DIV              ; [CPU_] |846| 
         0000006f 0000 
     466                      ; call occurs [#FS$$DIV] ; [] |846| 
     467 00000070 5CAD          MOVZ      AR4,SP                ; [CPU_] |846| 
TMS320C2000 Assembler PC v6.4.9 Wed Dec 02 17:22:59 2015

Tools Copyright (c) 1996-2015 Texas Instruments Incorporated
C:\Users\ywcheng\AppData\Local\Temp\5601210                          PAGE   10

     468 00000071 DC8C          SUBB      XAR4,#12              ; [CPU_U] |846| 
     469 00000072 88A4          MOVZ      AR6,AR4               ; [CPU_] |846| 
     470              $C$DW$73        .dwtag  DW_TAG_TI_branch
     471                      .dwattr $C$DW$73, DW_AT_low_pc(0x00)
     472                      .dwattr $C$DW$73, DW_AT_name("FS$$TOFD")
     473                      .dwattr $C$DW$73, DW_AT_TI_call
     474 00000073 7640!         LCR       #FS$$TOFD             ; [CPU_] |846| 
         00000074 0000 
     475                      ; call occurs [#FS$$TOFD] ; [] |846| 
     476 00000075 5DAD          MOVZ      AR5,SP                ; [CPU_] |846| 
     477 00000076 5CAD          MOVZ      AR4,SP                ; [CPU_] |846| 
     478 00000077 DD88          SUBB      XAR5,#8               ; [CPU_U] |846| 
     479 00000078 DC8C          SUBB      XAR4,#12              ; [CPU_U] |846| 
     480 00000079 88A5          MOVZ      AR6,AR5               ; [CPU_] |846| 
     481 0000007a 5CA4          MOVZ      AR4,AR4               ; [CPU_] |846| 
     482 0000007b 8F40+         MOVL      XAR5,#$C$FL1          ; [CPU_U] |846| 
         0000007c 0000 
     483              $C$DW$74        .dwtag  DW_TAG_TI_branch
     484                      .dwattr $C$DW$74, DW_AT_low_pc(0x00)
     485                      .dwattr $C$DW$74, DW_AT_name("FD$$MPY")
     486                      .dwattr $C$DW$74, DW_AT_TI_call
     487 0000007d 7640!         LCR       #FD$$MPY              ; [CPU_] |846| 
         0000007e 0000 
     488                      ; call occurs [#FD$$MPY] ; [] |846| 
     489 0000007f 5CAD          MOVZ      AR4,SP                ; [CPU_] |846| 
     490 00000080 DC88          SUBB      XAR4,#8               ; [CPU_U] |846| 
     491 00000081 5CA4          MOVZ      AR4,AR4               ; [CPU_] |846| 
     492              $C$DW$75        .dwtag  DW_TAG_TI_branch
     493                      .dwattr $C$DW$75, DW_AT_low_pc(0x00)
     494                      .dwattr $C$DW$75, DW_AT_name("FD$$TOL")
     495                      .dwattr $C$DW$75, DW_AT_TI_call
     496 00000082 7640!         LCR       #FD$$TOL              ; [CPU_] |846| 
         00000083 0000 
     497                      ; call occurs [#FD$$TOL] ; [] |846| 
     498 00000084 D018          MOVB      XAR0,#24              ; [CPU_] |846| 
     499 00000085 8A93          MOVL      XAR4,*+XAR3[AR0]      ; [CPU_] |846| 
     500              $C$DW$76        .dwtag  DW_TAG_TI_branch
     501                      .dwattr $C$DW$76, DW_AT_low_pc(0x00)
     502                      .dwattr $C$DW$76, DW_AT_name("_EST_setLs_d_pu")
     503                      .dwattr $C$DW$76, DW_AT_TI_call
     504 00000086 7640!         LCR       #_EST_setLs_d_pu      ; [CPU_] |846| 
         00000087 0000 
     505                      ; call occurs [#_EST_setLs_d_pu] ; [] |846| 
     506                      .dwpsn  file "C:/ti/motorware/motorware_1_01_00_15/sw/modules/user/src/32b/user.c",line 847,column 3,
     507 00000088 D018          MOVB      XAR0,#24              ; [CPU_] |847| 
     508 00000089 AAA9          MOVL      ACC,XAR2              ; [CPU_] |847| 
     509 0000008a 8A93          MOVL      XAR4,*+XAR3[AR0]      ; [CPU_] |847| 
     510              $C$DW$77        .dwtag  DW_TAG_TI_branch
     511                      .dwattr $C$DW$77, DW_AT_low_pc(0x00)
     512                      .dwattr $C$DW$77, DW_AT_name("_EST_setLs_q_pu")
     513                      .dwattr $C$DW$77, DW_AT_TI_call
     514 0000008b 7640!         LCR       #_EST_setLs_q_pu      ; [CPU_] |847| 
         0000008c 0000 
     515                      ; call occurs [#_EST_setLs_q_pu] ; [] |847| 
     516                      .dwpsn  file "C:/ti/motorware/motorware_1_01_00_15/sw/modules/user/src/32b/user.c",line 848,column 3,
TMS320C2000 Assembler PC v6.4.9 Wed Dec 02 17:22:59 2015

Tools Copyright (c) 1996-2015 Texas Instruments Incorporated
C:\Users\ywcheng\AppData\Local\Temp\5601210                          PAGE   11

     517 0000008d 9A1E          MOVB      AL,#30                ; [CPU_] |848| 
     518 0000008e 9E4D          SUB       AL,*-SP[13]           ; [CPU_] |848| 
     519 0000008f D018          MOVB      XAR0,#24              ; [CPU_] |848| 
     520 00000090 8A93          MOVL      XAR4,*+XAR3[AR0]      ; [CPU_] |848| 
     521              $C$DW$78        .dwtag  DW_TAG_TI_branch
     522                      .dwattr $C$DW$78, DW_AT_low_pc(0x00)
     523                      .dwattr $C$DW$78, DW_AT_name("_EST_setLs_qFmt")
     524                      .dwattr $C$DW$78, DW_AT_TI_call
     525 00000091 7640!         LCR       #_EST_setLs_qFmt      ; [CPU_] |848| 
         00000092 0000 
     526                      ; call occurs [#_EST_setLs_qFmt] ; [] |848| 
     527 00000093 FE8E          SUBB      SP,#14                ; [CPU_U] 
     528                      .dwcfi  cfa_offset, -8
     529 00000094 82BE          MOVL      XAR3,*--SP            ; [CPU_] 
     530                      .dwcfi  cfa_offset, -6
     531                      .dwcfi  restore_reg, 11
     532 00000095 86BE          MOVL      XAR2,*--SP            ; [CPU_] 
     533                      .dwcfi  cfa_offset, -4
     534                      .dwcfi  restore_reg, 9
     535 00000096 8BBE          MOVL      XAR1,*--SP            ; [CPU_] 
     536                      .dwcfi  cfa_offset, -2
     537                      .dwcfi  restore_reg, 7
     538              $C$DW$79        .dwtag  DW_TAG_TI_branch
     539                      .dwattr $C$DW$79, DW_AT_low_pc(0x00)
     540                      .dwattr $C$DW$79, DW_AT_TI_return
     541 00000097 0006          LRETR     ; [CPU_] 
     542                      ; return occurs ; [] 
     543                      .dwattr $C$DW$46, DW_AT_TI_end_file("C:/ti/motorware/motorware_1_01_00_15/sw/modules/user/src/32b/use
     544                      .dwattr $C$DW$46, DW_AT_TI_end_line(0x353)
     545                      .dwattr $C$DW$46, DW_AT_TI_end_column(0x01)
     546                      .dwendentry
     547                      .dwendtag $C$DW$46
     548              
     549 00000098               .sect   ".text"
     550                      .clink
     551                      .global _USER_setParams
     552              
     553              $C$DW$80        .dwtag  DW_TAG_subprogram, DW_AT_name("USER_setParams")
     554                      .dwattr $C$DW$80, DW_AT_low_pc(_USER_setParams)
     555                      .dwattr $C$DW$80, DW_AT_high_pc(0x00)
     556                      .dwattr $C$DW$80, DW_AT_TI_symbol_name("_USER_setParams")
     557                      .dwattr $C$DW$80, DW_AT_external
     558                      .dwattr $C$DW$80, DW_AT_TI_begin_file("C:/ti/motorware/motorware_1_01_00_15/sw/modules/user/src/32b/u
     559                      .dwattr $C$DW$80, DW_AT_TI_begin_line(0x3a)
     560                      .dwattr $C$DW$80, DW_AT_TI_begin_column(0x06)
     561                      .dwattr $C$DW$80, DW_AT_TI_max_frame_size(-10)
     562                      .dwpsn  file "C:/ti/motorware/motorware_1_01_00_15/sw/modules/user/src/32b/user.c",line 59,column 1,i
     563              
     564                      .dwfde $C$DW$CIE, _USER_setParams
     565              $C$DW$81        .dwtag  DW_TAG_formal_parameter, DW_AT_name("pUserParams")
     566                      .dwattr $C$DW$81, DW_AT_TI_symbol_name("_pUserParams")
     567                      .dwattr $C$DW$81, DW_AT_type(*$C$DW$T$79)
     568                      .dwattr $C$DW$81, DW_AT_location[DW_OP_reg12]
     569              
     570              ;***************************************************************
TMS320C2000 Assembler PC v6.4.9 Wed Dec 02 17:22:59 2015

Tools Copyright (c) 1996-2015 Texas Instruments Incorporated
C:\Users\ywcheng\AppData\Local\Temp\5601210                          PAGE   12

     571              ;* FNAME: _USER_setParams               FR SIZE:   8           *
     572              ;*                                                             *
     573              ;* FUNCTION ENVIRONMENT                                        *
     574              ;*                                                             *
     575              ;* FUNCTION PROPERTIES                                         *
     576              ;*                            2 Parameter,  0 Auto,  6 SOE     *
     577              ;***************************************************************
     578              
     579              _USER_setParams:
     580              ;* AR3   assigned to $O$C1
     581              ;* AR2   assigned to $O$C2
     582              ;* AR1   assigned to _pUserParams
     583              $C$DW$82        .dwtag  DW_TAG_variable, DW_AT_name("pUserParams")
     584                      .dwattr $C$DW$82, DW_AT_TI_symbol_name("_pUserParams")
     585                      .dwattr $C$DW$82, DW_AT_type(*$C$DW$T$90)
     586                      .dwattr $C$DW$82, DW_AT_location[DW_OP_reg6]
     587                      .dwcfi  cfa_offset, -2
     588                      .dwcfi  save_reg_to_mem, 26, 0
     589 00000098 B2BD          MOVL      *SP++,XAR1            ; [CPU_] 
     590                      .dwcfi  save_reg_to_mem, 7, 2
     591                      .dwcfi  cfa_offset, -4
     592 00000099 AABD          MOVL      *SP++,XAR2            ; [CPU_] 
     593                      .dwcfi  save_reg_to_mem, 9, 4
     594                      .dwcfi  cfa_offset, -6
     595 0000009a A2BD          MOVL      *SP++,XAR3            ; [CPU_] 
     596                      .dwcfi  save_reg_to_mem, 11, 6
     597                      .dwcfi  cfa_offset, -8
     598 0000009b FE02          ADDB      SP,#2                 ; [CPU_U] 
     599                      .dwcfi  cfa_offset, -10
     600 0000009c 8BA4          MOVL      XAR1,XAR4             ; [CPU_] |59| 
     601                      .dwpsn  file "C:/ti/motorware/motorware_1_01_00_15/sw/modules/user/src/32b/user.c",line 60,column 3,i
     602 0000009d 9A00          MOV       AL,#0                 ; [CPU_] |60| 
     603 0000009e 28A8          MOV       AH,#16672             ; [CPU_] |60| 
         0000009f 4120 
     604                      .dwpsn  file "C:/ti/motorware/motorware_1_01_00_15/sw/modules/user/src/32b/user.c",line 67,column 3,i
     605 000000a0 D008          MOVB      XAR0,#8               ; [CPU_] |67| 
     606                      .dwpsn  file "C:/ti/motorware/motorware_1_01_00_15/sw/modules/user/src/32b/user.c",line 60,column 3,i
     607 000000a1 1EC1          MOVL      *+XAR1[0],ACC         ; [CPU_] |60| 
     608                      .dwpsn  file "C:/ti/motorware/motorware_1_01_00_15/sw/modules/user/src/32b/user.c",line 61,column 3,i
     609 000000a2 28A8          MOV       AH,#17377             ; [CPU_] |61| 
         000000a3 43E1 
     610 000000a4 1ED1          MOVL      *+XAR1[2],ACC         ; [CPU_] |61| 
     611                      .dwpsn  file "C:/ti/motorware/motorware_1_01_00_15/sw/modules/user/src/32b/user.c",line 63,column 3,i
     612 000000a5 28A8          MOV       AH,#17480             ; [CPU_] |63| 
         000000a6 4448 
     613 000000a7 1EE1          MOVL      *+XAR1[4],ACC         ; [CPU_] |63| 
     614                      .dwpsn  file "C:/ti/motorware/motorware_1_01_00_15/sw/modules/user/src/32b/user.c",line 74,column 3,i
     615 000000a8 28A8          MOV       AH,#16800             ; [CPU_] |74| 
         000000a9 41A0 
     616                      .dwpsn  file "C:/ti/motorware/motorware_1_01_00_15/sw/modules/user/src/32b/user.c",line 65,column 3,i
     617 000000aa 56BF          MOVB      *+XAR1[6],#1,UNC      ; [CPU_] |65| 
         000000ab 01F1 
     618                      .dwpsn  file "C:/ti/motorware/motorware_1_01_00_15/sw/modules/user/src/32b/user.c",line 66,column 3,i
     619 000000ac 56BF          MOVB      *+XAR1[7],#1,UNC      ; [CPU_] |66| 
         000000ad 01F9 
TMS320C2000 Assembler PC v6.4.9 Wed Dec 02 17:22:59 2015

Tools Copyright (c) 1996-2015 Texas Instruments Incorporated
C:\Users\ywcheng\AppData\Local\Temp\5601210                          PAGE   13

     620                      .dwpsn  file "C:/ti/motorware/motorware_1_01_00_15/sw/modules/user/src/32b/user.c",line 67,column 3,i
     621 000000ae 56BF          MOVB      *+XAR1[AR0],#1,UNC    ; [CPU_] |67| 
         000000af 0191 
     622                      .dwpsn  file "C:/ti/motorware/motorware_1_01_00_15/sw/modules/user/src/32b/user.c",line 68,column 3,i
     623 000000b0 D009          MOVB      XAR0,#9               ; [CPU_] |68| 
     624 000000b1 56BF          MOVB      *+XAR1[AR0],#15,UNC   ; [CPU_] |68| 
         000000b2 0F91 
     625                      .dwpsn  file "C:/ti/motorware/motorware_1_01_00_15/sw/modules/user/src/32b/user.c",line 69,column 3,i
     626 000000b3 D00A          MOVB      XAR0,#10              ; [CPU_] |69| 
     627 000000b4 56BF          MOVB      *+XAR1[AR0],#15,UNC   ; [CPU_] |69| 
         000000b5 0F91 
     628                      .dwpsn  file "C:/ti/motorware/motorware_1_01_00_15/sw/modules/user/src/32b/user.c",line 71,column 3,i
     629 000000b6 D00B          MOVB      XAR0,#11              ; [CPU_] |71| 
     630 000000b7 56BF          MOVB      *+XAR1[AR0],#3,UNC    ; [CPU_] |71| 
         000000b8 0391 
     631                      .dwpsn  file "C:/ti/motorware/motorware_1_01_00_15/sw/modules/user/src/32b/user.c",line 72,column 3,i
     632 000000b9 D00C          MOVB      XAR0,#12              ; [CPU_] |72| 
     633 000000ba 56BF          MOVB      *+XAR1[AR0],#3,UNC    ; [CPU_] |72| 
         000000bb 0391 
     634                      .dwpsn  file "C:/ti/motorware/motorware_1_01_00_15/sw/modules/user/src/32b/user.c",line 74,column 3,i
     635 000000bc D00E          MOVB      XAR0,#14              ; [CPU_] |74| 
     636 000000bd 1E91          MOVL      *+XAR1[AR0],ACC       ; [CPU_] |74| 
     637                      .dwpsn  file "C:/ti/motorware/motorware_1_01_00_15/sw/modules/user/src/32b/user.c",line 75,column 3,i
     638 000000be D010          MOVB      XAR0,#16              ; [CPU_] |75| 
     639 000000bf 28A8          MOV       AH,#17096             ; [CPU_] |75| 
         000000c0 42C8 
     640 000000c1 1E91          MOVL      *+XAR1[AR0],ACC       ; [CPU_] |75| 
     641                      .dwpsn  file "C:/ti/motorware/motorware_1_01_00_15/sw/modules/user/src/32b/user.c",line 77,column 3,i
     642 000000c2 D012          MOVB      XAR0,#18              ; [CPU_] |77| 
     643 000000c3 28A8          MOV       AH,#14883             ; [CPU_] |77| 
         000000c4 3A23 
     644 000000c5 28A9          MOV       AL,#55050             ; [CPU_] |77| 
         000000c6 D70A 
     645 000000c7 1E91          MOVL      *+XAR1[AR0],ACC       ; [CPU_] |77| 
     646                      .dwpsn  file "C:/ti/motorware/motorware_1_01_00_15/sw/modules/user/src/32b/user.c",line 79,column 3,i
     647 000000c8 D014          MOVB      XAR0,#20              ; [CPU_] |79| 
     648 000000c9 FF2F          MOV       ACC,#32512 << 15      ; [CPU_] |79| 
         000000ca 7F00 
     649 000000cb 1E91          MOVL      *+XAR1[AR0],ACC       ; [CPU_] |79| 
     650                      .dwpsn  file "C:/ti/motorware/motorware_1_01_00_15/sw/modules/user/src/32b/user.c",line 81,column 3,i
     651 000000cc D016          MOVB      XAR0,#22              ; [CPU_] |81| 
     652 000000cd 9A00          MOV       AL,#0                 ; [CPU_] |81| 
     653 000000ce 28A8          MOV       AH,#16800             ; [CPU_] |81| 
         000000cf 41A0 
     654 000000d0 1E91          MOVL      *+XAR1[AR0],ACC       ; [CPU_] |81| 
     655                      .dwpsn  file "C:/ti/motorware/motorware_1_01_00_15/sw/modules/user/src/32b/user.c",line 83,column 3,i
     656 000000d1 D018          MOVB      XAR0,#24              ; [CPU_] |83| 
     657 000000d2 28A8          MOV       AH,#16384             ; [CPU_] |83| 
         000000d3 4000 
     658 000000d4 1E91          MOVL      *+XAR1[AR0],ACC       ; [CPU_] |83| 
     659                      .dwpsn  file "C:/ti/motorware/motorware_1_01_00_15/sw/modules/user/src/32b/user.c",line 85,column 3,i
     660 000000d5 D01A          MOVB      XAR0,#26              ; [CPU_] |85| 
     661 000000d6 28A8          MOV       AH,#16576             ; [CPU_] |85| 
         000000d7 40C0 
     662 000000d8 1E91          MOVL      *+XAR1[AR0],ACC       ; [CPU_] |85| 
TMS320C2000 Assembler PC v6.4.9 Wed Dec 02 17:22:59 2015

Tools Copyright (c) 1996-2015 Texas Instruments Incorporated
C:\Users\ywcheng\AppData\Local\Temp\5601210                          PAGE   14

     663                      .dwpsn  file "C:/ti/motorware/motorware_1_01_00_15/sw/modules/user/src/32b/user.c",line 87,column 3,i
     664 000000d9 D01C          MOVB      XAR0,#28              ; [CPU_] |87| 
     665 000000da 28A8          MOV       AH,#17096             ; [CPU_] |87| 
         000000db 42C8 
     666 000000dc 1E91          MOVL      *+XAR1[AR0],ACC       ; [CPU_] |87| 
     667                      .dwpsn  file "C:/ti/motorware/motorware_1_01_00_15/sw/modules/user/src/32b/user.c",line 89,column 3,i
     668 000000dd D01E          MOVB      XAR0,#30              ; [CPU_] |89| 
     669 000000de 1E91          MOVL      *+XAR1[AR0],ACC       ; [CPU_] |89| 
     670                      .dwpsn  file "C:/ti/motorware/motorware_1_01_00_15/sw/modules/user/src/32b/user.c",line 91,column 3,i
     671 000000df D020          MOVB      XAR0,#32              ; [CPU_] |91| 
     672 000000e0 FF2F          MOV       ACC,#32512 << 15      ; [CPU_] |91| 
         000000e1 7F00 
     673 000000e2 1E91          MOVL      *+XAR1[AR0],ACC       ; [CPU_] |91| 
     674                      .dwpsn  file "C:/ti/motorware/motorware_1_01_00_15/sw/modules/user/src/32b/user.c",line 93,column 3,i
     675 000000e3 D022          MOVB      XAR0,#34              ; [CPU_] |93| 
     676 000000e4 1E91          MOVL      *+XAR1[AR0],ACC       ; [CPU_] |93| 
     677                      .dwpsn  file "C:/ti/motorware/motorware_1_01_00_15/sw/modules/user/src/32b/user.c",line 95,column 3,i
     678 000000e5 D026          MOVB      XAR0,#38              ; [CPU_] |95| 
     679                      .dwpsn  file "C:/ti/motorware/motorware_1_01_00_15/sw/modules/user/src/32b/user.c",line 97,column 3,i
     680 000000e6 28A9          MOV       AL,#21845             ; [CPU_] |97| 
         000000e7 5555 
     681 000000e8 28A8          MOV       AH,#17029             ; [CPU_] |97| 
         000000e9 4285 
     682                      .dwpsn  file "C:/ti/motorware/motorware_1_01_00_15/sw/modules/user/src/32b/user.c",line 95,column 3,i
     683 000000ea 56BF          MOVB      *+XAR1[AR0],#60,UNC   ; [CPU_] |95| 
         000000eb 3C91 
     684                      .dwpsn  file "C:/ti/motorware/motorware_1_01_00_15/sw/modules/user/src/32b/user.c",line 97,column 3,i
     685 000000ec D028          MOVB      XAR0,#40              ; [CPU_] |97| 
     686 000000ed 1E91          MOVL      *+XAR1[AR0],ACC       ; [CPU_] |97| 
     687                      .dwpsn  file "C:/ti/motorware/motorware_1_01_00_15/sw/modules/user/src/32b/user.c",line 99,column 3,i
     688 000000ee D02A          MOVB      XAR0,#42              ; [CPU_] |99| 
     689 000000ef 28A9          MOV       AL,#1107              ; [CPU_] |99| 
         000000f0 0453 
     690 000000f1 28A8          MOV       AH,#16233             ; [CPU_] |99| 
         000000f2 3F69 
     691 000000f3 1E91          MOVL      *+XAR1[AR0],ACC       ; [CPU_] |99| 
     692                      .dwpsn  file "C:/ti/motorware/motorware_1_01_00_15/sw/modules/user/src/32b/user.c",line 101,column 3,
     693 000000f4 D02C          MOVB      XAR0,#44              ; [CPU_] |101| 
     694 000000f5 28A9          MOV       AL,#38797             ; [CPU_] |101| 
         000000f6 978D 
     695 000000f7 28A8          MOV       AH,#16382             ; [CPU_] |101| 
         000000f8 3FFE 
     696 000000f9 1E91          MOVL      *+XAR1[AR0],ACC       ; [CPU_] |101| 
     697                      .dwpsn  file "C:/ti/motorware/motorware_1_01_00_15/sw/modules/user/src/32b/user.c",line 103,column 3,
     698 000000fa D02E          MOVB      XAR0,#46              ; [CPU_] |103| 
     699 000000fb 28A9          MOV       AL,#18377             ; [CPU_] |103| 
         000000fc 47C9 
     700 000000fd 28A8          MOV       AH,#17682             ; [CPU_] |103| 
         000000fe 4512 
     701 000000ff 1E91          MOVL      *+XAR1[AR0],ACC       ; [CPU_] |103| 
     702                      .dwpsn  file "C:/ti/motorware/motorware_1_01_00_15/sw/modules/user/src/32b/user.c",line 105,column 3,
     703 00000100 D030          MOVB      XAR0,#48              ; [CPU_] |105| 
     704 00000101 28A9          MOV       AL,#43691             ; [CPU_] |105| 
         00000102 AAAB 
     705 00000103 28A8          MOV       AH,#16170             ; [CPU_] |105| 
TMS320C2000 Assembler PC v6.4.9 Wed Dec 02 17:22:59 2015

Tools Copyright (c) 1996-2015 Texas Instruments Incorporated
C:\Users\ywcheng\AppData\Local\Temp\5601210                          PAGE   15

         00000104 3F2A 
     706 00000105 1E91          MOVL      *+XAR1[AR0],ACC       ; [CPU_] |105| 
     707                      .dwpsn  file "C:/ti/motorware/motorware_1_01_00_15/sw/modules/user/src/32b/user.c",line 107,column 3,
     708 00000106 D032          MOVB      XAR0,#50              ; [CPU_] |107| 
     709 00000107 FF2F          MOV       ACC,#32640 << 15      ; [CPU_] |107| 
         00000108 7F80 
     710 00000109 1E91          MOVL      *+XAR1[AR0],ACC       ; [CPU_] |107| 
     711                      .dwpsn  file "C:/ti/motorware/motorware_1_01_00_15/sw/modules/user/src/32b/user.c",line 109,column 3,
     712 0000010a D034          MOVB      XAR0,#52              ; [CPU_] |109| 
     713                      .dwpsn  file "C:/ti/motorware/motorware_1_01_00_15/sw/modules/user/src/32b/user.c",line 111,column 3,
     714 0000010b 28A9          MOV       AL,#63284             ; [CPU_] |111| 
         0000010c F734 
     715 0000010d 28A8          MOV       AH,#16068             ; [CPU_] |111| 
         0000010e 3EC4 
     716                      .dwpsn  file "C:/ti/motorware/motorware_1_01_00_15/sw/modules/user/src/32b/user.c",line 109,column 3,
     717 0000010f 56BF          MOVB      *+XAR1[AR0],#1,UNC    ; [CPU_] |109| 
         00000110 0191 
     718                      .dwpsn  file "C:/ti/motorware/motorware_1_01_00_15/sw/modules/user/src/32b/user.c",line 110,column 3,
     719 00000111 D035          MOVB      XAR0,#53              ; [CPU_] |110| 
     720 00000112 56BF          MOVB      *+XAR1[AR0],#4,UNC    ; [CPU_] |110| 
         00000113 0491 
     721                      .dwpsn  file "C:/ti/motorware/motorware_1_01_00_15/sw/modules/user/src/32b/user.c",line 111,column 3,
     722 00000114 D036          MOVB      XAR0,#54              ; [CPU_] |111| 
     723 00000115 1E91          MOVL      *+XAR1[AR0],ACC       ; [CPU_] |111| 
     724                      .dwpsn  file "C:/ti/motorware/motorware_1_01_00_15/sw/modules/user/src/32b/user.c",line 112,column 3,
     725 00000116 D038          MOVB      XAR0,#56              ; [CPU_] |112| 
     726 00000117 9A00          MOV       AL,#0                 ; [CPU_] |112| 
     727 00000118 9B00          MOV       AH,#0                 ; [CPU_] |112| 
     728 00000119 1E91          MOVL      *+XAR1[AR0],ACC       ; [CPU_] |112| 
     729                      .dwpsn  file "C:/ti/motorware/motorware_1_01_00_15/sw/modules/user/src/32b/user.c",line 113,column 3,
     730 0000011a D03A          MOVB      XAR0,#58              ; [CPU_] |113| 
     731 0000011b 28A9          MOV       AL,#53356             ; [CPU_] |113| 
         0000011c D06C 
     732 0000011d 28A8          MOV       AH,#16396             ; [CPU_] |113| 
         0000011e 400C 
     733 0000011f 1E91          MOVL      *+XAR1[AR0],ACC       ; [CPU_] |113| 
     734                      .dwpsn  file "C:/ti/motorware/motorware_1_01_00_15/sw/modules/user/src/32b/user.c",line 114,column 3,
     735 00000120 D03C          MOVB      XAR0,#60              ; [CPU_] |114| 
     736 00000121 28A9          MOV       AL,#58015             ; [CPU_] |114| 
         00000122 E29F 
     737 00000123 28A8          MOV       AH,#15374             ; [CPU_] |114| 
         00000124 3C0E 
     738 00000125 1E91          MOVL      *+XAR1[AR0],ACC       ; [CPU_] |114| 
     739                      .dwpsn  file "C:/ti/motorware/motorware_1_01_00_15/sw/modules/user/src/32b/user.c",line 115,column 3,
     740 00000126 D03E          MOVB      XAR0,#62              ; [CPU_] |115| 
     741 00000127 1E91          MOVL      *+XAR1[AR0],ACC       ; [CPU_] |115| 
     742                      .dwpsn  file "C:/ti/motorware/motorware_1_01_00_15/sw/modules/user/src/32b/user.c",line 117,column 3,
     743 00000128 D038          MOVB      XAR0,#56              ; [CPU_] |117| 
     744 00000129 8291          MOVL      XAR3,*+XAR1[AR0]      ; [CPU_] |117| 
     745 0000012a 9A00          MOV       AL,#0                 ; [CPU_] |117| 
     746 0000012b 9B00          MOV       AH,#0                 ; [CPU_] |117| 
     747 0000012c 1E42          MOVL      *-SP[2],ACC           ; [CPU_] |117| 
     748 0000012d A2A9          MOVL      ACC,XAR3              ; [CPU_] |117| 
     749              $C$DW$83        .dwtag  DW_TAG_TI_branch
     750                      .dwattr $C$DW$83, DW_AT_low_pc(0x00)
TMS320C2000 Assembler PC v6.4.9 Wed Dec 02 17:22:59 2015

Tools Copyright (c) 1996-2015 Texas Instruments Incorporated
C:\Users\ywcheng\AppData\Local\Temp\5601210                          PAGE   16

     751                      .dwattr $C$DW$83, DW_AT_name("FS$$CMP")
     752                      .dwattr $C$DW$83, DW_AT_TI_call
     753 0000012e 7640!         LCR       #FS$$CMP              ; [CPU_] |117| 
         0000012f 0000 
     754                      ; call occurs [#FS$$CMP] ; [] |117| 
     755 00000130 5200          CMPB      AL,#0                 ; [CPU_] |117| 
     756 00000131 56C5          BF        $C$L3,LEQ             ; [CPU_] |117| 
         00000132 001B 
     757                      ; branchcc occurs ; [] |117| 
     758 00000133 D03A          MOVB      XAR0,#58              ; [CPU_] |117| 
     759 00000134 8691          MOVL      XAR2,*+XAR1[AR0]      ; [CPU_] |117| 
     760 00000135 9A00          MOV       AL,#0                 ; [CPU_] |117| 
     761 00000136 9B00          MOV       AH,#0                 ; [CPU_] |117| 
     762 00000137 1E42          MOVL      *-SP[2],ACC           ; [CPU_] |117| 
     763 00000138 AAA9          MOVL      ACC,XAR2              ; [CPU_] |117| 
     764              $C$DW$84        .dwtag  DW_TAG_TI_branch
     765                      .dwattr $C$DW$84, DW_AT_low_pc(0x00)
     766                      .dwattr $C$DW$84, DW_AT_name("FS$$CMP")
     767                      .dwattr $C$DW$84, DW_AT_TI_call
     768 00000139 7640!         LCR       #FS$$CMP              ; [CPU_] |117| 
         0000013a 0000 
     769                      ; call occurs [#FS$$CMP] ; [] |117| 
     770 0000013b 5200          CMPB      AL,#0                 ; [CPU_] |117| 
     771 0000013c 56C5          BF        $C$L3,LEQ             ; [CPU_] |117| 
         0000013d 0010 
     772                      ; branchcc occurs ; [] |117| 
     773                      .dwpsn  file "C:/ti/motorware/motorware_1_01_00_15/sw/modules/user/src/32b/user.c",line 119,column 7,
     774 0000013e AA42          MOVL      *-SP[2],XAR2          ; [CPU_] |119| 
     775 0000013f A2A9          MOVL      ACC,XAR3              ; [CPU_] |119| 
     776              $C$DW$85        .dwtag  DW_TAG_TI_branch
     777                      .dwattr $C$DW$85, DW_AT_low_pc(0x00)
     778                      .dwattr $C$DW$85, DW_AT_name("FS$$DIV")
     779                      .dwattr $C$DW$85, DW_AT_TI_call
     780 00000140 7640!         LCR       #FS$$DIV              ; [CPU_] |119| 
         00000141 0000 
     781                      ; call occurs [#FS$$DIV] ; [] |119| 
     782 00000142 1EA6          MOVL      XAR6,ACC              ; [CPU_] |119| 
     783 00000143 FF2F          MOV       ACC,#32512 << 15      ; [CPU_] |119| 
         00000144 7F00 
     784 00000145 1E42          MOVL      *-SP[2],ACC           ; [CPU_] |119| 
     785 00000146 06A6          MOVL      ACC,XAR6              ; [CPU_] |119| 
     786              $C$DW$86        .dwtag  DW_TAG_TI_branch
     787                      .dwattr $C$DW$86, DW_AT_low_pc(0x00)
     788                      .dwattr $C$DW$86, DW_AT_name("FS$$ADD")
     789                      .dwattr $C$DW$86, DW_AT_TI_call
     790 00000147 7640!         LCR       #FS$$ADD              ; [CPU_] |119| 
         00000148 0000 
     791                      ; call occurs [#FS$$ADD] ; [] |119| 
     792              $C$DW$87        .dwtag  DW_TAG_TI_branch
     793                      .dwattr $C$DW$87, DW_AT_low_pc(0x00)
     794                      .dwattr $C$DW$87, DW_AT_name("_sqrt")
     795                      .dwattr $C$DW$87, DW_AT_TI_call
     796 00000149 7640!         LCR       #_sqrt                ; [CPU_] |119| 
         0000014a 0000 
     797                      ; call occurs [#_sqrt] ; [] |119| 
TMS320C2000 Assembler PC v6.4.9 Wed Dec 02 17:22:59 2015

Tools Copyright (c) 1996-2015 Texas Instruments Incorporated
C:\Users\ywcheng\AppData\Local\Temp\5601210                          PAGE   17

     798                      .dwpsn  file "C:/ti/motorware/motorware_1_01_00_15/sw/modules/user/src/32b/user.c",line 120,column 5,
     799 0000014b 6F03          B         $C$L4,UNC             ; [CPU_] |120| 
     800                      ; branch occurs ; [] |120| 
     801 0000014c       $C$L3:    
     802                      .dwpsn  file "C:/ti/motorware/motorware_1_01_00_15/sw/modules/user/src/32b/user.c",line 123,column 7,
     803 0000014c FF2F          MOV       ACC,#32512 << 15      ; [CPU_] |123| 
         0000014d 7F00 
     804 0000014e       $C$L4:    
     805 0000014e D024          MOVB      XAR0,#36              ; [CPU_] |123| 
     806 0000014f 1E91          MOVL      *+XAR1[AR0],ACC       ; [CPU_] |123| 
     807                      .dwpsn  file "C:/ti/motorware/motorware_1_01_00_15/sw/modules/user/src/32b/user.c",line 126,column 3,
     808 00000150 FF2F          MOV       ACC,#32512 << 15      ; [CPU_] |126| 
         00000151 7F00 
     809 00000152 D042          MOVB      XAR0,#66              ; [CPU_] |126| 
     810 00000153 1E91          MOVL      *+XAR1[AR0],ACC       ; [CPU_] |126| 
     811                      .dwpsn  file "C:/ti/motorware/motorware_1_01_00_15/sw/modules/user/src/32b/user.c",line 127,column 3,
     812 00000154 D044          MOVB      XAR0,#68              ; [CPU_] |127| 
     813 00000155 9A00          MOV       AL,#0                 ; [CPU_] |127| 
     814 00000156 28A8          MOV       AH,#49024             ; [CPU_] |127| 
         00000157 BF80 
     815 00000158 1E91          MOVL      *+XAR1[AR0],ACC       ; [CPU_] |127| 
     816                      .dwpsn  file "C:/ti/motorware/motorware_1_01_00_15/sw/modules/user/src/32b/user.c",line 128,column 3,
     817 00000159 D040          MOVB      XAR0,#64              ; [CPU_] |128| 
     818 0000015a 28A9          MOV       AL,#31457             ; [CPU_] |128| 
         0000015b 7AE1 
     819 0000015c 28A8          MOV       AH,#16500             ; [CPU_] |128| 
         0000015d 4074 
     820                      .dwpsn  file "C:/ti/motorware/motorware_1_01_00_15/sw/modules/user/src/32b/user.c",line 142,column 3,
     821 0000015e 8F01          MOVL      XAR4,#75000           ; [CPU_U] |142| 
         0000015f 24F8 
     822                      .dwpsn  file "C:/ti/motorware/motorware_1_01_00_15/sw/modules/user/src/32b/user.c",line 128,column 3,
     823 00000160 1E91          MOVL      *+XAR1[AR0],ACC       ; [CPU_] |128| 
     824                      .dwpsn  file "C:/ti/motorware/motorware_1_01_00_15/sw/modules/user/src/32b/user.c",line 130,column 3,
     825 00000161 D046          MOVB      XAR0,#70              ; [CPU_] |130| 
     826 00000162 28A9          MOV       AL,#46872             ; [CPU_] |130| 
         00000163 B718 
     827 00000164 28A8          MOV       AH,#14545             ; [CPU_] |130| 
         00000165 38D1 
     828 00000166 1E91          MOVL      *+XAR1[AR0],ACC       ; [CPU_] |130| 
     829                      .dwpsn  file "C:/ti/motorware/motorware_1_01_00_15/sw/modules/user/src/32b/user.c",line 131,column 3,
     830 00000167 D048          MOVB      XAR0,#72              ; [CPU_] |131| 
     831 00000168 28A9          MOV       AL,#43139             ; [CPU_] |131| 
         00000169 A883 
     832 0000016a 28A8          MOV       AH,#14331             ; [CPU_] |131| 
         0000016b 37FB 
     833 0000016c 1E91          MOVL      *+XAR1[AR0],ACC       ; [CPU_] |131| 
     834                      .dwpsn  file "C:/ti/motorware/motorware_1_01_00_15/sw/modules/user/src/32b/user.c",line 133,column 3,
     835 0000016d D04A          MOVB      XAR0,#74              ; [CPU_] |133| 
     836 0000016e 9A00          MOV       AL,#0                 ; [CPU_] |133| 
     837 0000016f 9B00          MOV       AH,#0                 ; [CPU_] |133| 
     838 00000170 1E91          MOVL      *+XAR1[AR0],ACC       ; [CPU_] |133| 
     839                      .dwpsn  file "C:/ti/motorware/motorware_1_01_00_15/sw/modules/user/src/32b/user.c",line 134,column 3,
     840 00000171 D04E          MOVB      XAR0,#78              ; [CPU_] |134| 
     841 00000172 FF2F          MOV       ACC,#32512 << 15      ; [CPU_] |134| 
         00000173 7F00 
TMS320C2000 Assembler PC v6.4.9 Wed Dec 02 17:22:59 2015

Tools Copyright (c) 1996-2015 Texas Instruments Incorporated
C:\Users\ywcheng\AppData\Local\Temp\5601210                          PAGE   18

     842 00000174 1E91          MOVL      *+XAR1[AR0],ACC       ; [CPU_] |134| 
     843                      .dwpsn  file "C:/ti/motorware/motorware_1_01_00_15/sw/modules/user/src/32b/user.c",line 135,column 3,
     844 00000175 D04C          MOVB      XAR0,#76              ; [CPU_] |135| 
     845 00000176 1E91          MOVL      *+XAR1[AR0],ACC       ; [CPU_] |135| 
     846                      .dwpsn  file "C:/ti/motorware/motorware_1_01_00_15/sw/modules/user/src/32b/user.c",line 136,column 3,
     847 00000177 D050          MOVB      XAR0,#80              ; [CPU_] |136| 
     848 00000178 28A9          MOV       AL,#50604             ; [CPU_] |136| 
         00000179 C5AC 
     849 0000017a 28A8          MOV       AH,#14247             ; [CPU_] |136| 
         0000017b 37A7 
     850 0000017c 1E91          MOVL      *+XAR1[AR0],ACC       ; [CPU_] |136| 
     851                      .dwpsn  file "C:/ti/motorware/motorware_1_01_00_15/sw/modules/user/src/32b/user.c",line 138,column 3,
     852 0000017d D052          MOVB      XAR0,#82              ; [CPU_] |138| 
     853 0000017e 9A00          MOV       AL,#0                 ; [CPU_] |138| 
     854 0000017f 28A8          MOV       AH,#16800             ; [CPU_] |138| 
         00000180 41A0 
     855 00000181 1E91          MOVL      *+XAR1[AR0],ACC       ; [CPU_] |138| 
     856                      .dwpsn  file "C:/ti/motorware/motorware_1_01_00_15/sw/modules/user/src/32b/user.c",line 140,column 3,
     857 00000182 D054          MOVB      XAR0,#84              ; [CPU_] |140| 
     858 00000183 0200          MOVB      ACC,#0                ; [CPU_] |140| 
     859 00000184 1E91          MOVL      *+XAR1[AR0],ACC       ; [CPU_] |140| 
     860                      .dwpsn  file "C:/ti/motorware/motorware_1_01_00_15/sw/modules/user/src/32b/user.c",line 141,column 3,
     861 00000185 D056          MOVB      XAR0,#86              ; [CPU_] |141| 
     862 00000186 1E91          MOVL      *+XAR1[AR0],ACC       ; [CPU_] |141| 
     863                      .dwpsn  file "C:/ti/motorware/motorware_1_01_00_15/sw/modules/user/src/32b/user.c",line 142,column 3,
     864 00000187 D058          MOVB      XAR0,#88              ; [CPU_] |142| 
     865 00000188 A891          MOVL      *+XAR1[AR0],XAR4      ; [CPU_] |142| 
     866                      .dwpsn  file "C:/ti/motorware/motorware_1_01_00_15/sw/modules/user/src/32b/user.c",line 143,column 3,
     867 00000189 D05A          MOVB      XAR0,#90              ; [CPU_] |143| 
     868                      .dwpsn  file "C:/ti/motorware/motorware_1_01_00_15/sw/modules/user/src/32b/user.c",line 147,column 3,
     869 0000018a 8F01          MOVL      XAR4,#120000          ; [CPU_U] |147| 
         0000018b D4C0 
     870                      .dwpsn  file "C:/ti/motorware/motorware_1_01_00_15/sw/modules/user/src/32b/user.c",line 143,column 3,
     871 0000018c 1E91          MOVL      *+XAR1[AR0],ACC       ; [CPU_] |143| 
     872                      .dwpsn  file "C:/ti/motorware/motorware_1_01_00_15/sw/modules/user/src/32b/user.c",line 145,column 3,
     873 0000018d D05C          MOVB      XAR0,#92              ; [CPU_] |145| 
     874 0000018e 1E91          MOVL      *+XAR1[AR0],ACC       ; [CPU_] |145| 
     875                      .dwpsn  file "C:/ti/motorware/motorware_1_01_00_15/sw/modules/user/src/32b/user.c",line 146,column 3,
     876 0000018f D05E          MOVB      XAR0,#94              ; [CPU_] |146| 
     877 00000190 1E91          MOVL      *+XAR1[AR0],ACC       ; [CPU_] |146| 
     878                      .dwpsn  file "C:/ti/motorware/motorware_1_01_00_15/sw/modules/user/src/32b/user.c",line 147,column 3,
     879 00000191 D060          MOVB      XAR0,#96              ; [CPU_] |147| 
     880 00000192 A891          MOVL      *+XAR1[AR0],XAR4      ; [CPU_] |147| 
     881                      .dwpsn  file "C:/ti/motorware/motorware_1_01_00_15/sw/modules/user/src/32b/user.c",line 148,column 3,
     882 00000193 D062          MOVB      XAR0,#98              ; [CPU_] |148| 
     883                      .dwpsn  file "C:/ti/motorware/motorware_1_01_00_15/sw/modules/user/src/32b/user.c",line 149,column 3,
     884 00000194 8F03          MOVL      XAR4,#225000          ; [CPU_U] |149| 
         00000195 6EE8 
     885                      .dwpsn  file "C:/ti/motorware/motorware_1_01_00_15/sw/modules/user/src/32b/user.c",line 148,column 3,
     886 00000196 1E91          MOVL      *+XAR1[AR0],ACC       ; [CPU_] |148| 
     887                      .dwpsn  file "C:/ti/motorware/motorware_1_01_00_15/sw/modules/user/src/32b/user.c",line 149,column 3,
     888 00000197 D064          MOVB      XAR0,#100             ; [CPU_] |149| 
     889 00000198 A891          MOVL      *+XAR1[AR0],XAR4      ; [CPU_] |149| 
     890                      .dwpsn  file "C:/ti/motorware/motorware_1_01_00_15/sw/modules/user/src/32b/user.c",line 150,column 3,
     891 00000199 D066          MOVB      XAR0,#102             ; [CPU_] |150| 
TMS320C2000 Assembler PC v6.4.9 Wed Dec 02 17:22:59 2015

Tools Copyright (c) 1996-2015 Texas Instruments Incorporated
C:\Users\ywcheng\AppData\Local\Temp\5601210                          PAGE   19

     892 0000019a 8F06          MOVL      XAR4,#450000          ; [CPU_U] |150| 
         0000019b DDD0 
     893 0000019c A891          MOVL      *+XAR1[AR0],XAR4      ; [CPU_] |150| 
     894                      .dwpsn  file "C:/ti/motorware/motorware_1_01_00_15/sw/modules/user/src/32b/user.c",line 151,column 3,
     895 0000019d D068          MOVB      XAR0,#104             ; [CPU_] |151| 
     896 0000019e 8F00          MOVL      XAR4,#3000            ; [CPU_U] |151| 
         0000019f 0BB8 
     897 000001a0 A891          MOVL      *+XAR1[AR0],XAR4      ; [CPU_] |151| 
     898                      .dwpsn  file "C:/ti/motorware/motorware_1_01_00_15/sw/modules/user/src/32b/user.c",line 152,column 3,
     899 000001a1 D06A          MOVB      XAR0,#106             ; [CPU_] |152| 
     900                      .dwpsn  file "C:/ti/motorware/motorware_1_01_00_15/sw/modules/user/src/32b/user.c",line 153,column 3,
     901 000001a2 8F00          MOVL      XAR4,#30000           ; [CPU_U] |153| 
         000001a3 7530 
     902                      .dwpsn  file "C:/ti/motorware/motorware_1_01_00_15/sw/modules/user/src/32b/user.c",line 152,column 3,
     903 000001a4 1E91          MOVL      *+XAR1[AR0],ACC       ; [CPU_] |152| 
     904                      .dwpsn  file "C:/ti/motorware/motorware_1_01_00_15/sw/modules/user/src/32b/user.c",line 153,column 3,
     905 000001a5 D06C          MOVB      XAR0,#108             ; [CPU_] |153| 
     906 000001a6 A891          MOVL      *+XAR1[AR0],XAR4      ; [CPU_] |153| 
     907                      .dwpsn  file "C:/ti/motorware/motorware_1_01_00_15/sw/modules/user/src/32b/user.c",line 154,column 3,
     908 000001a7 D06E          MOVB      XAR0,#110             ; [CPU_] |154| 
     909                      .dwpsn  file "C:/ti/motorware/motorware_1_01_00_15/sw/modules/user/src/32b/user.c",line 156,column 3,
     910 000001a8 8F04          MOVL      XAR4,#300000          ; [CPU_U] |156| 
         000001a9 93E0 
     911                      .dwpsn  file "C:/ti/motorware/motorware_1_01_00_15/sw/modules/user/src/32b/user.c",line 154,column 3,
     912 000001aa 1E91          MOVL      *+XAR1[AR0],ACC       ; [CPU_] |154| 
     913                      .dwpsn  file "C:/ti/motorware/motorware_1_01_00_15/sw/modules/user/src/32b/user.c",line 155,column 3,
     914 000001ab D070          MOVB      XAR0,#112             ; [CPU_] |155| 
     915 000001ac 1E91          MOVL      *+XAR1[AR0],ACC       ; [CPU_] |155| 
     916                      .dwpsn  file "C:/ti/motorware/motorware_1_01_00_15/sw/modules/user/src/32b/user.c",line 156,column 3,
     917 000001ad D072          MOVB      XAR0,#114             ; [CPU_] |156| 
     918 000001ae A891          MOVL      *+XAR1[AR0],XAR4      ; [CPU_] |156| 
     919                      .dwpsn  file "C:/ti/motorware/motorware_1_01_00_15/sw/modules/user/src/32b/user.c",line 157,column 3,
     920 000001af D074          MOVB      XAR0,#116             ; [CPU_] |157| 
     921                      .dwpsn  file "C:/ti/motorware/motorware_1_01_00_15/sw/modules/user/src/32b/user.c",line 162,column 3,
     922 000001b0 8F02          MOVL      XAR4,#150000          ; [CPU_U] |162| 
         000001b1 49F0 
     923                      .dwpsn  file "C:/ti/motorware/motorware_1_01_00_15/sw/modules/user/src/32b/user.c",line 157,column 3,
     924 000001b2 1E91          MOVL      *+XAR1[AR0],ACC       ; [CPU_] |157| 
     925                      .dwpsn  file "C:/ti/motorware/motorware_1_01_00_15/sw/modules/user/src/32b/user.c",line 158,column 3,
     926 000001b3 D076          MOVB      XAR0,#118             ; [CPU_] |158| 
     927 000001b4 1E91          MOVL      *+XAR1[AR0],ACC       ; [CPU_] |158| 
     928                      .dwpsn  file "C:/ti/motorware/motorware_1_01_00_15/sw/modules/user/src/32b/user.c",line 160,column 3,
     929 000001b5 D078          MOVB      XAR0,#120             ; [CPU_] |160| 
     930 000001b6 1E91          MOVL      *+XAR1[AR0],ACC       ; [CPU_] |160| 
     931                      .dwpsn  file "C:/ti/motorware/motorware_1_01_00_15/sw/modules/user/src/32b/user.c",line 161,column 3,
     932 000001b7 D07A          MOVB      XAR0,#122             ; [CPU_] |161| 
     933 000001b8 1E91          MOVL      *+XAR1[AR0],ACC       ; [CPU_] |161| 
     934                      .dwpsn  file "C:/ti/motorware/motorware_1_01_00_15/sw/modules/user/src/32b/user.c",line 162,column 3,
     935 000001b9 D07C          MOVB      XAR0,#124             ; [CPU_] |162| 
     936 000001ba A891          MOVL      *+XAR1[AR0],XAR4      ; [CPU_] |162| 
     937                      .dwpsn  file "C:/ti/motorware/motorware_1_01_00_15/sw/modules/user/src/32b/user.c",line 163,column 3,
     938 000001bb D07E          MOVB      XAR0,#126             ; [CPU_] |163| 
     939 000001bc 8F00          MOVL      XAR4,#3000            ; [CPU_U] |163| 
         000001bd 0BB8 
     940 000001be A891          MOVL      *+XAR1[AR0],XAR4      ; [CPU_] |163| 
TMS320C2000 Assembler PC v6.4.9 Wed Dec 02 17:22:59 2015

Tools Copyright (c) 1996-2015 Texas Instruments Incorporated
C:\Users\ywcheng\AppData\Local\Temp\5601210                          PAGE   20

     941                      .dwpsn  file "C:/ti/motorware/motorware_1_01_00_15/sw/modules/user/src/32b/user.c",line 164,column 3,
     942 000001bf D080          MOVB      XAR0,#128             ; [CPU_] |164| 
     943 000001c0 8F00          MOVL      XAR4,#60000           ; [CPU_U] |164| 
         000001c1 EA60 
     944 000001c2 A891          MOVL      *+XAR1[AR0],XAR4      ; [CPU_] |164| 
     945                      .dwpsn  file "C:/ti/motorware/motorware_1_01_00_15/sw/modules/user/src/32b/user.c",line 165,column 3,
     946 000001c3 D082          MOVB      XAR0,#130             ; [CPU_] |165| 
     947                      .dwpsn  file "C:/ti/motorware/motorware_1_01_00_15/sw/modules/user/src/32b/user.c",line 169,column 3,
     948 000001c4 8F00          MOVL      XAR4,#45000           ; [CPU_U] |169| 
         000001c5 AFC8 
     949                      .dwpsn  file "C:/ti/motorware/motorware_1_01_00_15/sw/modules/user/src/32b/user.c",line 165,column 3,
     950 000001c6 1E91          MOVL      *+XAR1[AR0],ACC       ; [CPU_] |165| 
     951                      .dwpsn  file "C:/ti/motorware/motorware_1_01_00_15/sw/modules/user/src/32b/user.c",line 167,column 3,
     952 000001c7 D084          MOVB      XAR0,#132             ; [CPU_] |167| 
     953 000001c8 1E91          MOVL      *+XAR1[AR0],ACC       ; [CPU_] |167| 
     954                      .dwpsn  file "C:/ti/motorware/motorware_1_01_00_15/sw/modules/user/src/32b/user.c",line 168,column 3,
     955 000001c9 D086          MOVB      XAR0,#134             ; [CPU_] |168| 
     956 000001ca 1E91          MOVL      *+XAR1[AR0],ACC       ; [CPU_] |168| 
     957                      .dwpsn  file "C:/ti/motorware/motorware_1_01_00_15/sw/modules/user/src/32b/user.c",line 169,column 3,
     958 000001cb D088          MOVB      XAR0,#136             ; [CPU_] |169| 
     959 000001cc A891          MOVL      *+XAR1[AR0],XAR4      ; [CPU_] |169| 
     960                      .dwpsn  file "C:/ti/motorware/motorware_1_01_00_15/sw/modules/user/src/32b/user.c",line 170,column 3,
     961 000001cd D08A          MOVB      XAR0,#138             ; [CPU_] |170| 
     962 000001ce A891          MOVL      *+XAR1[AR0],XAR4      ; [CPU_] |170| 
     963                      .dwpsn  file "C:/ti/motorware/motorware_1_01_00_15/sw/modules/user/src/32b/user.c",line 171,column 3,
     964 000001cf D08C          MOVB      XAR0,#140             ; [CPU_] |171| 
     965 000001d0 8F00          MOVL      XAR4,#3000            ; [CPU_U] |171| 
         000001d1 0BB8 
     966 000001d2 A891          MOVL      *+XAR1[AR0],XAR4      ; [CPU_] |171| 
     967                      .dwpsn  file "C:/ti/motorware/motorware_1_01_00_15/sw/modules/user/src/32b/user.c",line 172,column 3,
     968 000001d3 D08E          MOVB      XAR0,#142             ; [CPU_] |172| 
     969 000001d4 8F06          MOVL      XAR4,#450000          ; [CPU_U] |172| 
         000001d5 DDD0 
     970 000001d6 A891          MOVL      *+XAR1[AR0],XAR4      ; [CPU_] |172| 
     971                      .dwpsn  file "C:/ti/motorware/motorware_1_01_00_15/sw/modules/user/src/32b/user.c",line 173,column 3,
     972 000001d7 D090          MOVB      XAR0,#144             ; [CPU_] |173| 
     973                      .dwpsn  file "C:/ti/motorware/motorware_1_01_00_15/sw/modules/user/src/32b/user.c",line 177,column 3,
     974 000001d8 8F00          MOVL      XAR4,#15000           ; [CPU_U] |177| 
         000001d9 3A98 
     975                      .dwpsn  file "C:/ti/motorware/motorware_1_01_00_15/sw/modules/user/src/32b/user.c",line 173,column 3,
     976 000001da 1E91          MOVL      *+XAR1[AR0],ACC       ; [CPU_] |173| 
     977                      .dwpsn  file "C:/ti/motorware/motorware_1_01_00_15/sw/modules/user/src/32b/user.c",line 175,column 3,
     978 000001db D092          MOVB      XAR0,#146             ; [CPU_] |175| 
     979 000001dc 1E91          MOVL      *+XAR1[AR0],ACC       ; [CPU_] |175| 
     980                      .dwpsn  file "C:/ti/motorware/motorware_1_01_00_15/sw/modules/user/src/32b/user.c",line 176,column 3,
     981 000001dd D094          MOVB      XAR0,#148             ; [CPU_] |176| 
     982 000001de 1E91          MOVL      *+XAR1[AR0],ACC       ; [CPU_] |176| 
     983                      .dwpsn  file "C:/ti/motorware/motorware_1_01_00_15/sw/modules/user/src/32b/user.c",line 177,column 3,
     984 000001df D096          MOVB      XAR0,#150             ; [CPU_] |177| 
     985 000001e0 A891          MOVL      *+XAR1[AR0],XAR4      ; [CPU_] |177| 
     986                      .dwpsn  file "C:/ti/motorware/motorware_1_01_00_15/sw/modules/user/src/32b/user.c",line 178,column 3,
     987 000001e1 D098          MOVB      XAR0,#152             ; [CPU_] |178| 
     988 000001e2 8F00          MOVL      XAR4,#30000           ; [CPU_U] |178| 
         000001e3 7530 
     989 000001e4 A891          MOVL      *+XAR1[AR0],XAR4      ; [CPU_] |178| 
TMS320C2000 Assembler PC v6.4.9 Wed Dec 02 17:22:59 2015

Tools Copyright (c) 1996-2015 Texas Instruments Incorporated
C:\Users\ywcheng\AppData\Local\Temp\5601210                          PAGE   21

     990                      .dwpsn  file "C:/ti/motorware/motorware_1_01_00_15/sw/modules/user/src/32b/user.c",line 179,column 3,
     991 000001e5 D09A          MOVB      XAR0,#154             ; [CPU_] |179| 
     992 000001e6 8F01          MOVL      XAR4,#105000          ; [CPU_U] |179| 
         000001e7 9A28 
     993 000001e8 A891          MOVL      *+XAR1[AR0],XAR4      ; [CPU_] |179| 
     994                      .dwpsn  file "C:/ti/motorware/motorware_1_01_00_15/sw/modules/user/src/32b/user.c",line 180,column 3,
     995 000001e9 D09C          MOVB      XAR0,#156             ; [CPU_] |180| 
     996                      .dwpsn  file "C:/ti/motorware/motorware_1_01_00_15/sw/modules/user/src/32b/user.c",line 182,column 3,
     997 000001ea 8F00          MOVL      XAR4,#15000           ; [CPU_U] |182| 
         000001eb 3A98 
     998                      .dwpsn  file "C:/ti/motorware/motorware_1_01_00_15/sw/modules/user/src/32b/user.c",line 180,column 3,
     999 000001ec 1E91          MOVL      *+XAR1[AR0],ACC       ; [CPU_] |180| 
    1000                      .dwpsn  file "C:/ti/motorware/motorware_1_01_00_15/sw/modules/user/src/32b/user.c",line 182,column 3,
    1001 000001ed D09E          MOVB      XAR0,#158             ; [CPU_] |182| 
    1002                      .dwpsn  file "C:/ti/motorware/motorware_1_01_00_15/sw/modules/user/src/32b/user.c",line 186,column 3,
    1003 000001ee 0264          MOVB      ACC,#100              ; [CPU_] |186| 
    1004                      .dwpsn  file "C:/ti/motorware/motorware_1_01_00_15/sw/modules/user/src/32b/user.c",line 182,column 3,
    1005 000001ef A891          MOVL      *+XAR1[AR0],XAR4      ; [CPU_] |182| 
    1006                      .dwpsn  file "C:/ti/motorware/motorware_1_01_00_15/sw/modules/user/src/32b/user.c",line 184,column 3,
    1007 000001f0 D0A0          MOVB      XAR0,#160             ; [CPU_] |184| 
    1008 000001f1 A891          MOVL      *+XAR1[AR0],XAR4      ; [CPU_] |184| 
    1009                      .dwpsn  file "C:/ti/motorware/motorware_1_01_00_15/sw/modules/user/src/32b/user.c",line 186,column 3,
    1010 000001f2 D0A2          MOVB      XAR0,#162             ; [CPU_] |186| 
    1011                      .dwpsn  file "C:/ti/motorware/motorware_1_01_00_15/sw/modules/user/src/32b/user.c",line 188,column 3,
    1012 000001f3 8F00          MOVL      XAR4,#1000            ; [CPU_U] |188| 
         000001f4 03E8 
    1013                      .dwpsn  file "C:/ti/motorware/motorware_1_01_00_15/sw/modules/user/src/32b/user.c",line 186,column 3,
    1014 000001f5 1E91          MOVL      *+XAR1[AR0],ACC       ; [CPU_] |186| 
    1015                      .dwpsn  file "C:/ti/motorware/motorware_1_01_00_15/sw/modules/user/src/32b/user.c",line 188,column 3,
    1016 000001f6 D0A4          MOVB      XAR0,#164             ; [CPU_] |188| 
    1017                      .dwpsn  file "C:/ti/motorware/motorware_1_01_00_15/sw/modules/user/src/32b/user.c",line 190,column 3,
    1018 000001f7 28A9          MOV       AL,#53093             ; [CPU_] |190| 
         000001f8 CF65 
    1019 000001f9 28A8          MOV       AH,#14475             ; [CPU_] |190| 
         000001fa 388B 
    1020                      .dwpsn  file "C:/ti/motorware/motorware_1_01_00_15/sw/modules/user/src/32b/user.c",line 188,column 3,
    1021 000001fb A891          MOVL      *+XAR1[AR0],XAR4      ; [CPU_] |188| 
    1022                      .dwpsn  file "C:/ti/motorware/motorware_1_01_00_15/sw/modules/user/src/32b/user.c",line 190,column 3,
    1023 000001fc D0A6          MOVB      XAR0,#166             ; [CPU_] |190| 
    1024 000001fd 1E91          MOVL      *+XAR1[AR0],ACC       ; [CPU_] |190| 
    1025                      .dwpsn  file "C:/ti/motorware/motorware_1_01_00_15/sw/modules/user/src/32b/user.c",line 192,column 3,
    1026 000001fe D0A8          MOVB      XAR0,#168             ; [CPU_] |192| 
    1027 000001ff 28A9          MOV       AL,#31457             ; [CPU_] |192| 
         00000200 7AE1 
    1028 00000201 28A8          MOV       AH,#49140             ; [CPU_] |192| 
         00000202 BFF4 
    1029 00000203 FE82          SUBB      SP,#2                 ; [CPU_U] 
    1030                      .dwcfi  cfa_offset, -8
    1031 00000204 1E91          MOVL      *+XAR1[AR0],ACC       ; [CPU_] |192| 
    1032 00000205 82BE          MOVL      XAR3,*--SP            ; [CPU_] 
    1033                      .dwcfi  cfa_offset, -6
    1034                      .dwcfi  restore_reg, 11
    1035 00000206 86BE          MOVL      XAR2,*--SP            ; [CPU_] 
    1036                      .dwcfi  cfa_offset, -4
    1037                      .dwcfi  restore_reg, 9
TMS320C2000 Assembler PC v6.4.9 Wed Dec 02 17:22:59 2015

Tools Copyright (c) 1996-2015 Texas Instruments Incorporated
C:\Users\ywcheng\AppData\Local\Temp\5601210                          PAGE   22

    1038 00000207 8BBE          MOVL      XAR1,*--SP            ; [CPU_] 
    1039                      .dwcfi  cfa_offset, -2
    1040                      .dwcfi  restore_reg, 7
    1041              $C$DW$88        .dwtag  DW_TAG_TI_branch
    1042                      .dwattr $C$DW$88, DW_AT_low_pc(0x00)
    1043                      .dwattr $C$DW$88, DW_AT_TI_return
    1044 00000208 0006          LRETR     ; [CPU_] 
    1045                      ; return occurs ; [] 
    1046                      .dwattr $C$DW$80, DW_AT_TI_end_file("C:/ti/motorware/motorware_1_01_00_15/sw/modules/user/src/32b/use
    1047                      .dwattr $C$DW$80, DW_AT_TI_end_line(0xc3)
    1048                      .dwattr $C$DW$80, DW_AT_TI_end_column(0x01)
    1049                      .dwendentry
    1050                      .dwendtag $C$DW$80
    1051              
    1052 00000209               .sect   ".text"
    1053                      .clink
    1054                      .global _USER_setErrorCode
    1055              
    1056              $C$DW$89        .dwtag  DW_TAG_subprogram, DW_AT_name("USER_setErrorCode")
    1057                      .dwattr $C$DW$89, DW_AT_low_pc(_USER_setErrorCode)
    1058                      .dwattr $C$DW$89, DW_AT_high_pc(0x00)
    1059                      .dwattr $C$DW$89, DW_AT_TI_symbol_name("_USER_setErrorCode")
    1060                      .dwattr $C$DW$89, DW_AT_external
    1061                      .dwattr $C$DW$89, DW_AT_TI_begin_file("C:/ti/motorware/motorware_1_01_00_15/sw/modules/user/src/32b/u
    1062                      .dwattr $C$DW$89, DW_AT_TI_begin_line(0x339)
    1063                      .dwattr $C$DW$89, DW_AT_TI_begin_column(0x06)
    1064                      .dwattr $C$DW$89, DW_AT_TI_max_frame_size(-2)
    1065                      .dwpsn  file "C:/ti/motorware/motorware_1_01_00_15/sw/modules/user/src/32b/user.c",line 826,column 1,
    1066              
    1067                      .dwfde $C$DW$CIE, _USER_setErrorCode
    1068              $C$DW$90        .dwtag  DW_TAG_formal_parameter, DW_AT_name("pUserParams")
    1069                      .dwattr $C$DW$90, DW_AT_TI_symbol_name("_pUserParams")
    1070                      .dwattr $C$DW$90, DW_AT_type(*$C$DW$T$79)
    1071                      .dwattr $C$DW$90, DW_AT_location[DW_OP_reg12]
    1072              $C$DW$91        .dwtag  DW_TAG_formal_parameter, DW_AT_name("errorCode")
    1073                      .dwattr $C$DW$91, DW_AT_TI_symbol_name("_errorCode")
    1074                      .dwattr $C$DW$91, DW_AT_type(*$C$DW$T$77)
    1075                      .dwattr $C$DW$91, DW_AT_location[DW_OP_reg0]
    1076              
    1077              ;***************************************************************
    1078              ;* FNAME: _USER_setErrorCode            FR SIZE:   0           *
    1079              ;*                                                             *
    1080              ;* FUNCTION ENVIRONMENT                                        *
    1081              ;*                                                             *
    1082              ;* FUNCTION PROPERTIES                                         *
    1083              ;*                            0 Parameter,  0 Auto,  0 SOE     *
    1084              ;***************************************************************
    1085              
    1086              _USER_setErrorCode:
    1087              ;* AR4   assigned to _pUserParams
    1088              $C$DW$92        .dwtag  DW_TAG_variable, DW_AT_name("pUserParams")
    1089                      .dwattr $C$DW$92, DW_AT_TI_symbol_name("_pUserParams")
    1090                      .dwattr $C$DW$92, DW_AT_type(*$C$DW$T$90)
    1091                      .dwattr $C$DW$92, DW_AT_location[DW_OP_reg12]
    1092              ;* AL    assigned to _errorCode
TMS320C2000 Assembler PC v6.4.9 Wed Dec 02 17:22:59 2015

Tools Copyright (c) 1996-2015 Texas Instruments Incorporated
C:\Users\ywcheng\AppData\Local\Temp\5601210                          PAGE   23

    1093              $C$DW$93        .dwtag  DW_TAG_variable, DW_AT_name("errorCode")
    1094                      .dwattr $C$DW$93, DW_AT_TI_symbol_name("_errorCode")
    1095                      .dwattr $C$DW$93, DW_AT_type(*$C$DW$T$77)
    1096                      .dwattr $C$DW$93, DW_AT_location[DW_OP_reg0]
    1097                      .dwcfi  cfa_offset, -2
    1098                      .dwcfi  save_reg_to_mem, 26, 0
    1099                      .dwpsn  file "C:/ti/motorware/motorware_1_01_00_15/sw/modules/user/src/32b/user.c",line 827,column 3,
    1100 00000209 D0AA          MOVB      XAR0,#170             ; [CPU_] |827| 
    1101 0000020a 9694          MOV       *+XAR4[AR0],AL        ; [CPU_] |827| 
    1102              $C$DW$94        .dwtag  DW_TAG_TI_branch
    1103                      .dwattr $C$DW$94, DW_AT_low_pc(0x00)
    1104                      .dwattr $C$DW$94, DW_AT_TI_return
    1105 0000020b 0006          LRETR     ; [CPU_] 
    1106                      ; return occurs ; [] 
    1107                      .dwattr $C$DW$89, DW_AT_TI_end_file("C:/ti/motorware/motorware_1_01_00_15/sw/modules/user/src/32b/use
    1108                      .dwattr $C$DW$89, DW_AT_TI_end_line(0x33e)
    1109                      .dwattr $C$DW$89, DW_AT_TI_end_column(0x01)
    1110                      .dwendentry
    1111                      .dwendtag $C$DW$89
    1112              
    1113 0000020c               .sect   ".text"
    1114                      .clink
    1115                      .global _USER_getErrorCode
    1116              
    1117              $C$DW$95        .dwtag  DW_TAG_subprogram, DW_AT_name("USER_getErrorCode")
    1118                      .dwattr $C$DW$95, DW_AT_low_pc(_USER_getErrorCode)
    1119                      .dwattr $C$DW$95, DW_AT_high_pc(0x00)
    1120                      .dwattr $C$DW$95, DW_AT_TI_symbol_name("_USER_getErrorCode")
    1121                      .dwattr $C$DW$95, DW_AT_external
    1122                      .dwattr $C$DW$95, DW_AT_type(*$C$DW$T$75)
    1123                      .dwattr $C$DW$95, DW_AT_TI_begin_file("C:/ti/motorware/motorware_1_01_00_15/sw/modules/user/src/32b/u
    1124                      .dwattr $C$DW$95, DW_AT_TI_begin_line(0x333)
    1125                      .dwattr $C$DW$95, DW_AT_TI_begin_column(0x12)
    1126                      .dwattr $C$DW$95, DW_AT_TI_max_frame_size(-2)
    1127                      .dwpsn  file "C:/ti/motorware/motorware_1_01_00_15/sw/modules/user/src/32b/user.c",line 820,column 1,
    1128              
    1129                      .dwfde $C$DW$CIE, _USER_getErrorCode
    1130              $C$DW$96        .dwtag  DW_TAG_formal_parameter, DW_AT_name("pUserParams")
    1131                      .dwattr $C$DW$96, DW_AT_TI_symbol_name("_pUserParams")
    1132                      .dwattr $C$DW$96, DW_AT_type(*$C$DW$T$79)
    1133                      .dwattr $C$DW$96, DW_AT_location[DW_OP_reg12]
    1134              
    1135              ;***************************************************************
    1136              ;* FNAME: _USER_getErrorCode            FR SIZE:   0           *
    1137              ;*                                                             *
    1138              ;* FUNCTION ENVIRONMENT                                        *
    1139              ;*                                                             *
    1140              ;* FUNCTION PROPERTIES                                         *
    1141              ;*                            0 Parameter,  0 Auto,  0 SOE     *
    1142              ;***************************************************************
    1143              
    1144              _USER_getErrorCode:
    1145              ;* AR4   assigned to _pUserParams
    1146              $C$DW$97        .dwtag  DW_TAG_variable, DW_AT_name("pUserParams")
    1147                      .dwattr $C$DW$97, DW_AT_TI_symbol_name("_pUserParams")
TMS320C2000 Assembler PC v6.4.9 Wed Dec 02 17:22:59 2015

Tools Copyright (c) 1996-2015 Texas Instruments Incorporated
C:\Users\ywcheng\AppData\Local\Temp\5601210                          PAGE   24

    1148                      .dwattr $C$DW$97, DW_AT_type(*$C$DW$T$90)
    1149                      .dwattr $C$DW$97, DW_AT_location[DW_OP_reg12]
    1150                      .dwcfi  cfa_offset, -2
    1151                      .dwcfi  save_reg_to_mem, 26, 0
    1152                      .dwpsn  file "C:/ti/motorware/motorware_1_01_00_15/sw/modules/user/src/32b/user.c",line 821,column 3,
    1153 0000020c D0AA          MOVB      XAR0,#170             ; [CPU_] |821| 
    1154 0000020d 9294          MOV       AL,*+XAR4[AR0]        ; [CPU_] |821| 
    1155              $C$DW$98        .dwtag  DW_TAG_TI_branch
    1156                      .dwattr $C$DW$98, DW_AT_low_pc(0x00)
    1157                      .dwattr $C$DW$98, DW_AT_TI_return
    1158 0000020e 0006          LRETR     ; [CPU_] 
    1159                      ; return occurs ; [] 
    1160                      .dwattr $C$DW$95, DW_AT_TI_end_file("C:/ti/motorware/motorware_1_01_00_15/sw/modules/user/src/32b/use
    1161                      .dwattr $C$DW$95, DW_AT_TI_end_line(0x336)
    1162                      .dwattr $C$DW$95, DW_AT_TI_end_column(0x01)
    1163                      .dwendentry
    1164                      .dwendtag $C$DW$95
    1165              
    1166 0000020f               .sect   ".text"
    1167                      .clink
    1168                      .global _USER_computeTorque_lbin
    1169              
    1170              $C$DW$99        .dwtag  DW_TAG_subprogram, DW_AT_name("USER_computeTorque_lbin")
    1171                      .dwattr $C$DW$99, DW_AT_low_pc(_USER_computeTorque_lbin)
    1172                      .dwattr $C$DW$99, DW_AT_high_pc(0x00)
    1173                      .dwattr $C$DW$99, DW_AT_TI_symbol_name("_USER_computeTorque_lbin")
    1174                      .dwattr $C$DW$99, DW_AT_external
    1175                      .dwattr $C$DW$99, DW_AT_type(*$C$DW$T$20)
    1176                      .dwattr $C$DW$99, DW_AT_TI_begin_file("C:/ti/motorware/motorware_1_01_00_15/sw/modules/user/src/32b/u
    1177                      .dwattr $C$DW$99, DW_AT_TI_begin_line(0x3e3)
    1178                      .dwattr $C$DW$99, DW_AT_TI_begin_column(0x05)
    1179                      .dwattr $C$DW$99, DW_AT_TI_max_frame_size(-16)
    1180                      .dwpsn  file "C:/ti/motorware/motorware_1_01_00_15/sw/modules/user/src/32b/user.c",line 996,column 1,
    1181              
    1182                      .dwfde $C$DW$CIE, _USER_computeTorque_lbin
    1183              $C$DW$100       .dwtag  DW_TAG_formal_parameter, DW_AT_name("handle")
    1184                      .dwattr $C$DW$100, DW_AT_TI_symbol_name("_handle")
    1185                      .dwattr $C$DW$100, DW_AT_type(*$C$DW$T$87)
    1186                      .dwattr $C$DW$100, DW_AT_location[DW_OP_reg12]
    1187              $C$DW$101       .dwtag  DW_TAG_formal_parameter, DW_AT_name("torque_Flux_sf")
    1188                      .dwattr $C$DW$101, DW_AT_TI_symbol_name("_torque_Flux_sf")
    1189                      .dwattr $C$DW$101, DW_AT_type(*$C$DW$T$93)
    1190                      .dwattr $C$DW$101, DW_AT_location[DW_OP_reg0]
    1191              $C$DW$102       .dwtag  DW_TAG_formal_parameter, DW_AT_name("torque_Ls_sf")
    1192                      .dwattr $C$DW$102, DW_AT_TI_symbol_name("_torque_Ls_sf")
    1193                      .dwattr $C$DW$102, DW_AT_type(*$C$DW$T$93)
    1194                      .dwattr $C$DW$102, DW_AT_location[DW_OP_breg20 -18]
    1195              
    1196              ;***************************************************************
    1197              ;* FNAME: _USER_computeTorque_lbin      FR SIZE:  14           *
    1198              ;*                                                             *
    1199              ;* FUNCTION ENVIRONMENT                                        *
    1200              ;*                                                             *
    1201              ;* FUNCTION PROPERTIES                                         *
    1202              ;*                            0 Parameter,  8 Auto,  6 SOE     *
TMS320C2000 Assembler PC v6.4.9 Wed Dec 02 17:22:59 2015

Tools Copyright (c) 1996-2015 Texas Instruments Incorporated
C:\Users\ywcheng\AppData\Local\Temp\5601210                          PAGE   25

    1203              ;***************************************************************
    1204              
    1205              _USER_computeTorque_lbin:
    1206              ;* AR1   assigned to _handle
    1207              $C$DW$103       .dwtag  DW_TAG_variable, DW_AT_name("handle")
    1208                      .dwattr $C$DW$103, DW_AT_TI_symbol_name("_handle")
    1209                      .dwattr $C$DW$103, DW_AT_type(*$C$DW$T$88)
    1210                      .dwattr $C$DW$103, DW_AT_location[DW_OP_reg6]
    1211              $C$DW$104       .dwtag  DW_TAG_variable, DW_AT_name("torque_Flux_sf")
    1212                      .dwattr $C$DW$104, DW_AT_TI_symbol_name("_torque_Flux_sf")
    1213                      .dwattr $C$DW$104, DW_AT_type(*$C$DW$T$93)
    1214                      .dwattr $C$DW$104, DW_AT_location[DW_OP_breg20 -2]
    1215              $C$DW$105       .dwtag  DW_TAG_variable, DW_AT_name("torque_Ls_sf")
    1216                      .dwattr $C$DW$105, DW_AT_TI_symbol_name("_torque_Ls_sf")
    1217                      .dwattr $C$DW$105, DW_AT_type(*$C$DW$T$93)
    1218                      .dwattr $C$DW$105, DW_AT_location[DW_OP_breg20 -4]
    1219              $C$DW$106       .dwtag  DW_TAG_variable, DW_AT_name("Flux_pu")
    1220                      .dwattr $C$DW$106, DW_AT_TI_symbol_name("_Flux_pu")
    1221                      .dwattr $C$DW$106, DW_AT_type(*$C$DW$T$20)
    1222                      .dwattr $C$DW$106, DW_AT_location[DW_OP_breg20 -6]
    1223              ;* AR3   assigned to _Id_pu
    1224              $C$DW$107       .dwtag  DW_TAG_variable, DW_AT_name("Id_pu")
    1225                      .dwattr $C$DW$107, DW_AT_TI_symbol_name("_Id_pu")
    1226                      .dwattr $C$DW$107, DW_AT_type(*$C$DW$T$20)
    1227                      .dwattr $C$DW$107, DW_AT_location[DW_OP_reg10]
    1228              ;* AR2   assigned to _Iq_pu
    1229              $C$DW$108       .dwtag  DW_TAG_variable, DW_AT_name("Iq_pu")
    1230                      .dwattr $C$DW$108, DW_AT_TI_symbol_name("_Iq_pu")
    1231                      .dwattr $C$DW$108, DW_AT_type(*$C$DW$T$20)
    1232                      .dwattr $C$DW$108, DW_AT_location[DW_OP_reg8]
    1233              ;* AR7   assigned to _Ld_minus_Lq_pu
    1234              $C$DW$109       .dwtag  DW_TAG_variable, DW_AT_name("Ld_minus_Lq_pu")
    1235                      .dwattr $C$DW$109, DW_AT_TI_symbol_name("_Ld_minus_Lq_pu")
    1236                      .dwattr $C$DW$109, DW_AT_type(*$C$DW$T$20)
    1237                      .dwattr $C$DW$109, DW_AT_location[DW_OP_reg18]
    1238                      .dwcfi  cfa_offset, -2
    1239                      .dwcfi  save_reg_to_mem, 26, 0
    1240 0000020f B2BD          MOVL      *SP++,XAR1            ; [CPU_] 
    1241                      .dwcfi  save_reg_to_mem, 7, 2
    1242                      .dwcfi  cfa_offset, -4
    1243 00000210 AABD          MOVL      *SP++,XAR2            ; [CPU_] 
    1244                      .dwcfi  save_reg_to_mem, 9, 4
    1245                      .dwcfi  cfa_offset, -6
    1246 00000211 A2BD          MOVL      *SP++,XAR3            ; [CPU_] 
    1247                      .dwcfi  save_reg_to_mem, 11, 6
    1248                      .dwcfi  cfa_offset, -8
    1249 00000212 FE08          ADDB      SP,#8                 ; [CPU_U] 
    1250                      .dwcfi  cfa_offset, -16
    1251                      .dwpsn  file "C:/ti/motorware/motorware_1_01_00_15/sw/modules/user/src/32b/user.c",line 999,column 15
    1252 00000213 D018          MOVB      XAR0,#24              ; [CPU_] |999| 
    1253                      .dwpsn  file "C:/ti/motorware/motorware_1_01_00_15/sw/modules/user/src/32b/user.c",line 996,column 1,
    1254 00000214 8BA4          MOVL      XAR1,XAR4             ; [CPU_] |996| 
    1255 00000215 1E42          MOVL      *-SP[2],ACC           ; [CPU_] |996| 
    1256 00000216 0652          MOVL      ACC,*-SP[18]          ; [CPU_] |996| 
    1257 00000217 1E44          MOVL      *-SP[4],ACC           ; [CPU_] |996| 
TMS320C2000 Assembler PC v6.4.9 Wed Dec 02 17:22:59 2015

Tools Copyright (c) 1996-2015 Texas Instruments Incorporated
C:\Users\ywcheng\AppData\Local\Temp\5601210                          PAGE   26

    1258                      .dwpsn  file "C:/ti/motorware/motorware_1_01_00_15/sw/modules/user/src/32b/user.c",line 999,column 15
    1259 00000218 8A91          MOVL      XAR4,*+XAR1[AR0]      ; [CPU_] |999| 
    1260              $C$DW$110       .dwtag  DW_TAG_TI_branch
    1261                      .dwattr $C$DW$110, DW_AT_low_pc(0x00)
    1262                      .dwattr $C$DW$110, DW_AT_name("_EST_getFlux_pu")
    1263                      .dwattr $C$DW$110, DW_AT_TI_call
    1264 00000219 7640!         LCR       #_EST_getFlux_pu      ; [CPU_] |999| 
         0000021a 0000 
    1265                      ; call occurs [#_EST_getFlux_pu] ; [] |999| 
    1266                      .dwpsn  file "C:/ti/motorware/motorware_1_01_00_15/sw/modules/pid/src/32b/pid.h",line 106,column 3,is
    1267 0000021b D020          MOVB      XAR0,#32              ; [CPU_] |106| 
    1268                      .dwpsn  file "C:/ti/motorware/motorware_1_01_00_15/sw/modules/user/src/32b/user.c",line 999,column 15
    1269 0000021c 1E46          MOVL      *-SP[6],ACC           ; [CPU_] |999| 
    1270                      .dwpsn  file "C:/ti/motorware/motorware_1_01_00_15/sw/modules/pid/src/32b/pid.h",line 106,column 3,is
    1271 0000021d 020A          MOVB      ACC,#10               ; [CPU_] |106| 
    1272 0000021e 0791          ADDL      ACC,*+XAR1[AR0]       ; [CPU_] |106| 
    1273 0000021f 8AA9          MOVL      XAR4,ACC              ; [CPU_] |106| 
    1274 00000220 D032          MOVB      XAR0,#50              ; [CPU_] |106| 
    1275 00000221 020A          MOVB      ACC,#10               ; [CPU_] |106| 
    1276 00000222 82C4          MOVL      XAR3,*+XAR4[0]        ; [CPU_] |106| 
    1277 00000223 0791          ADDL      ACC,*+XAR1[AR0]       ; [CPU_] |106| 
    1278 00000224 8AA9          MOVL      XAR4,ACC              ; [CPU_] |106| 
    1279                      .dwpsn  file "C:/ti/motorware/motorware_1_01_00_15/sw/modules/user/src/32b/user.c",line 1002,column 2
    1280 00000225 D018          MOVB      XAR0,#24              ; [CPU_] |1002| 
    1281                      .dwpsn  file "C:/ti/motorware/motorware_1_01_00_15/sw/modules/pid/src/32b/pid.h",line 106,column 3,is
    1282 00000226 86C4          MOVL      XAR2,*+XAR4[0]        ; [CPU_] |106| 
    1283                      .dwpsn  file "C:/ti/motorware/motorware_1_01_00_15/sw/modules/user/src/32b/user.c",line 1002,column 2
    1284 00000227 8A91          MOVL      XAR4,*+XAR1[AR0]      ; [CPU_] |1002| 
    1285              $C$DW$111       .dwtag  DW_TAG_TI_branch
    1286                      .dwattr $C$DW$111, DW_AT_low_pc(0x00)
    1287                      .dwattr $C$DW$111, DW_AT_name("_EST_getLs_q_pu")
    1288                      .dwattr $C$DW$111, DW_AT_TI_call
    1289 00000228 7640!         LCR       #_EST_getLs_q_pu      ; [CPU_] |1002| 
         00000229 0000 
    1290                      ; call occurs [#_EST_getLs_q_pu] ; [] |1002| 
    1291 0000022a D018          MOVB      XAR0,#24              ; [CPU_] |1002| 
    1292 0000022b 1E48          MOVL      *-SP[8],ACC           ; [CPU_] |1002| 
    1293 0000022c 8A91          MOVL      XAR4,*+XAR1[AR0]      ; [CPU_] |1002| 
    1294              $C$DW$112       .dwtag  DW_TAG_TI_branch
    1295                      .dwattr $C$DW$112, DW_AT_low_pc(0x00)
    1296                      .dwattr $C$DW$112, DW_AT_name("_EST_getLs_d_pu")
    1297                      .dwattr $C$DW$112, DW_AT_TI_call
    1298 0000022d 7640!         LCR       #_EST_getLs_d_pu      ; [CPU_] |1002| 
         0000022e 0000 
    1299                      ; call occurs [#_EST_getLs_d_pu] ; [] |1002| 
    1300 0000022f C448          MOVL      XAR6,*-SP[8]          ; [CPU_] |1002| 
    1301 00000230 3B01          SETC      SXM                   ; [CPU_] 
    1302 00000231 8746          MOVL      XT,*-SP[6]            ; [CPU_] |1002| 
    1303 00000232 03A6          SUBL      ACC,XAR6              ; [CPU_] |1002| 
    1304                      .dwpsn  file "C:/ti/motorware/motorware_1_01_00_15/sw/modules/user/src/32b/user.c",line 1007,column 3
    1305 00000233 5605          IMPYL     P,XT,XAR2             ; [CPU_] |1007| 
         00000234 00A2 
    1306                      .dwpsn  file "C:/ti/motorware/motorware_1_01_00_15/sw/modules/user/src/32b/user.c",line 1002,column 2
    1307 00000235 FF45          SFR       ACC,6                 ; [CPU_] |1002| 
    1308                      .dwpsn  file "C:/ti/motorware/motorware_1_01_00_15/sw/modules/user/src/32b/user.c",line 1007,column 3
TMS320C2000 Assembler PC v6.4.9 Wed Dec 02 17:22:59 2015

Tools Copyright (c) 1996-2015 Texas Instruments Incorporated
C:\Users\ywcheng\AppData\Local\Temp\5601210                          PAGE   27

    1309 00000236 C442          MOVL      XAR6,*-SP[2]          ; [CPU_] |1007| 
    1310                      .dwpsn  file "C:/ti/motorware/motorware_1_01_00_15/sw/modules/user/src/32b/user.c",line 1002,column 2
    1311 00000237 1EA7          MOVL      XAR7,ACC              ; [CPU_] |1002| 
    1312                      .dwpsn  file "C:/ti/motorware/motorware_1_01_00_15/sw/modules/user/src/32b/user.c",line 1007,column 3
    1313 00000238 5663          QMPYL     ACC,XT,XAR2           ; [CPU_] |1007| 
         00000239 00A2 
    1314 0000023a 56A7          LSL64     ACC:P,#8              ; [CPU_] |1007| 
    1315 0000023b 1EAC          MOVL      XT,ACC                ; [CPU_] |1007| 
    1316 0000023c 0642          MOVL      ACC,*-SP[2]           ; [CPU_] |1007| 
    1317 0000023d 5605          IMPYL     P,XT,XAR6             ; [CPU_] |1007| 
         0000023e 00A6 
    1318 0000023f 5663          QMPYL     ACC,XT,ACC            ; [CPU_] |1007| 
         00000240 00A9 
    1319 00000241 56A7          LSL64     ACC:P,#8              ; [CPU_] |1007| 
    1320 00000242 87A7          MOVL      XT,XAR7               ; [CPU_] |1007| 
    1321 00000243 1EA6          MOVL      XAR6,ACC              ; [CPU_] |1007| 
    1322 00000244 C544          MOVL      XAR7,*-SP[4]          ; [CPU_] |1007| 
    1323 00000245 5605          IMPYL     P,XT,XAR3             ; [CPU_] |1007| 
         00000246 00A3 
    1324 00000247 5663          QMPYL     ACC,XT,XAR3           ; [CPU_] |1007| 
         00000248 00A3 
    1325 00000249 56A7          LSL64     ACC:P,#8              ; [CPU_] |1007| 
    1326 0000024a 1EAC          MOVL      XT,ACC                ; [CPU_] |1007| 
    1327 0000024b 5605          IMPYL     P,XT,XAR2             ; [CPU_] |1007| 
         0000024c 00A2 
    1328 0000024d 5663          QMPYL     ACC,XT,XAR2           ; [CPU_] |1007| 
         0000024e 00A2 
    1329 0000024f 56A7          LSL64     ACC:P,#8              ; [CPU_] |1007| 
    1330 00000250 1EAC          MOVL      XT,ACC                ; [CPU_] |1007| 
    1331 00000251 0644          MOVL      ACC,*-SP[4]           ; [CPU_] |1007| 
    1332 00000252 5605          IMPYL     P,XT,XAR7             ; [CPU_] |1007| 
         00000253 00A7 
    1333 00000254 5663          QMPYL     ACC,XT,ACC            ; [CPU_] |1007| 
         00000255 00A9 
    1334 00000256 56A7          LSL64     ACC:P,#8              ; [CPU_] |1007| 
    1335 00000257 07A6          ADDL      ACC,XAR6              ; [CPU_] |1007| 
    1336 00000258 FE88          SUBB      SP,#8                 ; [CPU_U] 
    1337                      .dwcfi  cfa_offset, -8
    1338 00000259 1EAC          MOVL      XT,ACC                ; [CPU_] |1007| 
    1339 0000025a 28A9          MOV       AL,#51840             ; [CPU_] |1007| 
         0000025b CA80 
    1340 0000025c 28A8          MOV       AH,#2265              ; [CPU_] |1007| 
         0000025d 08D9 
    1341 0000025e 5605          IMPYL     P,XT,ACC              ; [CPU_] |1007| 
         0000025f 00A9 
    1342 00000260 82BE          MOVL      XAR3,*--SP            ; [CPU_] 
    1343                      .dwcfi  cfa_offset, -6
    1344                      .dwcfi  restore_reg, 11
    1345 00000261 5663          QMPYL     ACC,XT,ACC            ; [CPU_] |1007| 
         00000262 00A9 
    1346 00000263 56A7          LSL64     ACC:P,#8              ; [CPU_] |1007| 
    1347 00000264 86BE          MOVL      XAR2,*--SP            ; [CPU_] 
    1348                      .dwcfi  cfa_offset, -4
    1349                      .dwcfi  restore_reg, 9
    1350 00000265 8BBE          MOVL      XAR1,*--SP            ; [CPU_] 
TMS320C2000 Assembler PC v6.4.9 Wed Dec 02 17:22:59 2015

Tools Copyright (c) 1996-2015 Texas Instruments Incorporated
C:\Users\ywcheng\AppData\Local\Temp\5601210                          PAGE   28

    1351                      .dwcfi  cfa_offset, -2
    1352                      .dwcfi  restore_reg, 7
    1353              $C$DW$113       .dwtag  DW_TAG_TI_branch
    1354                      .dwattr $C$DW$113, DW_AT_low_pc(0x00)
    1355                      .dwattr $C$DW$113, DW_AT_TI_return
    1356 00000266 0006          LRETR     ; [CPU_] 
    1357                      ; return occurs ; [] 
    1358                      .dwattr $C$DW$99, DW_AT_TI_end_file("C:/ti/motorware/motorware_1_01_00_15/sw/modules/user/src/32b/use
    1359                      .dwattr $C$DW$99, DW_AT_TI_end_line(0x3f0)
    1360                      .dwattr $C$DW$99, DW_AT_TI_end_column(0x01)
    1361                      .dwendentry
    1362                      .dwendtag $C$DW$99
    1363              
    1364 00000267               .sect   ".text"
    1365                      .clink
    1366                      .global _USER_computeTorque_Nm
    1367              
    1368              $C$DW$114       .dwtag  DW_TAG_subprogram, DW_AT_name("USER_computeTorque_Nm")
    1369                      .dwattr $C$DW$114, DW_AT_low_pc(_USER_computeTorque_Nm)
    1370                      .dwattr $C$DW$114, DW_AT_high_pc(0x00)
    1371                      .dwattr $C$DW$114, DW_AT_TI_symbol_name("_USER_computeTorque_Nm")
    1372                      .dwattr $C$DW$114, DW_AT_external
    1373                      .dwattr $C$DW$114, DW_AT_type(*$C$DW$T$20)
    1374                      .dwattr $C$DW$114, DW_AT_TI_begin_file("C:/ti/motorware/motorware_1_01_00_15/sw/modules/user/src/32b/
    1375                      .dwattr $C$DW$114, DW_AT_TI_begin_line(0x3d1)
    1376                      .dwattr $C$DW$114, DW_AT_TI_begin_column(0x05)
    1377                      .dwattr $C$DW$114, DW_AT_TI_max_frame_size(-16)
    1378                      .dwpsn  file "C:/ti/motorware/motorware_1_01_00_15/sw/modules/user/src/32b/user.c",line 978,column 1,
    1379              
    1380                      .dwfde $C$DW$CIE, _USER_computeTorque_Nm
    1381              $C$DW$115       .dwtag  DW_TAG_formal_parameter, DW_AT_name("handle")
    1382                      .dwattr $C$DW$115, DW_AT_TI_symbol_name("_handle")
    1383                      .dwattr $C$DW$115, DW_AT_type(*$C$DW$T$87)
    1384                      .dwattr $C$DW$115, DW_AT_location[DW_OP_reg12]
    1385              $C$DW$116       .dwtag  DW_TAG_formal_parameter, DW_AT_name("torque_Flux_sf")
    1386                      .dwattr $C$DW$116, DW_AT_TI_symbol_name("_torque_Flux_sf")
    1387                      .dwattr $C$DW$116, DW_AT_type(*$C$DW$T$93)
    1388                      .dwattr $C$DW$116, DW_AT_location[DW_OP_reg0]
    1389              $C$DW$117       .dwtag  DW_TAG_formal_parameter, DW_AT_name("torque_Ls_sf")
    1390                      .dwattr $C$DW$117, DW_AT_TI_symbol_name("_torque_Ls_sf")
    1391                      .dwattr $C$DW$117, DW_AT_type(*$C$DW$T$93)
    1392                      .dwattr $C$DW$117, DW_AT_location[DW_OP_breg20 -18]
    1393              
    1394              ;***************************************************************
    1395              ;* FNAME: _USER_computeTorque_Nm        FR SIZE:  14           *
    1396              ;*                                                             *
    1397              ;* FUNCTION ENVIRONMENT                                        *
    1398              ;*                                                             *
    1399              ;* FUNCTION PROPERTIES                                         *
    1400              ;*                            0 Parameter,  8 Auto,  6 SOE     *
    1401              ;***************************************************************
    1402              
    1403              _USER_computeTorque_Nm:
    1404              ;* AR1   assigned to _handle
    1405              $C$DW$118       .dwtag  DW_TAG_variable, DW_AT_name("handle")
TMS320C2000 Assembler PC v6.4.9 Wed Dec 02 17:22:59 2015

Tools Copyright (c) 1996-2015 Texas Instruments Incorporated
C:\Users\ywcheng\AppData\Local\Temp\5601210                          PAGE   29

    1406                      .dwattr $C$DW$118, DW_AT_TI_symbol_name("_handle")
    1407                      .dwattr $C$DW$118, DW_AT_type(*$C$DW$T$88)
    1408                      .dwattr $C$DW$118, DW_AT_location[DW_OP_reg6]
    1409              $C$DW$119       .dwtag  DW_TAG_variable, DW_AT_name("torque_Flux_sf")
    1410                      .dwattr $C$DW$119, DW_AT_TI_symbol_name("_torque_Flux_sf")
    1411                      .dwattr $C$DW$119, DW_AT_type(*$C$DW$T$93)
    1412                      .dwattr $C$DW$119, DW_AT_location[DW_OP_breg20 -2]
    1413              $C$DW$120       .dwtag  DW_TAG_variable, DW_AT_name("torque_Ls_sf")
    1414                      .dwattr $C$DW$120, DW_AT_TI_symbol_name("_torque_Ls_sf")
    1415                      .dwattr $C$DW$120, DW_AT_type(*$C$DW$T$93)
    1416                      .dwattr $C$DW$120, DW_AT_location[DW_OP_breg20 -4]
    1417              $C$DW$121       .dwtag  DW_TAG_variable, DW_AT_name("Flux_pu")
    1418                      .dwattr $C$DW$121, DW_AT_TI_symbol_name("_Flux_pu")
    1419                      .dwattr $C$DW$121, DW_AT_type(*$C$DW$T$20)
    1420                      .dwattr $C$DW$121, DW_AT_location[DW_OP_breg20 -6]
    1421              ;* AR3   assigned to _Id_pu
    1422              $C$DW$122       .dwtag  DW_TAG_variable, DW_AT_name("Id_pu")
    1423                      .dwattr $C$DW$122, DW_AT_TI_symbol_name("_Id_pu")
    1424                      .dwattr $C$DW$122, DW_AT_type(*$C$DW$T$20)
    1425                      .dwattr $C$DW$122, DW_AT_location[DW_OP_reg10]
    1426              ;* AR2   assigned to _Iq_pu
    1427              $C$DW$123       .dwtag  DW_TAG_variable, DW_AT_name("Iq_pu")
    1428                      .dwattr $C$DW$123, DW_AT_TI_symbol_name("_Iq_pu")
    1429                      .dwattr $C$DW$123, DW_AT_type(*$C$DW$T$20)
    1430                      .dwattr $C$DW$123, DW_AT_location[DW_OP_reg8]
    1431              ;* AR7   assigned to _Ld_minus_Lq_pu
    1432              $C$DW$124       .dwtag  DW_TAG_variable, DW_AT_name("Ld_minus_Lq_pu")
    1433                      .dwattr $C$DW$124, DW_AT_TI_symbol_name("_Ld_minus_Lq_pu")
    1434                      .dwattr $C$DW$124, DW_AT_type(*$C$DW$T$20)
    1435                      .dwattr $C$DW$124, DW_AT_location[DW_OP_reg18]
    1436                      .dwcfi  cfa_offset, -2
    1437                      .dwcfi  save_reg_to_mem, 26, 0
    1438 00000267 B2BD          MOVL      *SP++,XAR1            ; [CPU_] 
    1439                      .dwcfi  save_reg_to_mem, 7, 2
    1440                      .dwcfi  cfa_offset, -4
    1441 00000268 AABD          MOVL      *SP++,XAR2            ; [CPU_] 
    1442                      .dwcfi  save_reg_to_mem, 9, 4
    1443                      .dwcfi  cfa_offset, -6
    1444 00000269 A2BD          MOVL      *SP++,XAR3            ; [CPU_] 
    1445                      .dwcfi  save_reg_to_mem, 11, 6
    1446                      .dwcfi  cfa_offset, -8
    1447 0000026a FE08          ADDB      SP,#8                 ; [CPU_U] 
    1448                      .dwcfi  cfa_offset, -16
    1449                      .dwpsn  file "C:/ti/motorware/motorware_1_01_00_15/sw/modules/user/src/32b/user.c",line 981,column 15
    1450 0000026b D018          MOVB      XAR0,#24              ; [CPU_] |981| 
    1451                      .dwpsn  file "C:/ti/motorware/motorware_1_01_00_15/sw/modules/user/src/32b/user.c",line 978,column 1,
    1452 0000026c 8BA4          MOVL      XAR1,XAR4             ; [CPU_] |978| 
    1453 0000026d 1E42          MOVL      *-SP[2],ACC           ; [CPU_] |978| 
    1454 0000026e 0652          MOVL      ACC,*-SP[18]          ; [CPU_] |978| 
    1455 0000026f 1E44          MOVL      *-SP[4],ACC           ; [CPU_] |978| 
    1456                      .dwpsn  file "C:/ti/motorware/motorware_1_01_00_15/sw/modules/user/src/32b/user.c",line 981,column 15
    1457 00000270 8A91          MOVL      XAR4,*+XAR1[AR0]      ; [CPU_] |981| 
    1458              $C$DW$125       .dwtag  DW_TAG_TI_branch
    1459                      .dwattr $C$DW$125, DW_AT_low_pc(0x00)
    1460                      .dwattr $C$DW$125, DW_AT_name("_EST_getFlux_pu")
TMS320C2000 Assembler PC v6.4.9 Wed Dec 02 17:22:59 2015

Tools Copyright (c) 1996-2015 Texas Instruments Incorporated
C:\Users\ywcheng\AppData\Local\Temp\5601210                          PAGE   30

    1461                      .dwattr $C$DW$125, DW_AT_TI_call
    1462 00000271 7640!         LCR       #_EST_getFlux_pu      ; [CPU_] |981| 
         00000272 0000 
    1463                      ; call occurs [#_EST_getFlux_pu] ; [] |981| 
    1464                      .dwpsn  file "C:/ti/motorware/motorware_1_01_00_15/sw/modules/pid/src/32b/pid.h",line 106,column 3,is
    1465 00000273 D020          MOVB      XAR0,#32              ; [CPU_] |106| 
    1466                      .dwpsn  file "C:/ti/motorware/motorware_1_01_00_15/sw/modules/user/src/32b/user.c",line 981,column 15
    1467 00000274 1E46          MOVL      *-SP[6],ACC           ; [CPU_] |981| 
    1468                      .dwpsn  file "C:/ti/motorware/motorware_1_01_00_15/sw/modules/pid/src/32b/pid.h",line 106,column 3,is
    1469 00000275 020A          MOVB      ACC,#10               ; [CPU_] |106| 
    1470 00000276 0791          ADDL      ACC,*+XAR1[AR0]       ; [CPU_] |106| 
    1471 00000277 8AA9          MOVL      XAR4,ACC              ; [CPU_] |106| 
    1472 00000278 D032          MOVB      XAR0,#50              ; [CPU_] |106| 
    1473 00000279 020A          MOVB      ACC,#10               ; [CPU_] |106| 
    1474 0000027a 82C4          MOVL      XAR3,*+XAR4[0]        ; [CPU_] |106| 
    1475 0000027b 0791          ADDL      ACC,*+XAR1[AR0]       ; [CPU_] |106| 
    1476 0000027c 8AA9          MOVL      XAR4,ACC              ; [CPU_] |106| 
    1477                      .dwpsn  file "C:/ti/motorware/motorware_1_01_00_15/sw/modules/user/src/32b/user.c",line 984,column 22
    1478 0000027d D018          MOVB      XAR0,#24              ; [CPU_] |984| 
    1479                      .dwpsn  file "C:/ti/motorware/motorware_1_01_00_15/sw/modules/pid/src/32b/pid.h",line 106,column 3,is
    1480 0000027e 86C4          MOVL      XAR2,*+XAR4[0]        ; [CPU_] |106| 
    1481                      .dwpsn  file "C:/ti/motorware/motorware_1_01_00_15/sw/modules/user/src/32b/user.c",line 984,column 22
    1482 0000027f 8A91          MOVL      XAR4,*+XAR1[AR0]      ; [CPU_] |984| 
    1483              $C$DW$126       .dwtag  DW_TAG_TI_branch
    1484                      .dwattr $C$DW$126, DW_AT_low_pc(0x00)
    1485                      .dwattr $C$DW$126, DW_AT_name("_EST_getLs_q_pu")
    1486                      .dwattr $C$DW$126, DW_AT_TI_call
    1487 00000280 7640!         LCR       #_EST_getLs_q_pu      ; [CPU_] |984| 
         00000281 0000 
    1488                      ; call occurs [#_EST_getLs_q_pu] ; [] |984| 
    1489 00000282 D018          MOVB      XAR0,#24              ; [CPU_] |984| 
    1490 00000283 1E48          MOVL      *-SP[8],ACC           ; [CPU_] |984| 
    1491 00000284 8A91          MOVL      XAR4,*+XAR1[AR0]      ; [CPU_] |984| 
    1492              $C$DW$127       .dwtag  DW_TAG_TI_branch
    1493                      .dwattr $C$DW$127, DW_AT_low_pc(0x00)
    1494                      .dwattr $C$DW$127, DW_AT_name("_EST_getLs_d_pu")
    1495                      .dwattr $C$DW$127, DW_AT_TI_call
    1496 00000285 7640!         LCR       #_EST_getLs_d_pu      ; [CPU_] |984| 
         00000286 0000 
    1497                      ; call occurs [#_EST_getLs_d_pu] ; [] |984| 
    1498 00000287 C448          MOVL      XAR6,*-SP[8]          ; [CPU_] |984| 
    1499 00000288 3B01          SETC      SXM                   ; [CPU_] 
    1500 00000289 8746          MOVL      XT,*-SP[6]            ; [CPU_] |984| 
    1501 0000028a 03A6          SUBL      ACC,XAR6              ; [CPU_] |984| 
    1502                      .dwpsn  file "C:/ti/motorware/motorware_1_01_00_15/sw/modules/user/src/32b/user.c",line 989,column 3,
    1503 0000028b 5605          IMPYL     P,XT,XAR2             ; [CPU_] |989| 
         0000028c 00A2 
    1504                      .dwpsn  file "C:/ti/motorware/motorware_1_01_00_15/sw/modules/user/src/32b/user.c",line 984,column 22
    1505 0000028d FF45          SFR       ACC,6                 ; [CPU_] |984| 
    1506                      .dwpsn  file "C:/ti/motorware/motorware_1_01_00_15/sw/modules/user/src/32b/user.c",line 989,column 3,
    1507 0000028e C442          MOVL      XAR6,*-SP[2]          ; [CPU_] |989| 
    1508                      .dwpsn  file "C:/ti/motorware/motorware_1_01_00_15/sw/modules/user/src/32b/user.c",line 984,column 22
    1509 0000028f 1EA7          MOVL      XAR7,ACC              ; [CPU_] |984| 
    1510                      .dwpsn  file "C:/ti/motorware/motorware_1_01_00_15/sw/modules/user/src/32b/user.c",line 989,column 3,
    1511 00000290 5663          QMPYL     ACC,XT,XAR2           ; [CPU_] |989| 
TMS320C2000 Assembler PC v6.4.9 Wed Dec 02 17:22:59 2015

Tools Copyright (c) 1996-2015 Texas Instruments Incorporated
C:\Users\ywcheng\AppData\Local\Temp\5601210                          PAGE   31

         00000291 00A2 
    1512 00000292 56A7          LSL64     ACC:P,#8              ; [CPU_] |989| 
    1513 00000293 1EAC          MOVL      XT,ACC                ; [CPU_] |989| 
    1514 00000294 0642          MOVL      ACC,*-SP[2]           ; [CPU_] |989| 
    1515 00000295 5605          IMPYL     P,XT,XAR6             ; [CPU_] |989| 
         00000296 00A6 
    1516 00000297 5663          QMPYL     ACC,XT,ACC            ; [CPU_] |989| 
         00000298 00A9 
    1517 00000299 56A7          LSL64     ACC:P,#8              ; [CPU_] |989| 
    1518 0000029a 87A7          MOVL      XT,XAR7               ; [CPU_] |989| 
    1519 0000029b 1EA6          MOVL      XAR6,ACC              ; [CPU_] |989| 
    1520 0000029c C544          MOVL      XAR7,*-SP[4]          ; [CPU_] |989| 
    1521 0000029d 5605          IMPYL     P,XT,XAR3             ; [CPU_] |989| 
         0000029e 00A3 
    1522 0000029f 5663          QMPYL     ACC,XT,XAR3           ; [CPU_] |989| 
         000002a0 00A3 
    1523 000002a1 56A7          LSL64     ACC:P,#8              ; [CPU_] |989| 
    1524 000002a2 FE88          SUBB      SP,#8                 ; [CPU_U] 
    1525                      .dwcfi  cfa_offset, -8
    1526 000002a3 1EAC          MOVL      XT,ACC                ; [CPU_] |989| 
    1527 000002a4 5605          IMPYL     P,XT,XAR2             ; [CPU_] |989| 
         000002a5 00A2 
    1528 000002a6 5663          QMPYL     ACC,XT,XAR2           ; [CPU_] |989| 
         000002a7 00A2 
    1529 000002a8 82BE          MOVL      XAR3,*--SP            ; [CPU_] 
    1530                      .dwcfi  cfa_offset, -6
    1531                      .dwcfi  restore_reg, 11
    1532 000002a9 56A7          LSL64     ACC:P,#8              ; [CPU_] |989| 
    1533 000002aa 1EAC          MOVL      XT,ACC                ; [CPU_] |989| 
    1534 000002ab 86BE          MOVL      XAR2,*--SP            ; [CPU_] 
    1535                      .dwcfi  cfa_offset, -4
    1536                      .dwcfi  restore_reg, 9
    1537 000002ac 5605          IMPYL     P,XT,XAR7             ; [CPU_] |989| 
         000002ad 00A7 
    1538 000002ae 5663          QMPYL     ACC,XT,XAR7           ; [CPU_] |989| 
         000002af 00A7 
    1539 000002b0 56A7          LSL64     ACC:P,#8              ; [CPU_] |989| 
    1540 000002b1 8BBE          MOVL      XAR1,*--SP            ; [CPU_] 
    1541                      .dwcfi  cfa_offset, -2
    1542                      .dwcfi  restore_reg, 7
    1543 000002b2 07A6          ADDL      ACC,XAR6              ; [CPU_] |989| 
    1544              $C$DW$128       .dwtag  DW_TAG_TI_branch
    1545                      .dwattr $C$DW$128, DW_AT_low_pc(0x00)
    1546                      .dwattr $C$DW$128, DW_AT_TI_return
    1547 000002b3 0006          LRETR     ; [CPU_] 
    1548                      ; return occurs ; [] 
    1549                      .dwattr $C$DW$114, DW_AT_TI_end_file("C:/ti/motorware/motorware_1_01_00_15/sw/modules/user/src/32b/us
    1550                      .dwattr $C$DW$114, DW_AT_TI_end_line(0x3de)
    1551                      .dwattr $C$DW$114, DW_AT_TI_end_column(0x01)
    1552                      .dwendentry
    1553                      .dwendtag $C$DW$114
    1554              
    1555 000002b4               .sect   ".text"
    1556                      .clink
    1557                      .global _USER_computeTorque_Ls_Id_Iq_pu_to_Nm_sf
TMS320C2000 Assembler PC v6.4.9 Wed Dec 02 17:22:59 2015

Tools Copyright (c) 1996-2015 Texas Instruments Incorporated
C:\Users\ywcheng\AppData\Local\Temp\5601210                          PAGE   32

    1558              
    1559              $C$DW$129       .dwtag  DW_TAG_subprogram, DW_AT_name("USER_computeTorque_Ls_Id_Iq_pu_to_Nm_sf")
    1560                      .dwattr $C$DW$129, DW_AT_low_pc(_USER_computeTorque_Ls_Id_Iq_pu_to_Nm_sf)
    1561                      .dwattr $C$DW$129, DW_AT_high_pc(0x00)
    1562                      .dwattr $C$DW$129, DW_AT_TI_symbol_name("_USER_computeTorque_Ls_Id_Iq_pu_to_Nm_sf")
    1563                      .dwattr $C$DW$129, DW_AT_external
    1564                      .dwattr $C$DW$129, DW_AT_type(*$C$DW$T$20)
    1565                      .dwattr $C$DW$129, DW_AT_TI_begin_file("C:/ti/motorware/motorware_1_01_00_15/sw/modules/user/src/32b/
    1566                      .dwattr $C$DW$129, DW_AT_TI_begin_line(0x396)
    1567                      .dwattr $C$DW$129, DW_AT_TI_begin_column(0x05)
    1568                      .dwattr $C$DW$129, DW_AT_TI_max_frame_size(-16)
    1569                      .dwpsn  file "C:/ti/motorware/motorware_1_01_00_15/sw/modules/user/src/32b/user.c",line 919,column 1,
    1570              
    1571                      .dwfde $C$DW$CIE, _USER_computeTorque_Ls_Id_Iq_pu_to_Nm_sf
    1572              
    1573              ;***************************************************************
    1574              ;* FNAME: _USER_computeTorque_Ls_Id_Iq_pu_to_Nm_sf FR SIZE:  14           *
    1575              ;*                                                             *
    1576              ;* FUNCTION ENVIRONMENT                                        *
    1577              ;*                                                             *
    1578              ;* FUNCTION PROPERTIES                                         *
    1579              ;*                            2 Parameter, 10 Auto,  2 SOE     *
    1580              ;***************************************************************
    1581              
    1582              _USER_computeTorque_Ls_Id_Iq_pu_to_Nm_sf:
    1583              ;* AL    assigned to _ceil_result
    1584              $C$DW$130       .dwtag  DW_TAG_variable, DW_AT_name("ceil_result")
    1585                      .dwattr $C$DW$130, DW_AT_TI_symbol_name("_ceil_result")
    1586                      .dwattr $C$DW$130, DW_AT_type(*$C$DW$T$17)
    1587                      .dwattr $C$DW$130, DW_AT_location[DW_OP_reg0]
    1588              $C$DW$131       .dwtag  DW_TAG_variable, DW_AT_name("ceil_y")
    1589                      .dwattr $C$DW$131, DW_AT_TI_symbol_name("_ceil_y")
    1590                      .dwattr $C$DW$131, DW_AT_type(*$C$DW$T$17)
    1591                      .dwattr $C$DW$131, DW_AT_location[DW_OP_breg20 -4]
    1592                      .dwcfi  cfa_offset, -2
    1593                      .dwcfi  save_reg_to_mem, 26, 0
    1594 000002b4 B2BD          MOVL      *SP++,XAR1            ; [CPU_] 
    1595                      .dwcfi  save_reg_to_mem, 7, 2
    1596                      .dwcfi  cfa_offset, -4
    1597 000002b5 FE0C          ADDB      SP,#12                ; [CPU_U] 
    1598                      .dwcfi  cfa_offset, -16
    1599                      .dwpsn  file "C:/ti/motorware/motorware_1_01_00_15/sw/modules/user/src/32b/user.c",line 922,column 18
    1600 000002b6 28A9          MOV       AL,#57897             ; [CPU_] |922| 
         000002b7 E229 
    1601 000002b8 28A8          MOV       AH,#16165             ; [CPU_] |922| 
         000002b9 3F25 
    1602              $C$DW$132       .dwtag  DW_TAG_TI_branch
    1603                      .dwattr $C$DW$132, DW_AT_low_pc(0x00)
    1604                      .dwattr $C$DW$132, DW_AT_name("_log")
    1605                      .dwattr $C$DW$132, DW_AT_TI_call
    1606 000002ba 7640!         LCR       #_log                 ; [CPU_] |922| 
         000002bb 0000 
    1607                      ; call occurs [#_log] ; [] |922| 
    1608 000002bc 8BA9          MOVL      XAR1,ACC              ; [CPU_] |922| 
    1609 000002bd 9A00          MOV       AL,#0                 ; [CPU_] |922| 
TMS320C2000 Assembler PC v6.4.9 Wed Dec 02 17:22:59 2015

Tools Copyright (c) 1996-2015 Texas Instruments Incorporated
C:\Users\ywcheng\AppData\Local\Temp\5601210                          PAGE   33

    1610 000002be 28A8          MOV       AH,#16384             ; [CPU_] |922| 
         000002bf 4000 
    1611              $C$DW$133       .dwtag  DW_TAG_TI_branch
    1612                      .dwattr $C$DW$133, DW_AT_low_pc(0x00)
    1613                      .dwattr $C$DW$133, DW_AT_name("_log")
    1614                      .dwattr $C$DW$133, DW_AT_TI_call
    1615 000002c0 7640!         LCR       #_log                 ; [CPU_] |922| 
         000002c1 0000 
    1616                      ; call occurs [#_log] ; [] |922| 
    1617 000002c2 1E42          MOVL      *-SP[2],ACC           ; [CPU_] |922| 
    1618 000002c3 B2A9          MOVL      ACC,XAR1              ; [CPU_] |922| 
    1619              $C$DW$134       .dwtag  DW_TAG_TI_branch
    1620                      .dwattr $C$DW$134, DW_AT_low_pc(0x00)
    1621                      .dwattr $C$DW$134, DW_AT_name("FS$$DIV")
    1622                      .dwattr $C$DW$134, DW_AT_TI_call
    1623 000002c4 7640!         LCR       #FS$$DIV              ; [CPU_] |922| 
         000002c5 0000 
    1624                      ; call occurs [#FS$$DIV] ; [] |922| 
    1625                      .dwpsn  file "C:/ti/ccsv6/tools/compiler/ti-cgt-c2000_6.4.9/include/math.h",line 143,column 14,is_stm
    1626 000002c6 5CAD          MOVZ      AR4,SP                ; [CPU_] |143| 
    1627 000002c7 DC84          SUBB      XAR4,#4               ; [CPU_U] |143| 
    1628 000002c8 5CA4          MOVZ      AR4,AR4               ; [CPU_] |143| 
    1629              $C$DW$135       .dwtag  DW_TAG_TI_branch
    1630                      .dwattr $C$DW$135, DW_AT_low_pc(0x00)
    1631                      .dwattr $C$DW$135, DW_AT_name("_modf")
    1632                      .dwattr $C$DW$135, DW_AT_TI_call
    1633 000002c9 7640!         LCR       #_modf                ; [CPU_] |143| 
         000002ca 0000 
    1634                      ; call occurs [#_modf] ; [] |143| 
    1635 000002cb 1EA6          MOVL      XAR6,ACC              ; [CPU_] |143| 
    1636 000002cc 9A00          MOV       AL,#0                 ; [CPU_] |143| 
    1637 000002cd 9B00          MOV       AH,#0                 ; [CPU_] |143| 
    1638 000002ce 1E42          MOVL      *-SP[2],ACC           ; [CPU_] |143| 
    1639 000002cf 06A6          MOVL      ACC,XAR6              ; [CPU_] |143| 
    1640              $C$DW$136       .dwtag  DW_TAG_TI_branch
    1641                      .dwattr $C$DW$136, DW_AT_low_pc(0x00)
    1642                      .dwattr $C$DW$136, DW_AT_name("FS$$CMP")
    1643                      .dwattr $C$DW$136, DW_AT_TI_call
    1644 000002d0 7640!         LCR       #FS$$CMP              ; [CPU_] |143| 
         000002d1 0000 
    1645                      ; call occurs [#FS$$CMP] ; [] |143| 
    1646 000002d2 5200          CMPB      AL,#0                 ; [CPU_] |143| 
    1647 000002d3 56C2          BF        $C$L5,GT              ; [CPU_] |143| 
         000002d4 0004 
    1648                      ; branchcc occurs ; [] |143| 
    1649                      .dwpsn  file "C:/ti/ccsv6/tools/compiler/ti-cgt-c2000_6.4.9/include/math.h",line 150,column 18,is_stm
    1650 000002d5 0644          MOVL      ACC,*-SP[4]           ; [CPU_] |150| 
    1651 000002d6 6F07          B         $C$L6,UNC             ; [CPU_] |150| 
    1652                      ; branch occurs ; [] |150| 
    1653 000002d7       $C$L5:    
    1654                      .dwpsn  file "C:/ti/ccsv6/tools/compiler/ti-cgt-c2000_6.4.9/include/math.h",line 146,column 18,is_stm
    1655 000002d7 FF2F          MOV       ACC,#32512 << 15      ; [CPU_] |146| 
         000002d8 7F00 
    1656 000002d9 1E42          MOVL      *-SP[2],ACC           ; [CPU_] |146| 
    1657 000002da 0644          MOVL      ACC,*-SP[4]           ; [CPU_] |146| 
TMS320C2000 Assembler PC v6.4.9 Wed Dec 02 17:22:59 2015

Tools Copyright (c) 1996-2015 Texas Instruments Incorporated
C:\Users\ywcheng\AppData\Local\Temp\5601210                          PAGE   34

    1658              $C$DW$137       .dwtag  DW_TAG_TI_branch
    1659                      .dwattr $C$DW$137, DW_AT_low_pc(0x00)
    1660                      .dwattr $C$DW$137, DW_AT_name("FS$$ADD")
    1661                      .dwattr $C$DW$137, DW_AT_TI_call
    1662 000002db 7640!         LCR       #FS$$ADD              ; [CPU_] |146| 
         000002dc 0000 
    1663                      ; call occurs [#FS$$ADD] ; [] |146| 
    1664 000002dd       $C$L6:    
    1665                      .dwpsn  file "C:/ti/motorware/motorware_1_01_00_15/sw/modules/user/src/32b/user.c",line 924,column 3,
    1666 000002dd 1E42          MOVL      *-SP[2],ACC           ; [CPU_] |924| 
    1667 000002de 9A00          MOV       AL,#0                 ; [CPU_] |924| 
    1668 000002df 28A8          MOV       AH,#16384             ; [CPU_] |924| 
         000002e0 4000 
    1669              $C$DW$138       .dwtag  DW_TAG_TI_branch
    1670                      .dwattr $C$DW$138, DW_AT_low_pc(0x00)
    1671                      .dwattr $C$DW$138, DW_AT_name("_pow")
    1672                      .dwattr $C$DW$138, DW_AT_TI_call
    1673 000002e1 7640!         LCR       #_pow                 ; [CPU_] |924| 
         000002e2 0000 
    1674                      ; call occurs [#_pow] ; [] |924| 
    1675 000002e3 1EA6          MOVL      XAR6,ACC              ; [CPU_] |924| 
    1676 000002e4 28A9          MOV       AL,#37815             ; [CPU_] |924| 
         000002e5 93B7 
    1677 000002e6 28A8          MOV       AH,#16696             ; [CPU_] |924| 
         000002e7 4138 
    1678 000002e8 1E42          MOVL      *-SP[2],ACC           ; [CPU_] |924| 
    1679 000002e9 06A6          MOVL      ACC,XAR6              ; [CPU_] |924| 
    1680              $C$DW$139       .dwtag  DW_TAG_TI_branch
    1681                      .dwattr $C$DW$139, DW_AT_low_pc(0x00)
    1682                      .dwattr $C$DW$139, DW_AT_name("FS$$MPY")
    1683                      .dwattr $C$DW$139, DW_AT_TI_call
    1684 000002ea 7640!         LCR       #FS$$MPY              ; [CPU_] |924| 
         000002eb 0000 
    1685                      ; call occurs [#FS$$MPY] ; [] |924| 
    1686 000002ec 5CAD          MOVZ      AR4,SP                ; [CPU_] |924| 
    1687 000002ed DC8C          SUBB      XAR4,#12              ; [CPU_U] |924| 
    1688 000002ee 88A4          MOVZ      AR6,AR4               ; [CPU_] |924| 
    1689              $C$DW$140       .dwtag  DW_TAG_TI_branch
    1690                      .dwattr $C$DW$140, DW_AT_low_pc(0x00)
    1691                      .dwattr $C$DW$140, DW_AT_name("FS$$TOFD")
    1692                      .dwattr $C$DW$140, DW_AT_TI_call
    1693 000002ef 7640!         LCR       #FS$$TOFD             ; [CPU_] |924| 
         000002f0 0000 
    1694                      ; call occurs [#FS$$TOFD] ; [] |924| 
    1695 000002f1 5DAD          MOVZ      AR5,SP                ; [CPU_] |924| 
    1696 000002f2 5CAD          MOVZ      AR4,SP                ; [CPU_] |924| 
    1697 000002f3 DD88          SUBB      XAR5,#8               ; [CPU_U] |924| 
    1698 000002f4 DC8C          SUBB      XAR4,#12              ; [CPU_U] |924| 
    1699 000002f5 88A5          MOVZ      AR6,AR5               ; [CPU_] |924| 
    1700 000002f6 5CA4          MOVZ      AR4,AR4               ; [CPU_] |924| 
    1701 000002f7 8F40+         MOVL      XAR5,#$C$FL2          ; [CPU_U] |924| 
         000002f8 0004 
    1702              $C$DW$141       .dwtag  DW_TAG_TI_branch
    1703                      .dwattr $C$DW$141, DW_AT_low_pc(0x00)
    1704                      .dwattr $C$DW$141, DW_AT_name("FD$$MPY")
TMS320C2000 Assembler PC v6.4.9 Wed Dec 02 17:22:59 2015

Tools Copyright (c) 1996-2015 Texas Instruments Incorporated
C:\Users\ywcheng\AppData\Local\Temp\5601210                          PAGE   35

    1705                      .dwattr $C$DW$141, DW_AT_TI_call
    1706 000002f9 7640!         LCR       #FD$$MPY              ; [CPU_] |924| 
         000002fa 0000 
    1707                      ; call occurs [#FD$$MPY] ; [] |924| 
    1708 000002fb 5CAD          MOVZ      AR4,SP                ; [CPU_] |924| 
    1709 000002fc DC88          SUBB      XAR4,#8               ; [CPU_U] |924| 
    1710 000002fd 5CA4          MOVZ      AR4,AR4               ; [CPU_] |924| 
    1711              $C$DW$142       .dwtag  DW_TAG_TI_branch
    1712                      .dwattr $C$DW$142, DW_AT_low_pc(0x00)
    1713                      .dwattr $C$DW$142, DW_AT_name("FD$$TOL")
    1714                      .dwattr $C$DW$142, DW_AT_TI_call
    1715 000002fe 7640!         LCR       #FD$$TOL              ; [CPU_] |924| 
         000002ff 0000 
    1716                      ; call occurs [#FD$$TOL] ; [] |924| 
    1717 00000300 FE8C          SUBB      SP,#12                ; [CPU_U] 
    1718                      .dwcfi  cfa_offset, -4
    1719 00000301 8BBE          MOVL      XAR1,*--SP            ; [CPU_] 
    1720                      .dwcfi  cfa_offset, -2
    1721                      .dwcfi  restore_reg, 7
    1722              $C$DW$143       .dwtag  DW_TAG_TI_branch
    1723                      .dwattr $C$DW$143, DW_AT_low_pc(0x00)
    1724                      .dwattr $C$DW$143, DW_AT_TI_return
    1725 00000302 0006          LRETR     ; [CPU_] 
    1726                      ; return occurs ; [] 
    1727                      .dwattr $C$DW$129, DW_AT_TI_end_file("C:/ti/motorware/motorware_1_01_00_15/sw/modules/user/src/32b/us
    1728                      .dwattr $C$DW$129, DW_AT_TI_end_line(0x39d)
    1729                      .dwattr $C$DW$129, DW_AT_TI_end_column(0x01)
    1730                      .dwendentry
    1731                      .dwendtag $C$DW$129
    1732              
    1733 00000303               .sect   ".text"
    1734                      .clink
    1735                      .global _USER_computeTorque_Flux_Iq_pu_to_Nm_sf
    1736              
    1737              $C$DW$144       .dwtag  DW_TAG_subprogram, DW_AT_name("USER_computeTorque_Flux_Iq_pu_to_Nm_sf")
    1738                      .dwattr $C$DW$144, DW_AT_low_pc(_USER_computeTorque_Flux_Iq_pu_to_Nm_sf)
    1739                      .dwattr $C$DW$144, DW_AT_high_pc(0x00)
    1740                      .dwattr $C$DW$144, DW_AT_TI_symbol_name("_USER_computeTorque_Flux_Iq_pu_to_Nm_sf")
    1741                      .dwattr $C$DW$144, DW_AT_external
    1742                      .dwattr $C$DW$144, DW_AT_type(*$C$DW$T$20)
    1743                      .dwattr $C$DW$144, DW_AT_TI_begin_file("C:/ti/motorware/motorware_1_01_00_15/sw/modules/user/src/32b/
    1744                      .dwattr $C$DW$144, DW_AT_TI_begin_line(0x3a2)
    1745                      .dwattr $C$DW$144, DW_AT_TI_begin_column(0x05)
    1746                      .dwattr $C$DW$144, DW_AT_TI_max_frame_size(-16)
    1747                      .dwpsn  file "C:/ti/motorware/motorware_1_01_00_15/sw/modules/user/src/32b/user.c",line 931,column 1,
    1748              
    1749                      .dwfde $C$DW$CIE, _USER_computeTorque_Flux_Iq_pu_to_Nm_sf
    1750              
    1751              ;***************************************************************
    1752              ;* FNAME: _USER_computeTorque_Flux_Iq_pu_to_Nm_sf FR SIZE:  14           *
    1753              ;*                                                             *
    1754              ;* FUNCTION ENVIRONMENT                                        *
    1755              ;*                                                             *
    1756              ;* FUNCTION PROPERTIES                                         *
    1757              ;*                            2 Parameter, 10 Auto,  2 SOE     *
TMS320C2000 Assembler PC v6.4.9 Wed Dec 02 17:22:59 2015

Tools Copyright (c) 1996-2015 Texas Instruments Incorporated
C:\Users\ywcheng\AppData\Local\Temp\5601210                          PAGE   36

    1758              ;***************************************************************
    1759              
    1760              _USER_computeTorque_Flux_Iq_pu_to_Nm_sf:
    1761              ;* AL    assigned to _ceil_result
    1762              $C$DW$145       .dwtag  DW_TAG_variable, DW_AT_name("ceil_result")
    1763                      .dwattr $C$DW$145, DW_AT_TI_symbol_name("_ceil_result")
    1764                      .dwattr $C$DW$145, DW_AT_type(*$C$DW$T$17)
    1765                      .dwattr $C$DW$145, DW_AT_location[DW_OP_reg0]
    1766              $C$DW$146       .dwtag  DW_TAG_variable, DW_AT_name("ceil_y")
    1767                      .dwattr $C$DW$146, DW_AT_TI_symbol_name("_ceil_y")
    1768                      .dwattr $C$DW$146, DW_AT_type(*$C$DW$T$17)
    1769                      .dwattr $C$DW$146, DW_AT_location[DW_OP_breg20 -4]
    1770                      .dwcfi  cfa_offset, -2
    1771                      .dwcfi  save_reg_to_mem, 26, 0
    1772 00000303 B2BD          MOVL      *SP++,XAR1            ; [CPU_] 
    1773                      .dwcfi  save_reg_to_mem, 7, 2
    1774                      .dwcfi  cfa_offset, -4
    1775 00000304 FE0C          ADDB      SP,#12                ; [CPU_U] 
    1776                      .dwcfi  cfa_offset, -16
    1777                      .dwpsn  file "C:/ti/motorware/motorware_1_01_00_15/sw/modules/user/src/32b/user.c",line 935,column 18
    1778 00000305 28A9          MOV       AL,#10250             ; [CPU_] |935| 
         00000306 280A 
    1779 00000307 28A8          MOV       AH,#15844             ; [CPU_] |935| 
         00000308 3DE4 
    1780              $C$DW$147       .dwtag  DW_TAG_TI_branch
    1781                      .dwattr $C$DW$147, DW_AT_low_pc(0x00)
    1782                      .dwattr $C$DW$147, DW_AT_name("_log")
    1783                      .dwattr $C$DW$147, DW_AT_TI_call
    1784 00000309 7640!         LCR       #_log                 ; [CPU_] |935| 
         0000030a 0000 
    1785                      ; call occurs [#_log] ; [] |935| 
    1786 0000030b 8BA9          MOVL      XAR1,ACC              ; [CPU_] |935| 
    1787 0000030c 9A00          MOV       AL,#0                 ; [CPU_] |935| 
    1788 0000030d 28A8          MOV       AH,#16384             ; [CPU_] |935| 
         0000030e 4000 
    1789              $C$DW$148       .dwtag  DW_TAG_TI_branch
    1790                      .dwattr $C$DW$148, DW_AT_low_pc(0x00)
    1791                      .dwattr $C$DW$148, DW_AT_name("_log")
    1792                      .dwattr $C$DW$148, DW_AT_TI_call
    1793 0000030f 7640!         LCR       #_log                 ; [CPU_] |935| 
         00000310 0000 
    1794                      ; call occurs [#_log] ; [] |935| 
    1795 00000311 1E42          MOVL      *-SP[2],ACC           ; [CPU_] |935| 
    1796 00000312 B2A9          MOVL      ACC,XAR1              ; [CPU_] |935| 
    1797              $C$DW$149       .dwtag  DW_TAG_TI_branch
    1798                      .dwattr $C$DW$149, DW_AT_low_pc(0x00)
    1799                      .dwattr $C$DW$149, DW_AT_name("FS$$DIV")
    1800                      .dwattr $C$DW$149, DW_AT_TI_call
    1801 00000313 7640!         LCR       #FS$$DIV              ; [CPU_] |935| 
         00000314 0000 
    1802                      ; call occurs [#FS$$DIV] ; [] |935| 
    1803                      .dwpsn  file "C:/ti/ccsv6/tools/compiler/ti-cgt-c2000_6.4.9/include/math.h",line 143,column 14,is_stm
    1804 00000315 5CAD          MOVZ      AR4,SP                ; [CPU_] |143| 
    1805 00000316 DC84          SUBB      XAR4,#4               ; [CPU_U] |143| 
    1806 00000317 5CA4          MOVZ      AR4,AR4               ; [CPU_] |143| 
TMS320C2000 Assembler PC v6.4.9 Wed Dec 02 17:22:59 2015

Tools Copyright (c) 1996-2015 Texas Instruments Incorporated
C:\Users\ywcheng\AppData\Local\Temp\5601210                          PAGE   37

    1807              $C$DW$150       .dwtag  DW_TAG_TI_branch
    1808                      .dwattr $C$DW$150, DW_AT_low_pc(0x00)
    1809                      .dwattr $C$DW$150, DW_AT_name("_modf")
    1810                      .dwattr $C$DW$150, DW_AT_TI_call
    1811 00000318 7640!         LCR       #_modf                ; [CPU_] |143| 
         00000319 0000 
    1812                      ; call occurs [#_modf] ; [] |143| 
    1813 0000031a 1EA6          MOVL      XAR6,ACC              ; [CPU_] |143| 
    1814 0000031b 9A00          MOV       AL,#0                 ; [CPU_] |143| 
    1815 0000031c 9B00          MOV       AH,#0                 ; [CPU_] |143| 
    1816 0000031d 1E42          MOVL      *-SP[2],ACC           ; [CPU_] |143| 
    1817 0000031e 06A6          MOVL      ACC,XAR6              ; [CPU_] |143| 
    1818              $C$DW$151       .dwtag  DW_TAG_TI_branch
    1819                      .dwattr $C$DW$151, DW_AT_low_pc(0x00)
    1820                      .dwattr $C$DW$151, DW_AT_name("FS$$CMP")
    1821                      .dwattr $C$DW$151, DW_AT_TI_call
    1822 0000031f 7640!         LCR       #FS$$CMP              ; [CPU_] |143| 
         00000320 0000 
    1823                      ; call occurs [#FS$$CMP] ; [] |143| 
    1824 00000321 5200          CMPB      AL,#0                 ; [CPU_] |143| 
    1825 00000322 56C2          BF        $C$L7,GT              ; [CPU_] |143| 
         00000323 0004 
    1826                      ; branchcc occurs ; [] |143| 
    1827                      .dwpsn  file "C:/ti/ccsv6/tools/compiler/ti-cgt-c2000_6.4.9/include/math.h",line 150,column 18,is_stm
    1828 00000324 0644          MOVL      ACC,*-SP[4]           ; [CPU_] |150| 
    1829 00000325 6F07          B         $C$L8,UNC             ; [CPU_] |150| 
    1830                      ; branch occurs ; [] |150| 
    1831 00000326       $C$L7:    
    1832                      .dwpsn  file "C:/ti/ccsv6/tools/compiler/ti-cgt-c2000_6.4.9/include/math.h",line 146,column 18,is_stm
    1833 00000326 FF2F          MOV       ACC,#32512 << 15      ; [CPU_] |146| 
         00000327 7F00 
    1834 00000328 1E42          MOVL      *-SP[2],ACC           ; [CPU_] |146| 
    1835 00000329 0644          MOVL      ACC,*-SP[4]           ; [CPU_] |146| 
    1836              $C$DW$152       .dwtag  DW_TAG_TI_branch
    1837                      .dwattr $C$DW$152, DW_AT_low_pc(0x00)
    1838                      .dwattr $C$DW$152, DW_AT_name("FS$$ADD")
    1839                      .dwattr $C$DW$152, DW_AT_TI_call
    1840 0000032a 7640!         LCR       #FS$$ADD              ; [CPU_] |146| 
         0000032b 0000 
    1841                      ; call occurs [#FS$$ADD] ; [] |146| 
    1842 0000032c       $C$L8:    
    1843                      .dwpsn  file "C:/ti/motorware/motorware_1_01_00_15/sw/modules/user/src/32b/user.c",line 937,column 3,
    1844              $C$DW$153       .dwtag  DW_TAG_TI_branch
    1845                      .dwattr $C$DW$153, DW_AT_low_pc(0x00)
    1846                      .dwattr $C$DW$153, DW_AT_name("FS$$NEG")
    1847                      .dwattr $C$DW$153, DW_AT_TI_call
    1848 0000032c 7640!         LCR       #FS$$NEG              ; [CPU_] |937| 
         0000032d 0000 
    1849                      ; call occurs [#FS$$NEG] ; [] |937| 
    1850 0000032e 1E42          MOVL      *-SP[2],ACC           ; [CPU_] |937| 
    1851 0000032f 9A00          MOV       AL,#0                 ; [CPU_] |937| 
    1852 00000330 28A8          MOV       AH,#16384             ; [CPU_] |937| 
         00000331 4000 
    1853              $C$DW$154       .dwtag  DW_TAG_TI_branch
    1854                      .dwattr $C$DW$154, DW_AT_low_pc(0x00)
TMS320C2000 Assembler PC v6.4.9 Wed Dec 02 17:22:59 2015

Tools Copyright (c) 1996-2015 Texas Instruments Incorporated
C:\Users\ywcheng\AppData\Local\Temp\5601210                          PAGE   38

    1855                      .dwattr $C$DW$154, DW_AT_name("_pow")
    1856                      .dwattr $C$DW$154, DW_AT_TI_call
    1857 00000332 7640!         LCR       #_pow                 ; [CPU_] |937| 
         00000333 0000 
    1858                      ; call occurs [#_pow] ; [] |937| 
    1859 00000334 1EA6          MOVL      XAR6,ACC              ; [CPU_] |937| 
    1860 00000335 28A9          MOV       AL,#44381             ; [CPU_] |937| 
         00000336 AD5D 
    1861 00000337 28A8          MOV       AH,#16018             ; [CPU_] |937| 
         00000338 3E92 
    1862 00000339 1E42          MOVL      *-SP[2],ACC           ; [CPU_] |937| 
    1863 0000033a 06A6          MOVL      ACC,XAR6              ; [CPU_] |937| 
    1864              $C$DW$155       .dwtag  DW_TAG_TI_branch
    1865                      .dwattr $C$DW$155, DW_AT_low_pc(0x00)
    1866                      .dwattr $C$DW$155, DW_AT_name("FS$$MPY")
    1867                      .dwattr $C$DW$155, DW_AT_TI_call
    1868 0000033b 7640!         LCR       #FS$$MPY              ; [CPU_] |937| 
         0000033c 0000 
    1869                      ; call occurs [#FS$$MPY] ; [] |937| 
    1870 0000033d 5CAD          MOVZ      AR4,SP                ; [CPU_] |937| 
    1871 0000033e DC8C          SUBB      XAR4,#12              ; [CPU_U] |937| 
    1872 0000033f 88A4          MOVZ      AR6,AR4               ; [CPU_] |937| 
    1873              $C$DW$156       .dwtag  DW_TAG_TI_branch
    1874                      .dwattr $C$DW$156, DW_AT_low_pc(0x00)
    1875                      .dwattr $C$DW$156, DW_AT_name("FS$$TOFD")
    1876                      .dwattr $C$DW$156, DW_AT_TI_call
    1877 00000340 7640!         LCR       #FS$$TOFD             ; [CPU_] |937| 
         00000341 0000 
    1878                      ; call occurs [#FS$$TOFD] ; [] |937| 
    1879 00000342 5DAD          MOVZ      AR5,SP                ; [CPU_] |937| 
    1880 00000343 5CAD          MOVZ      AR4,SP                ; [CPU_] |937| 
    1881 00000344 DD88          SUBB      XAR5,#8               ; [CPU_U] |937| 
    1882 00000345 DC8C          SUBB      XAR4,#12              ; [CPU_U] |937| 
    1883 00000346 88A5          MOVZ      AR6,AR5               ; [CPU_] |937| 
    1884 00000347 5CA4          MOVZ      AR4,AR4               ; [CPU_] |937| 
    1885 00000348 8F40+         MOVL      XAR5,#$C$FL2          ; [CPU_U] |937| 
         00000349 0004 
    1886              $C$DW$157       .dwtag  DW_TAG_TI_branch
    1887                      .dwattr $C$DW$157, DW_AT_low_pc(0x00)
    1888                      .dwattr $C$DW$157, DW_AT_name("FD$$MPY")
    1889                      .dwattr $C$DW$157, DW_AT_TI_call
    1890 0000034a 7640!         LCR       #FD$$MPY              ; [CPU_] |937| 
         0000034b 0000 
    1891                      ; call occurs [#FD$$MPY] ; [] |937| 
    1892 0000034c 5CAD          MOVZ      AR4,SP                ; [CPU_] |937| 
    1893 0000034d DC88          SUBB      XAR4,#8               ; [CPU_U] |937| 
    1894 0000034e 5CA4          MOVZ      AR4,AR4               ; [CPU_] |937| 
    1895              $C$DW$158       .dwtag  DW_TAG_TI_branch
    1896                      .dwattr $C$DW$158, DW_AT_low_pc(0x00)
    1897                      .dwattr $C$DW$158, DW_AT_name("FD$$TOL")
    1898                      .dwattr $C$DW$158, DW_AT_TI_call
    1899 0000034f 7640!         LCR       #FD$$TOL              ; [CPU_] |937| 
         00000350 0000 
    1900                      ; call occurs [#FD$$TOL] ; [] |937| 
    1901 00000351 FE8C          SUBB      SP,#12                ; [CPU_U] 
TMS320C2000 Assembler PC v6.4.9 Wed Dec 02 17:22:59 2015

Tools Copyright (c) 1996-2015 Texas Instruments Incorporated
C:\Users\ywcheng\AppData\Local\Temp\5601210                          PAGE   39

    1902                      .dwcfi  cfa_offset, -4
    1903 00000352 8BBE          MOVL      XAR1,*--SP            ; [CPU_] 
    1904                      .dwcfi  cfa_offset, -2
    1905                      .dwcfi  restore_reg, 7
    1906              $C$DW$159       .dwtag  DW_TAG_TI_branch
    1907                      .dwattr $C$DW$159, DW_AT_low_pc(0x00)
    1908                      .dwattr $C$DW$159, DW_AT_TI_return
    1909 00000353 0006          LRETR     ; [CPU_] 
    1910                      ; return occurs ; [] 
    1911                      .dwattr $C$DW$144, DW_AT_TI_end_file("C:/ti/motorware/motorware_1_01_00_15/sw/modules/user/src/32b/us
    1912                      .dwattr $C$DW$144, DW_AT_TI_end_line(0x3aa)
    1913                      .dwattr $C$DW$144, DW_AT_TI_end_column(0x01)
    1914                      .dwendentry
    1915                      .dwendtag $C$DW$144
    1916              
    1917 00000354               .sect   ".text"
    1918                      .clink
    1919                      .global _USER_computeFlux_pu_to_Wb_sf
    1920              
    1921              $C$DW$160       .dwtag  DW_TAG_subprogram, DW_AT_name("USER_computeFlux_pu_to_Wb_sf")
    1922                      .dwattr $C$DW$160, DW_AT_low_pc(_USER_computeFlux_pu_to_Wb_sf)
    1923                      .dwattr $C$DW$160, DW_AT_high_pc(0x00)
    1924                      .dwattr $C$DW$160, DW_AT_TI_symbol_name("_USER_computeFlux_pu_to_Wb_sf")
    1925                      .dwattr $C$DW$160, DW_AT_external
    1926                      .dwattr $C$DW$160, DW_AT_type(*$C$DW$T$20)
    1927                      .dwattr $C$DW$160, DW_AT_TI_begin_file("C:/ti/motorware/motorware_1_01_00_15/sw/modules/user/src/32b/
    1928                      .dwattr $C$DW$160, DW_AT_TI_begin_line(0x3af)
    1929                      .dwattr $C$DW$160, DW_AT_TI_begin_column(0x05)
    1930                      .dwattr $C$DW$160, DW_AT_TI_max_frame_size(-16)
    1931                      .dwpsn  file "C:/ti/motorware/motorware_1_01_00_15/sw/modules/user/src/32b/user.c",line 944,column 1,
    1932              
    1933                      .dwfde $C$DW$CIE, _USER_computeFlux_pu_to_Wb_sf
    1934              
    1935              ;***************************************************************
    1936              ;* FNAME: _USER_computeFlux_pu_to_Wb_sf FR SIZE:  14           *
    1937              ;*                                                             *
    1938              ;* FUNCTION ENVIRONMENT                                        *
    1939              ;*                                                             *
    1940              ;* FUNCTION PROPERTIES                                         *
    1941              ;*                            2 Parameter, 10 Auto,  2 SOE     *
    1942              ;***************************************************************
    1943              
    1944              _USER_computeFlux_pu_to_Wb_sf:
    1945              ;* AL    assigned to _ceil_result
    1946              $C$DW$161       .dwtag  DW_TAG_variable, DW_AT_name("ceil_result")
    1947                      .dwattr $C$DW$161, DW_AT_TI_symbol_name("_ceil_result")
    1948                      .dwattr $C$DW$161, DW_AT_type(*$C$DW$T$17)
    1949                      .dwattr $C$DW$161, DW_AT_location[DW_OP_reg0]
    1950              $C$DW$162       .dwtag  DW_TAG_variable, DW_AT_name("ceil_y")
    1951                      .dwattr $C$DW$162, DW_AT_TI_symbol_name("_ceil_y")
    1952                      .dwattr $C$DW$162, DW_AT_type(*$C$DW$T$17)
    1953                      .dwattr $C$DW$162, DW_AT_location[DW_OP_breg20 -4]
    1954                      .dwcfi  cfa_offset, -2
    1955                      .dwcfi  save_reg_to_mem, 26, 0
    1956 00000354 B2BD          MOVL      *SP++,XAR1            ; [CPU_] 
TMS320C2000 Assembler PC v6.4.9 Wed Dec 02 17:22:59 2015

Tools Copyright (c) 1996-2015 Texas Instruments Incorporated
C:\Users\ywcheng\AppData\Local\Temp\5601210                          PAGE   40

    1957                      .dwcfi  save_reg_to_mem, 7, 2
    1958                      .dwcfi  cfa_offset, -4
    1959 00000355 FE0C          ADDB      SP,#12                ; [CPU_U] 
    1960                      .dwcfi  cfa_offset, -16
    1961                      .dwpsn  file "C:/ti/motorware/motorware_1_01_00_15/sw/modules/user/src/32b/user.c",line 947,column 18
    1962 00000356 28A9          MOV       AL,#10250             ; [CPU_] |947| 
         00000357 280A 
    1963 00000358 28A8          MOV       AH,#15844             ; [CPU_] |947| 
         00000359 3DE4 
    1964              $C$DW$163       .dwtag  DW_TAG_TI_branch
    1965                      .dwattr $C$DW$163, DW_AT_low_pc(0x00)
    1966                      .dwattr $C$DW$163, DW_AT_name("_log")
    1967                      .dwattr $C$DW$163, DW_AT_TI_call
    1968 0000035a 7640!         LCR       #_log                 ; [CPU_] |947| 
         0000035b 0000 
    1969                      ; call occurs [#_log] ; [] |947| 
    1970 0000035c 8BA9          MOVL      XAR1,ACC              ; [CPU_] |947| 
    1971 0000035d 9A00          MOV       AL,#0                 ; [CPU_] |947| 
    1972 0000035e 28A8          MOV       AH,#16384             ; [CPU_] |947| 
         0000035f 4000 
    1973              $C$DW$164       .dwtag  DW_TAG_TI_branch
    1974                      .dwattr $C$DW$164, DW_AT_low_pc(0x00)
    1975                      .dwattr $C$DW$164, DW_AT_name("_log")
    1976                      .dwattr $C$DW$164, DW_AT_TI_call
    1977 00000360 7640!         LCR       #_log                 ; [CPU_] |947| 
         00000361 0000 
    1978                      ; call occurs [#_log] ; [] |947| 
    1979 00000362 1E42          MOVL      *-SP[2],ACC           ; [CPU_] |947| 
    1980 00000363 B2A9          MOVL      ACC,XAR1              ; [CPU_] |947| 
    1981              $C$DW$165       .dwtag  DW_TAG_TI_branch
    1982                      .dwattr $C$DW$165, DW_AT_low_pc(0x00)
    1983                      .dwattr $C$DW$165, DW_AT_name("FS$$DIV")
    1984                      .dwattr $C$DW$165, DW_AT_TI_call
    1985 00000364 7640!         LCR       #FS$$DIV              ; [CPU_] |947| 
         00000365 0000 
    1986                      ; call occurs [#FS$$DIV] ; [] |947| 
    1987                      .dwpsn  file "C:/ti/ccsv6/tools/compiler/ti-cgt-c2000_6.4.9/include/math.h",line 143,column 14,is_stm
    1988 00000366 5CAD          MOVZ      AR4,SP                ; [CPU_] |143| 
    1989 00000367 DC84          SUBB      XAR4,#4               ; [CPU_U] |143| 
    1990 00000368 5CA4          MOVZ      AR4,AR4               ; [CPU_] |143| 
    1991              $C$DW$166       .dwtag  DW_TAG_TI_branch
    1992                      .dwattr $C$DW$166, DW_AT_low_pc(0x00)
    1993                      .dwattr $C$DW$166, DW_AT_name("_modf")
    1994                      .dwattr $C$DW$166, DW_AT_TI_call
    1995 00000369 7640!         LCR       #_modf                ; [CPU_] |143| 
         0000036a 0000 
    1996                      ; call occurs [#_modf] ; [] |143| 
    1997 0000036b 1EA6          MOVL      XAR6,ACC              ; [CPU_] |143| 
    1998 0000036c 9A00          MOV       AL,#0                 ; [CPU_] |143| 
    1999 0000036d 9B00          MOV       AH,#0                 ; [CPU_] |143| 
    2000 0000036e 1E42          MOVL      *-SP[2],ACC           ; [CPU_] |143| 
    2001 0000036f 06A6          MOVL      ACC,XAR6              ; [CPU_] |143| 
    2002              $C$DW$167       .dwtag  DW_TAG_TI_branch
    2003                      .dwattr $C$DW$167, DW_AT_low_pc(0x00)
    2004                      .dwattr $C$DW$167, DW_AT_name("FS$$CMP")
TMS320C2000 Assembler PC v6.4.9 Wed Dec 02 17:22:59 2015

Tools Copyright (c) 1996-2015 Texas Instruments Incorporated
C:\Users\ywcheng\AppData\Local\Temp\5601210                          PAGE   41

    2005                      .dwattr $C$DW$167, DW_AT_TI_call
    2006 00000370 7640!         LCR       #FS$$CMP              ; [CPU_] |143| 
         00000371 0000 
    2007                      ; call occurs [#FS$$CMP] ; [] |143| 
    2008 00000372 5200          CMPB      AL,#0                 ; [CPU_] |143| 
    2009 00000373 56C2          BF        $C$L9,GT              ; [CPU_] |143| 
         00000374 0004 
    2010                      ; branchcc occurs ; [] |143| 
    2011                      .dwpsn  file "C:/ti/ccsv6/tools/compiler/ti-cgt-c2000_6.4.9/include/math.h",line 150,column 18,is_stm
    2012 00000375 0644          MOVL      ACC,*-SP[4]           ; [CPU_] |150| 
    2013 00000376 6F07          B         $C$L10,UNC            ; [CPU_] |150| 
    2014                      ; branch occurs ; [] |150| 
    2015 00000377       $C$L9:    
    2016                      .dwpsn  file "C:/ti/ccsv6/tools/compiler/ti-cgt-c2000_6.4.9/include/math.h",line 146,column 18,is_stm
    2017 00000377 FF2F          MOV       ACC,#32512 << 15      ; [CPU_] |146| 
         00000378 7F00 
    2018 00000379 1E42          MOVL      *-SP[2],ACC           ; [CPU_] |146| 
    2019 0000037a 0644          MOVL      ACC,*-SP[4]           ; [CPU_] |146| 
    2020              $C$DW$168       .dwtag  DW_TAG_TI_branch
    2021                      .dwattr $C$DW$168, DW_AT_low_pc(0x00)
    2022                      .dwattr $C$DW$168, DW_AT_name("FS$$ADD")
    2023                      .dwattr $C$DW$168, DW_AT_TI_call
    2024 0000037b 7640!         LCR       #FS$$ADD              ; [CPU_] |146| 
         0000037c 0000 
    2025                      ; call occurs [#FS$$ADD] ; [] |146| 
    2026 0000037d       $C$L10:    
    2027                      .dwpsn  file "C:/ti/motorware/motorware_1_01_00_15/sw/modules/user/src/32b/user.c",line 949,column 3,
    2028              $C$DW$169       .dwtag  DW_TAG_TI_branch
    2029                      .dwattr $C$DW$169, DW_AT_low_pc(0x00)
    2030                      .dwattr $C$DW$169, DW_AT_name("FS$$NEG")
    2031                      .dwattr $C$DW$169, DW_AT_TI_call
    2032 0000037d 7640!         LCR       #FS$$NEG              ; [CPU_] |949| 
         0000037e 0000 
    2033                      ; call occurs [#FS$$NEG] ; [] |949| 
    2034 0000037f 1E42          MOVL      *-SP[2],ACC           ; [CPU_] |949| 
    2035 00000380 9A00          MOV       AL,#0                 ; [CPU_] |949| 
    2036 00000381 28A8          MOV       AH,#16384             ; [CPU_] |949| 
         00000382 4000 
    2037              $C$DW$170       .dwtag  DW_TAG_TI_branch
    2038                      .dwattr $C$DW$170, DW_AT_low_pc(0x00)
    2039                      .dwattr $C$DW$170, DW_AT_name("_pow")
    2040                      .dwattr $C$DW$170, DW_AT_TI_call
    2041 00000383 7640!         LCR       #_pow                 ; [CPU_] |949| 
         00000384 0000 
    2042                      ; call occurs [#_pow] ; [] |949| 
    2043 00000385 1EA6          MOVL      XAR6,ACC              ; [CPU_] |949| 
    2044 00000386 28A9          MOV       AL,#29863             ; [CPU_] |949| 
         00000387 74A7 
    2045 00000388 28A8          MOV       AH,#15260             ; [CPU_] |949| 
         00000389 3B9C 
    2046 0000038a 1E42          MOVL      *-SP[2],ACC           ; [CPU_] |949| 
    2047 0000038b 06A6          MOVL      ACC,XAR6              ; [CPU_] |949| 
    2048              $C$DW$171       .dwtag  DW_TAG_TI_branch
    2049                      .dwattr $C$DW$171, DW_AT_low_pc(0x00)
    2050                      .dwattr $C$DW$171, DW_AT_name("FS$$MPY")
TMS320C2000 Assembler PC v6.4.9 Wed Dec 02 17:22:59 2015

Tools Copyright (c) 1996-2015 Texas Instruments Incorporated
C:\Users\ywcheng\AppData\Local\Temp\5601210                          PAGE   42

    2051                      .dwattr $C$DW$171, DW_AT_TI_call
    2052 0000038c 7640!         LCR       #FS$$MPY              ; [CPU_] |949| 
         0000038d 0000 
    2053                      ; call occurs [#FS$$MPY] ; [] |949| 
    2054 0000038e 5CAD          MOVZ      AR4,SP                ; [CPU_] |949| 
    2055 0000038f DC8C          SUBB      XAR4,#12              ; [CPU_U] |949| 
    2056 00000390 88A4          MOVZ      AR6,AR4               ; [CPU_] |949| 
    2057              $C$DW$172       .dwtag  DW_TAG_TI_branch
    2058                      .dwattr $C$DW$172, DW_AT_low_pc(0x00)
    2059                      .dwattr $C$DW$172, DW_AT_name("FS$$TOFD")
    2060                      .dwattr $C$DW$172, DW_AT_TI_call
    2061 00000391 7640!         LCR       #FS$$TOFD             ; [CPU_] |949| 
         00000392 0000 
    2062                      ; call occurs [#FS$$TOFD] ; [] |949| 
    2063 00000393 5DAD          MOVZ      AR5,SP                ; [CPU_] |949| 
    2064 00000394 5CAD          MOVZ      AR4,SP                ; [CPU_] |949| 
    2065 00000395 DD88          SUBB      XAR5,#8               ; [CPU_U] |949| 
    2066 00000396 DC8C          SUBB      XAR4,#12              ; [CPU_U] |949| 
    2067 00000397 88A5          MOVZ      AR6,AR5               ; [CPU_] |949| 
    2068 00000398 5CA4          MOVZ      AR4,AR4               ; [CPU_] |949| 
    2069 00000399 8F40+         MOVL      XAR5,#$C$FL2          ; [CPU_U] |949| 
         0000039a 0004 
    2070              $C$DW$173       .dwtag  DW_TAG_TI_branch
    2071                      .dwattr $C$DW$173, DW_AT_low_pc(0x00)
    2072                      .dwattr $C$DW$173, DW_AT_name("FD$$MPY")
    2073                      .dwattr $C$DW$173, DW_AT_TI_call
    2074 0000039b 7640!         LCR       #FD$$MPY              ; [CPU_] |949| 
         0000039c 0000 
    2075                      ; call occurs [#FD$$MPY] ; [] |949| 
    2076 0000039d 5CAD          MOVZ      AR4,SP                ; [CPU_] |949| 
    2077 0000039e DC88          SUBB      XAR4,#8               ; [CPU_U] |949| 
    2078 0000039f 5CA4          MOVZ      AR4,AR4               ; [CPU_] |949| 
    2079              $C$DW$174       .dwtag  DW_TAG_TI_branch
    2080                      .dwattr $C$DW$174, DW_AT_low_pc(0x00)
    2081                      .dwattr $C$DW$174, DW_AT_name("FD$$TOL")
    2082                      .dwattr $C$DW$174, DW_AT_TI_call
    2083 000003a0 7640!         LCR       #FD$$TOL              ; [CPU_] |949| 
         000003a1 0000 
    2084                      ; call occurs [#FD$$TOL] ; [] |949| 
    2085 000003a2 FE8C          SUBB      SP,#12                ; [CPU_U] 
    2086                      .dwcfi  cfa_offset, -4
    2087 000003a3 8BBE          MOVL      XAR1,*--SP            ; [CPU_] 
    2088                      .dwcfi  cfa_offset, -2
    2089                      .dwcfi  restore_reg, 7
    2090              $C$DW$175       .dwtag  DW_TAG_TI_branch
    2091                      .dwattr $C$DW$175, DW_AT_low_pc(0x00)
    2092                      .dwattr $C$DW$175, DW_AT_TI_return
    2093 000003a4 0006          LRETR     ; [CPU_] 
    2094                      ; return occurs ; [] 
    2095                      .dwattr $C$DW$160, DW_AT_TI_end_file("C:/ti/motorware/motorware_1_01_00_15/sw/modules/user/src/32b/us
    2096                      .dwattr $C$DW$160, DW_AT_TI_end_line(0x3b6)
    2097                      .dwattr $C$DW$160, DW_AT_TI_end_column(0x01)
    2098                      .dwendentry
    2099                      .dwendtag $C$DW$160
    2100              
TMS320C2000 Assembler PC v6.4.9 Wed Dec 02 17:22:59 2015

Tools Copyright (c) 1996-2015 Texas Instruments Incorporated
C:\Users\ywcheng\AppData\Local\Temp\5601210                          PAGE   43

    2101 000003a5               .sect   ".text"
    2102                      .clink
    2103                      .global _USER_computeFlux_pu_to_VpHz_sf
    2104              
    2105              $C$DW$176       .dwtag  DW_TAG_subprogram, DW_AT_name("USER_computeFlux_pu_to_VpHz_sf")
    2106                      .dwattr $C$DW$176, DW_AT_low_pc(_USER_computeFlux_pu_to_VpHz_sf)
    2107                      .dwattr $C$DW$176, DW_AT_high_pc(0x00)
    2108                      .dwattr $C$DW$176, DW_AT_TI_symbol_name("_USER_computeFlux_pu_to_VpHz_sf")
    2109                      .dwattr $C$DW$176, DW_AT_external
    2110                      .dwattr $C$DW$176, DW_AT_type(*$C$DW$T$20)
    2111                      .dwattr $C$DW$176, DW_AT_TI_begin_file("C:/ti/motorware/motorware_1_01_00_15/sw/modules/user/src/32b/
    2112                      .dwattr $C$DW$176, DW_AT_TI_begin_line(0x3bb)
    2113                      .dwattr $C$DW$176, DW_AT_TI_begin_column(0x05)
    2114                      .dwattr $C$DW$176, DW_AT_TI_max_frame_size(-16)
    2115                      .dwpsn  file "C:/ti/motorware/motorware_1_01_00_15/sw/modules/user/src/32b/user.c",line 956,column 1,
    2116              
    2117                      .dwfde $C$DW$CIE, _USER_computeFlux_pu_to_VpHz_sf
    2118              
    2119              ;***************************************************************
    2120              ;* FNAME: _USER_computeFlux_pu_to_VpHz_sf FR SIZE:  14           *
    2121              ;*                                                             *
    2122              ;* FUNCTION ENVIRONMENT                                        *
    2123              ;*                                                             *
    2124              ;* FUNCTION PROPERTIES                                         *
    2125              ;*                            2 Parameter, 10 Auto,  2 SOE     *
    2126              ;***************************************************************
    2127              
    2128              _USER_computeFlux_pu_to_VpHz_sf:
    2129              ;* AL    assigned to _ceil_result
    2130              $C$DW$177       .dwtag  DW_TAG_variable, DW_AT_name("ceil_result")
    2131                      .dwattr $C$DW$177, DW_AT_TI_symbol_name("_ceil_result")
    2132                      .dwattr $C$DW$177, DW_AT_type(*$C$DW$T$17)
    2133                      .dwattr $C$DW$177, DW_AT_location[DW_OP_reg0]
    2134              $C$DW$178       .dwtag  DW_TAG_variable, DW_AT_name("ceil_y")
    2135                      .dwattr $C$DW$178, DW_AT_TI_symbol_name("_ceil_y")
    2136                      .dwattr $C$DW$178, DW_AT_type(*$C$DW$T$17)
    2137                      .dwattr $C$DW$178, DW_AT_location[DW_OP_breg20 -4]
    2138                      .dwcfi  cfa_offset, -2
    2139                      .dwcfi  save_reg_to_mem, 26, 0
    2140 000003a5 B2BD          MOVL      *SP++,XAR1            ; [CPU_] 
    2141                      .dwcfi  save_reg_to_mem, 7, 2
    2142                      .dwcfi  cfa_offset, -4
    2143 000003a6 FE0C          ADDB      SP,#12                ; [CPU_U] 
    2144                      .dwcfi  cfa_offset, -16
    2145                      .dwpsn  file "C:/ti/motorware/motorware_1_01_00_15/sw/modules/user/src/32b/user.c",line 959,column 18
    2146 000003a7 28A9          MOV       AL,#10250             ; [CPU_] |959| 
         000003a8 280A 
    2147 000003a9 28A8          MOV       AH,#15844             ; [CPU_] |959| 
         000003aa 3DE4 
    2148              $C$DW$179       .dwtag  DW_TAG_TI_branch
    2149                      .dwattr $C$DW$179, DW_AT_low_pc(0x00)
    2150                      .dwattr $C$DW$179, DW_AT_name("_log")
    2151                      .dwattr $C$DW$179, DW_AT_TI_call
    2152 000003ab 7640!         LCR       #_log                 ; [CPU_] |959| 
         000003ac 0000 
TMS320C2000 Assembler PC v6.4.9 Wed Dec 02 17:22:59 2015

Tools Copyright (c) 1996-2015 Texas Instruments Incorporated
C:\Users\ywcheng\AppData\Local\Temp\5601210                          PAGE   44

    2153                      ; call occurs [#_log] ; [] |959| 
    2154 000003ad 8BA9          MOVL      XAR1,ACC              ; [CPU_] |959| 
    2155 000003ae 9A00          MOV       AL,#0                 ; [CPU_] |959| 
    2156 000003af 28A8          MOV       AH,#16384             ; [CPU_] |959| 
         000003b0 4000 
    2157              $C$DW$180       .dwtag  DW_TAG_TI_branch
    2158                      .dwattr $C$DW$180, DW_AT_low_pc(0x00)
    2159                      .dwattr $C$DW$180, DW_AT_name("_log")
    2160                      .dwattr $C$DW$180, DW_AT_TI_call
    2161 000003b1 7640!         LCR       #_log                 ; [CPU_] |959| 
         000003b2 0000 
    2162                      ; call occurs [#_log] ; [] |959| 
    2163 000003b3 1E42          MOVL      *-SP[2],ACC           ; [CPU_] |959| 
    2164 000003b4 B2A9          MOVL      ACC,XAR1              ; [CPU_] |959| 
    2165              $C$DW$181       .dwtag  DW_TAG_TI_branch
    2166                      .dwattr $C$DW$181, DW_AT_low_pc(0x00)
    2167                      .dwattr $C$DW$181, DW_AT_name("FS$$DIV")
    2168                      .dwattr $C$DW$181, DW_AT_TI_call
    2169 000003b5 7640!         LCR       #FS$$DIV              ; [CPU_] |959| 
         000003b6 0000 
    2170                      ; call occurs [#FS$$DIV] ; [] |959| 
    2171                      .dwpsn  file "C:/ti/ccsv6/tools/compiler/ti-cgt-c2000_6.4.9/include/math.h",line 143,column 14,is_stm
    2172 000003b7 5CAD          MOVZ      AR4,SP                ; [CPU_] |143| 
    2173 000003b8 DC84          SUBB      XAR4,#4               ; [CPU_U] |143| 
    2174 000003b9 5CA4          MOVZ      AR4,AR4               ; [CPU_] |143| 
    2175              $C$DW$182       .dwtag  DW_TAG_TI_branch
    2176                      .dwattr $C$DW$182, DW_AT_low_pc(0x00)
    2177                      .dwattr $C$DW$182, DW_AT_name("_modf")
    2178                      .dwattr $C$DW$182, DW_AT_TI_call
    2179 000003ba 7640!         LCR       #_modf                ; [CPU_] |143| 
         000003bb 0000 
    2180                      ; call occurs [#_modf] ; [] |143| 
    2181 000003bc 1EA6          MOVL      XAR6,ACC              ; [CPU_] |143| 
    2182 000003bd 9A00          MOV       AL,#0                 ; [CPU_] |143| 
    2183 000003be 9B00          MOV       AH,#0                 ; [CPU_] |143| 
    2184 000003bf 1E42          MOVL      *-SP[2],ACC           ; [CPU_] |143| 
    2185 000003c0 06A6          MOVL      ACC,XAR6              ; [CPU_] |143| 
    2186              $C$DW$183       .dwtag  DW_TAG_TI_branch
    2187                      .dwattr $C$DW$183, DW_AT_low_pc(0x00)
    2188                      .dwattr $C$DW$183, DW_AT_name("FS$$CMP")
    2189                      .dwattr $C$DW$183, DW_AT_TI_call
    2190 000003c1 7640!         LCR       #FS$$CMP              ; [CPU_] |143| 
         000003c2 0000 
    2191                      ; call occurs [#FS$$CMP] ; [] |143| 
    2192 000003c3 5200          CMPB      AL,#0                 ; [CPU_] |143| 
    2193 000003c4 56C2          BF        $C$L11,GT             ; [CPU_] |143| 
         000003c5 0004 
    2194                      ; branchcc occurs ; [] |143| 
    2195                      .dwpsn  file "C:/ti/ccsv6/tools/compiler/ti-cgt-c2000_6.4.9/include/math.h",line 150,column 18,is_stm
    2196 000003c6 0644          MOVL      ACC,*-SP[4]           ; [CPU_] |150| 
    2197 000003c7 6F07          B         $C$L12,UNC            ; [CPU_] |150| 
    2198                      ; branch occurs ; [] |150| 
    2199 000003c8       $C$L11:    
    2200                      .dwpsn  file "C:/ti/ccsv6/tools/compiler/ti-cgt-c2000_6.4.9/include/math.h",line 146,column 18,is_stm
    2201 000003c8 FF2F          MOV       ACC,#32512 << 15      ; [CPU_] |146| 
TMS320C2000 Assembler PC v6.4.9 Wed Dec 02 17:22:59 2015

Tools Copyright (c) 1996-2015 Texas Instruments Incorporated
C:\Users\ywcheng\AppData\Local\Temp\5601210                          PAGE   45

         000003c9 7F00 
    2202 000003ca 1E42          MOVL      *-SP[2],ACC           ; [CPU_] |146| 
    2203 000003cb 0644          MOVL      ACC,*-SP[4]           ; [CPU_] |146| 
    2204              $C$DW$184       .dwtag  DW_TAG_TI_branch
    2205                      .dwattr $C$DW$184, DW_AT_low_pc(0x00)
    2206                      .dwattr $C$DW$184, DW_AT_name("FS$$ADD")
    2207                      .dwattr $C$DW$184, DW_AT_TI_call
    2208 000003cc 7640!         LCR       #FS$$ADD              ; [CPU_] |146| 
         000003cd 0000 
    2209                      ; call occurs [#FS$$ADD] ; [] |146| 
    2210 000003ce       $C$L12:    
    2211                      .dwpsn  file "C:/ti/motorware/motorware_1_01_00_15/sw/modules/user/src/32b/user.c",line 961,column 3,
    2212              $C$DW$185       .dwtag  DW_TAG_TI_branch
    2213                      .dwattr $C$DW$185, DW_AT_low_pc(0x00)
    2214                      .dwattr $C$DW$185, DW_AT_name("FS$$NEG")
    2215                      .dwattr $C$DW$185, DW_AT_TI_call
    2216 000003ce 7640!         LCR       #FS$$NEG              ; [CPU_] |961| 
         000003cf 0000 
    2217                      ; call occurs [#FS$$NEG] ; [] |961| 
    2218 000003d0 1E42          MOVL      *-SP[2],ACC           ; [CPU_] |961| 
    2219 000003d1 9A00          MOV       AL,#0                 ; [CPU_] |961| 
    2220 000003d2 28A8          MOV       AH,#16384             ; [CPU_] |961| 
         000003d3 4000 
    2221              $C$DW$186       .dwtag  DW_TAG_TI_branch
    2222                      .dwattr $C$DW$186, DW_AT_low_pc(0x00)
    2223                      .dwattr $C$DW$186, DW_AT_name("_pow")
    2224                      .dwattr $C$DW$186, DW_AT_TI_call
    2225 000003d4 7640!         LCR       #_pow                 ; [CPU_] |961| 
         000003d5 0000 
    2226                      ; call occurs [#_pow] ; [] |961| 
    2227 000003d6 1EA6          MOVL      XAR6,ACC              ; [CPU_] |961| 
    2228 000003d7 28A9          MOV       AL,#49807             ; [CPU_] |961| 
         000003d8 C28F 
    2229 000003d9 28A8          MOV       AH,#15605             ; [CPU_] |961| 
         000003da 3CF5 
    2230 000003db 1E42          MOVL      *-SP[2],ACC           ; [CPU_] |961| 
    2231 000003dc 06A6          MOVL      ACC,XAR6              ; [CPU_] |961| 
    2232              $C$DW$187       .dwtag  DW_TAG_TI_branch
    2233                      .dwattr $C$DW$187, DW_AT_low_pc(0x00)
    2234                      .dwattr $C$DW$187, DW_AT_name("FS$$MPY")
    2235                      .dwattr $C$DW$187, DW_AT_TI_call
    2236 000003dd 7640!         LCR       #FS$$MPY              ; [CPU_] |961| 
         000003de 0000 
    2237                      ; call occurs [#FS$$MPY] ; [] |961| 
    2238 000003df 5CAD          MOVZ      AR4,SP                ; [CPU_] |961| 
    2239 000003e0 DC8C          SUBB      XAR4,#12              ; [CPU_U] |961| 
    2240 000003e1 88A4          MOVZ      AR6,AR4               ; [CPU_] |961| 
    2241              $C$DW$188       .dwtag  DW_TAG_TI_branch
    2242                      .dwattr $C$DW$188, DW_AT_low_pc(0x00)
    2243                      .dwattr $C$DW$188, DW_AT_name("FS$$TOFD")
    2244                      .dwattr $C$DW$188, DW_AT_TI_call
    2245 000003e2 7640!         LCR       #FS$$TOFD             ; [CPU_] |961| 
         000003e3 0000 
    2246                      ; call occurs [#FS$$TOFD] ; [] |961| 
    2247 000003e4 5DAD          MOVZ      AR5,SP                ; [CPU_] |961| 
TMS320C2000 Assembler PC v6.4.9 Wed Dec 02 17:22:59 2015

Tools Copyright (c) 1996-2015 Texas Instruments Incorporated
C:\Users\ywcheng\AppData\Local\Temp\5601210                          PAGE   46

    2248 000003e5 5CAD          MOVZ      AR4,SP                ; [CPU_] |961| 
    2249 000003e6 DD88          SUBB      XAR5,#8               ; [CPU_U] |961| 
    2250 000003e7 DC8C          SUBB      XAR4,#12              ; [CPU_U] |961| 
    2251 000003e8 88A5          MOVZ      AR6,AR5               ; [CPU_] |961| 
    2252 000003e9 5CA4          MOVZ      AR4,AR4               ; [CPU_] |961| 
    2253 000003ea 8F40+         MOVL      XAR5,#$C$FL2          ; [CPU_U] |961| 
         000003eb 0004 
    2254              $C$DW$189       .dwtag  DW_TAG_TI_branch
    2255                      .dwattr $C$DW$189, DW_AT_low_pc(0x00)
    2256                      .dwattr $C$DW$189, DW_AT_name("FD$$MPY")
    2257                      .dwattr $C$DW$189, DW_AT_TI_call
    2258 000003ec 7640!         LCR       #FD$$MPY              ; [CPU_] |961| 
         000003ed 0000 
    2259                      ; call occurs [#FD$$MPY] ; [] |961| 
    2260 000003ee 5CAD          MOVZ      AR4,SP                ; [CPU_] |961| 
    2261 000003ef DC88          SUBB      XAR4,#8               ; [CPU_U] |961| 
    2262 000003f0 5CA4          MOVZ      AR4,AR4               ; [CPU_] |961| 
    2263              $C$DW$190       .dwtag  DW_TAG_TI_branch
    2264                      .dwattr $C$DW$190, DW_AT_low_pc(0x00)
    2265                      .dwattr $C$DW$190, DW_AT_name("FD$$TOL")
    2266                      .dwattr $C$DW$190, DW_AT_TI_call
    2267 000003f1 7640!         LCR       #FD$$TOL              ; [CPU_] |961| 
         000003f2 0000 
    2268                      ; call occurs [#FD$$TOL] ; [] |961| 
    2269 000003f3 FE8C          SUBB      SP,#12                ; [CPU_U] 
    2270                      .dwcfi  cfa_offset, -4
    2271 000003f4 8BBE          MOVL      XAR1,*--SP            ; [CPU_] 
    2272                      .dwcfi  cfa_offset, -2
    2273                      .dwcfi  restore_reg, 7
    2274              $C$DW$191       .dwtag  DW_TAG_TI_branch
    2275                      .dwattr $C$DW$191, DW_AT_low_pc(0x00)
    2276                      .dwattr $C$DW$191, DW_AT_TI_return
    2277 000003f5 0006          LRETR     ; [CPU_] 
    2278                      ; return occurs ; [] 
    2279                      .dwattr $C$DW$176, DW_AT_TI_end_file("C:/ti/motorware/motorware_1_01_00_15/sw/modules/user/src/32b/us
    2280                      .dwattr $C$DW$176, DW_AT_TI_end_line(0x3c2)
    2281                      .dwattr $C$DW$176, DW_AT_TI_end_column(0x01)
    2282                      .dwendentry
    2283                      .dwendtag $C$DW$176
    2284              
    2285 000003f6               .sect   ".text"
    2286                      .clink
    2287                      .global _USER_computeFlux
    2288              
    2289              $C$DW$192       .dwtag  DW_TAG_subprogram, DW_AT_name("USER_computeFlux")
    2290                      .dwattr $C$DW$192, DW_AT_low_pc(_USER_computeFlux)
    2291                      .dwattr $C$DW$192, DW_AT_high_pc(0x00)
    2292                      .dwattr $C$DW$192, DW_AT_TI_symbol_name("_USER_computeFlux")
    2293                      .dwattr $C$DW$192, DW_AT_external
    2294                      .dwattr $C$DW$192, DW_AT_type(*$C$DW$T$20)
    2295                      .dwattr $C$DW$192, DW_AT_TI_begin_file("C:/ti/motorware/motorware_1_01_00_15/sw/modules/user/src/32b/
    2296                      .dwattr $C$DW$192, DW_AT_TI_begin_line(0x3c7)
    2297                      .dwattr $C$DW$192, DW_AT_TI_begin_column(0x05)
    2298                      .dwattr $C$DW$192, DW_AT_TI_max_frame_size(-4)
    2299                      .dwpsn  file "C:/ti/motorware/motorware_1_01_00_15/sw/modules/user/src/32b/user.c",line 968,column 1,
TMS320C2000 Assembler PC v6.4.9 Wed Dec 02 17:22:59 2015

Tools Copyright (c) 1996-2015 Texas Instruments Incorporated
C:\Users\ywcheng\AppData\Local\Temp\5601210                          PAGE   47

    2300              
    2301                      .dwfde $C$DW$CIE, _USER_computeFlux
    2302              $C$DW$193       .dwtag  DW_TAG_formal_parameter, DW_AT_name("handle")
    2303                      .dwattr $C$DW$193, DW_AT_TI_symbol_name("_handle")
    2304                      .dwattr $C$DW$193, DW_AT_type(*$C$DW$T$87)
    2305                      .dwattr $C$DW$193, DW_AT_location[DW_OP_reg12]
    2306              $C$DW$194       .dwtag  DW_TAG_formal_parameter, DW_AT_name("sf")
    2307                      .dwattr $C$DW$194, DW_AT_TI_symbol_name("_sf")
    2308                      .dwattr $C$DW$194, DW_AT_type(*$C$DW$T$93)
    2309                      .dwattr $C$DW$194, DW_AT_location[DW_OP_reg0]
    2310              
    2311              ;***************************************************************
    2312              ;* FNAME: _USER_computeFlux             FR SIZE:   2           *
    2313              ;*                                                             *
    2314              ;* FUNCTION ENVIRONMENT                                        *
    2315              ;*                                                             *
    2316              ;* FUNCTION PROPERTIES                                         *
    2317              ;*                            0 Parameter,  0 Auto,  2 SOE     *
    2318              ;***************************************************************
    2319              
    2320              _USER_computeFlux:
    2321              ;* AR4   assigned to _handle
    2322              $C$DW$195       .dwtag  DW_TAG_variable, DW_AT_name("handle")
    2323                      .dwattr $C$DW$195, DW_AT_TI_symbol_name("_handle")
    2324                      .dwattr $C$DW$195, DW_AT_type(*$C$DW$T$88)
    2325                      .dwattr $C$DW$195, DW_AT_location[DW_OP_reg12]
    2326              ;* AR1   assigned to _sf
    2327              $C$DW$196       .dwtag  DW_TAG_variable, DW_AT_name("sf")
    2328                      .dwattr $C$DW$196, DW_AT_TI_symbol_name("_sf")
    2329                      .dwattr $C$DW$196, DW_AT_type(*$C$DW$T$93)
    2330                      .dwattr $C$DW$196, DW_AT_location[DW_OP_reg6]
    2331                      .dwcfi  cfa_offset, -2
    2332                      .dwcfi  save_reg_to_mem, 26, 0
    2333 000003f6 B2BD          MOVL      *SP++,XAR1            ; [CPU_] 
    2334                      .dwcfi  save_reg_to_mem, 7, 2
    2335                      .dwcfi  cfa_offset, -4
    2336                      .dwpsn  file "C:/ti/motorware/motorware_1_01_00_15/sw/modules/user/src/32b/user.c",line 971,column 3,
    2337 000003f7 D018          MOVB      XAR0,#24              ; [CPU_] |971| 
    2338                      .dwpsn  file "C:/ti/motorware/motorware_1_01_00_15/sw/modules/user/src/32b/user.c",line 968,column 1,
    2339 000003f8 8BA9          MOVL      XAR1,ACC              ; [CPU_] |968| 
    2340                      .dwpsn  file "C:/ti/motorware/motorware_1_01_00_15/sw/modules/user/src/32b/user.c",line 971,column 3,
    2341 000003f9 8A94          MOVL      XAR4,*+XAR4[AR0]      ; [CPU_] |971| 
    2342              $C$DW$197       .dwtag  DW_TAG_TI_branch
    2343                      .dwattr $C$DW$197, DW_AT_low_pc(0x00)
    2344                      .dwattr $C$DW$197, DW_AT_name("_EST_getFlux_pu")
    2345                      .dwattr $C$DW$197, DW_AT_TI_call
    2346 000003fa 7640!         LCR       #_EST_getFlux_pu      ; [CPU_] |971| 
         000003fb 0000 
    2347                      ; call occurs [#_EST_getFlux_pu] ; [] |971| 
    2348 000003fc 1EAC          MOVL      XT,ACC                ; [CPU_] |971| 
    2349 000003fd 5605          IMPYL     P,XT,XAR1             ; [CPU_] |971| 
         000003fe 00A1 
    2350 000003ff 5663          QMPYL     ACC,XT,XAR1           ; [CPU_] |971| 
         00000400 00A1 
    2351 00000401 56A7          LSL64     ACC:P,#8              ; [CPU_] |971| 
TMS320C2000 Assembler PC v6.4.9 Wed Dec 02 17:22:59 2015

Tools Copyright (c) 1996-2015 Texas Instruments Incorporated
C:\Users\ywcheng\AppData\Local\Temp\5601210                          PAGE   48

    2352 00000402 8BBE          MOVL      XAR1,*--SP            ; [CPU_] 
    2353                      .dwcfi  cfa_offset, -2
    2354                      .dwcfi  restore_reg, 7
    2355              $C$DW$198       .dwtag  DW_TAG_TI_branch
    2356                      .dwattr $C$DW$198, DW_AT_low_pc(0x00)
    2357                      .dwattr $C$DW$198, DW_AT_TI_return
    2358 00000403 0006          LRETR     ; [CPU_] 
    2359                      ; return occurs ; [] 
    2360                      .dwattr $C$DW$192, DW_AT_TI_end_file("C:/ti/motorware/motorware_1_01_00_15/sw/modules/user/src/32b/us
    2361                      .dwattr $C$DW$192, DW_AT_TI_end_line(0x3cc)
    2362                      .dwattr $C$DW$192, DW_AT_TI_end_column(0x01)
    2363                      .dwendentry
    2364                      .dwendtag $C$DW$192
    2365              
    2366 00000404               .sect   ".text"
    2367                      .clink
    2368                      .global _USER_checkForErrors
    2369              
    2370              $C$DW$199       .dwtag  DW_TAG_subprogram, DW_AT_name("USER_checkForErrors")
    2371                      .dwattr $C$DW$199, DW_AT_low_pc(_USER_checkForErrors)
    2372                      .dwattr $C$DW$199, DW_AT_high_pc(0x00)
    2373                      .dwattr $C$DW$199, DW_AT_TI_symbol_name("_USER_checkForErrors")
    2374                      .dwattr $C$DW$199, DW_AT_external
    2375                      .dwattr $C$DW$199, DW_AT_TI_begin_file("C:/ti/motorware/motorware_1_01_00_15/sw/modules/user/src/32b/
    2376                      .dwattr $C$DW$199, DW_AT_TI_begin_line(0xc6)
    2377                      .dwattr $C$DW$199, DW_AT_TI_begin_column(0x06)
    2378                      .dwattr $C$DW$199, DW_AT_TI_max_frame_size(-2)
    2379                      .dwpsn  file "C:/ti/motorware/motorware_1_01_00_15/sw/modules/user/src/32b/user.c",line 199,column 1,
    2380              
    2381                      .dwfde $C$DW$CIE, _USER_checkForErrors
    2382              $C$DW$200       .dwtag  DW_TAG_formal_parameter, DW_AT_name("pUserParams")
    2383                      .dwattr $C$DW$200, DW_AT_TI_symbol_name("_pUserParams")
    2384                      .dwattr $C$DW$200, DW_AT_type(*$C$DW$T$79)
    2385                      .dwattr $C$DW$200, DW_AT_location[DW_OP_reg12]
    2386              
    2387              ;***************************************************************
    2388              ;* FNAME: _USER_checkForErrors          FR SIZE:   0           *
    2389              ;*                                                             *
    2390              ;* FUNCTION ENVIRONMENT                                        *
    2391              ;*                                                             *
    2392              ;* FUNCTION PROPERTIES                                         *
    2393              ;*                            0 Parameter,  0 Auto,  0 SOE     *
    2394              ;***************************************************************
    2395              
    2396 00000404       _USER_checkForErrors:
    2397                      .dwcfi  cfa_offset, -2
    2398                      .dwcfi  save_reg_to_mem, 26, 0
    2399                      .dwpsn  file "C:/ti/motorware/motorware_1_01_00_15/sw/modules/user/src/32b/user.c",line 200,column 3,
    2400 00000404 9A00          MOVB      AL,#0                 ; [CPU_] |200| 
    2401              $C$DW$201       .dwtag  DW_TAG_TI_branch
    2402                      .dwattr $C$DW$201, DW_AT_low_pc(0x00)
    2403                      .dwattr $C$DW$201, DW_AT_name("_USER_setErrorCode")
    2404                      .dwattr $C$DW$201, DW_AT_TI_call
    2405 00000405 7640'         LCR       #_USER_setErrorCode   ; [CPU_] |200| 
         00000406 0209 
TMS320C2000 Assembler PC v6.4.9 Wed Dec 02 17:22:59 2015

Tools Copyright (c) 1996-2015 Texas Instruments Incorporated
C:\Users\ywcheng\AppData\Local\Temp\5601210                          PAGE   49

    2406                      ; call occurs [#_USER_setErrorCode] ; [] |200| 
    2407              $C$DW$202       .dwtag  DW_TAG_TI_branch
    2408                      .dwattr $C$DW$202, DW_AT_low_pc(0x00)
    2409                      .dwattr $C$DW$202, DW_AT_TI_return
    2410 00000407 0006          LRETR     ; [CPU_] 
    2411                      ; return occurs ; [] 
    2412                      .dwattr $C$DW$199, DW_AT_TI_end_file("C:/ti/motorware/motorware_1_01_00_15/sw/modules/user/src/32b/us
    2413                      .dwattr $C$DW$199, DW_AT_TI_end_line(0x330)
    2414                      .dwattr $C$DW$199, DW_AT_TI_end_column(0x01)
    2415                      .dwendentry
    2416                      .dwendtag $C$DW$199
    2417              
    2418 00000408               .sect   ".text"
    2419                      .clink
    2420                      .global _USER_calcPIgains
    2421              
    2422              $C$DW$203       .dwtag  DW_TAG_subprogram, DW_AT_name("USER_calcPIgains")
    2423                      .dwattr $C$DW$203, DW_AT_low_pc(_USER_calcPIgains)
    2424                      .dwattr $C$DW$203, DW_AT_high_pc(0x00)
    2425                      .dwattr $C$DW$203, DW_AT_TI_symbol_name("_USER_calcPIgains")
    2426                      .dwattr $C$DW$203, DW_AT_external
    2427                      .dwattr $C$DW$203, DW_AT_TI_begin_file("C:/ti/motorware/motorware_1_01_00_15/sw/modules/user/src/32b/
    2428                      .dwattr $C$DW$203, DW_AT_TI_begin_line(0x357)
    2429                      .dwattr $C$DW$203, DW_AT_TI_begin_column(0x06)
    2430                      .dwattr $C$DW$203, DW_AT_TI_max_frame_size(-30)
    2431                      .dwpsn  file "C:/ti/motorware/motorware_1_01_00_15/sw/modules/user/src/32b/user.c",line 856,column 1,
    2432              
    2433                      .dwfde $C$DW$CIE, _USER_calcPIgains
    2434              $C$DW$204       .dwtag  DW_TAG_formal_parameter, DW_AT_name("handle")
    2435                      .dwattr $C$DW$204, DW_AT_TI_symbol_name("_handle")
    2436                      .dwattr $C$DW$204, DW_AT_type(*$C$DW$T$87)
    2437                      .dwattr $C$DW$204, DW_AT_location[DW_OP_reg12]
    2438              
    2439              ;***************************************************************
    2440              ;* FNAME: _USER_calcPIgains             FR SIZE:  28           *
    2441              ;*                                                             *
    2442              ;* FUNCTION ENVIRONMENT                                        *
    2443              ;*                                                             *
    2444              ;* FUNCTION PROPERTIES                                         *
    2445              ;*                            4 Parameter, 18 Auto,  6 SOE     *
    2446              ;***************************************************************
    2447              
    2448              _USER_calcPIgains:
    2449              ;* AR1   assigned to $O$C1
    2450              ;* AR3   assigned to _handle
    2451              $C$DW$205       .dwtag  DW_TAG_variable, DW_AT_name("handle")
    2452                      .dwattr $C$DW$205, DW_AT_TI_symbol_name("_handle")
    2453                      .dwattr $C$DW$205, DW_AT_type(*$C$DW$T$88)
    2454                      .dwattr $C$DW$205, DW_AT_location[DW_OP_reg10]
    2455              $C$DW$206       .dwtag  DW_TAG_variable, DW_AT_name("ctrlPeriod_sec")
    2456                      .dwattr $C$DW$206, DW_AT_TI_symbol_name("_ctrlPeriod_sec")
    2457                      .dwattr $C$DW$206, DW_AT_type(*$C$DW$T$54)
    2458                      .dwattr $C$DW$206, DW_AT_location[DW_OP_breg20 -14]
    2459              ;* AR2   assigned to _Ls_d
    2460              $C$DW$207       .dwtag  DW_TAG_variable, DW_AT_name("Ls_d")
TMS320C2000 Assembler PC v6.4.9 Wed Dec 02 17:22:59 2015

Tools Copyright (c) 1996-2015 Texas Instruments Incorporated
C:\Users\ywcheng\AppData\Local\Temp\5601210                          PAGE   50

    2461                      .dwattr $C$DW$207, DW_AT_TI_symbol_name("_Ls_d")
    2462                      .dwattr $C$DW$207, DW_AT_type(*$C$DW$T$54)
    2463                      .dwattr $C$DW$207, DW_AT_location[DW_OP_reg8]
    2464              $C$DW$208       .dwtag  DW_TAG_variable, DW_AT_name("Ls_q")
    2465                      .dwattr $C$DW$208, DW_AT_TI_symbol_name("_Ls_q")
    2466                      .dwattr $C$DW$208, DW_AT_type(*$C$DW$T$54)
    2467                      .dwattr $C$DW$208, DW_AT_location[DW_OP_breg20 -16]
    2468              $C$DW$209       .dwtag  DW_TAG_variable, DW_AT_name("Rs")
    2469                      .dwattr $C$DW$209, DW_AT_TI_symbol_name("_Rs")
    2470                      .dwattr $C$DW$209, DW_AT_type(*$C$DW$T$54)
    2471                      .dwattr $C$DW$209, DW_AT_location[DW_OP_breg20 -18]
    2472              $C$DW$210       .dwtag  DW_TAG_variable, DW_AT_name("Kp_Id")
    2473                      .dwattr $C$DW$210, DW_AT_TI_symbol_name("_Kp_Id")
    2474                      .dwattr $C$DW$210, DW_AT_type(*$C$DW$T$20)
    2475                      .dwattr $C$DW$210, DW_AT_location[DW_OP_breg20 -20]
    2476              ;* AR2   assigned to _Ki_Id
    2477              $C$DW$211       .dwtag  DW_TAG_variable, DW_AT_name("Ki_Id")
    2478                      .dwattr $C$DW$211, DW_AT_TI_symbol_name("_Ki_Id")
    2479                      .dwattr $C$DW$211, DW_AT_type(*$C$DW$T$20)
    2480                      .dwattr $C$DW$211, DW_AT_location[DW_OP_reg8]
    2481              $C$DW$212       .dwtag  DW_TAG_variable, DW_AT_name("Kp_Iq")
    2482                      .dwattr $C$DW$212, DW_AT_TI_symbol_name("_Kp_Iq")
    2483                      .dwattr $C$DW$212, DW_AT_type(*$C$DW$T$20)
    2484                      .dwattr $C$DW$212, DW_AT_location[DW_OP_breg20 -22]
    2485              ;* AR1   assigned to _Ki_Iq
    2486              $C$DW$213       .dwtag  DW_TAG_variable, DW_AT_name("Ki_Iq")
    2487                      .dwattr $C$DW$213, DW_AT_TI_symbol_name("_Ki_Iq")
    2488                      .dwattr $C$DW$213, DW_AT_type(*$C$DW$T$20)
    2489                      .dwattr $C$DW$213, DW_AT_location[DW_OP_reg6]
    2490                      .dwcfi  cfa_offset, -2
    2491                      .dwcfi  save_reg_to_mem, 26, 0
    2492 00000408 B2BD          MOVL      *SP++,XAR1            ; [CPU_] 
    2493                      .dwcfi  save_reg_to_mem, 7, 2
    2494                      .dwcfi  cfa_offset, -4
    2495 00000409 AABD          MOVL      *SP++,XAR2            ; [CPU_] 
    2496                      .dwcfi  save_reg_to_mem, 9, 4
    2497                      .dwcfi  cfa_offset, -6
    2498 0000040a A2BD          MOVL      *SP++,XAR3            ; [CPU_] 
    2499                      .dwcfi  save_reg_to_mem, 11, 6
    2500                      .dwcfi  cfa_offset, -8
    2501 0000040b FE16          ADDB      SP,#22                ; [CPU_U] 
    2502                      .dwcfi  cfa_offset, -30
    2503 0000040c 82A4          MOVL      XAR3,XAR4             ; [CPU_] |856| 
    2504                      .dwpsn  file "C:/ti/motorware/motorware_1_01_00_15/sw/modules/ctrl/src/32b/ctrl.h",line 165,column 3,
    2505 0000040d D0A6          MOVB      XAR0,#166             ; [CPU_] |165| 
    2506 0000040e 0693          MOVL      ACC,*+XAR3[AR0]       ; [CPU_] |165| 
    2507                      .dwpsn  file "C:/ti/motorware/motorware_1_01_00_15/sw/modules/user/src/32b/user.c",line 886,column 3,
    2508 0000040f D018          MOVB      XAR0,#24              ; [CPU_] |886| 
    2509                      .dwpsn  file "C:/ti/motorware/motorware_1_01_00_15/sw/modules/ctrl/src/32b/ctrl.h",line 165,column 3,
    2510 00000410 1E4E          MOVL      *-SP[14],ACC          ; [CPU_] |165| 
    2511                      .dwpsn  file "C:/ti/motorware/motorware_1_01_00_15/sw/modules/user/src/32b/user.c",line 886,column 3,
    2512 00000411 8A93          MOVL      XAR4,*+XAR3[AR0]      ; [CPU_] |886| 
    2513              $C$DW$214       .dwtag  DW_TAG_TI_branch
    2514                      .dwattr $C$DW$214, DW_AT_low_pc(0x00)
    2515                      .dwattr $C$DW$214, DW_AT_name("_EST_getLs_d_H")
TMS320C2000 Assembler PC v6.4.9 Wed Dec 02 17:22:59 2015

Tools Copyright (c) 1996-2015 Texas Instruments Incorporated
C:\Users\ywcheng\AppData\Local\Temp\5601210                          PAGE   51

    2516                      .dwattr $C$DW$214, DW_AT_TI_call
    2517 00000412 7640!         LCR       #_EST_getLs_d_H       ; [CPU_] |886| 
         00000413 0000 
    2518                      ; call occurs [#_EST_getLs_d_H] ; [] |886| 
    2519                      .dwpsn  file "C:/ti/motorware/motorware_1_01_00_15/sw/modules/user/src/32b/user.c",line 888,column 3,
    2520 00000414 D018          MOVB      XAR0,#24              ; [CPU_] |888| 
    2521                      .dwpsn  file "C:/ti/motorware/motorware_1_01_00_15/sw/modules/user/src/32b/user.c",line 886,column 3,
    2522 00000415 86A9          MOVL      XAR2,ACC              ; [CPU_] |886| 
    2523                      .dwpsn  file "C:/ti/motorware/motorware_1_01_00_15/sw/modules/user/src/32b/user.c",line 888,column 3,
    2524 00000416 8A93          MOVL      XAR4,*+XAR3[AR0]      ; [CPU_] |888| 
    2525              $C$DW$215       .dwtag  DW_TAG_TI_branch
    2526                      .dwattr $C$DW$215, DW_AT_low_pc(0x00)
    2527                      .dwattr $C$DW$215, DW_AT_name("_EST_getLs_q_H")
    2528                      .dwattr $C$DW$215, DW_AT_TI_call
    2529 00000417 7640!         LCR       #_EST_getLs_q_H       ; [CPU_] |888| 
         00000418 0000 
    2530                      ; call occurs [#_EST_getLs_q_H] ; [] |888| 
    2531                      .dwpsn  file "C:/ti/motorware/motorware_1_01_00_15/sw/modules/user/src/32b/user.c",line 890,column 3,
    2532 00000419 D018          MOVB      XAR0,#24              ; [CPU_] |890| 
    2533                      .dwpsn  file "C:/ti/motorware/motorware_1_01_00_15/sw/modules/user/src/32b/user.c",line 888,column 3,
    2534 0000041a 1E50          MOVL      *-SP[16],ACC          ; [CPU_] |888| 
    2535                      .dwpsn  file "C:/ti/motorware/motorware_1_01_00_15/sw/modules/user/src/32b/user.c",line 890,column 3,
    2536 0000041b 8A93          MOVL      XAR4,*+XAR3[AR0]      ; [CPU_] |890| 
    2537              $C$DW$216       .dwtag  DW_TAG_TI_branch
    2538                      .dwattr $C$DW$216, DW_AT_low_pc(0x00)
    2539                      .dwattr $C$DW$216, DW_AT_name("_EST_getRs_Ohm")
    2540                      .dwattr $C$DW$216, DW_AT_TI_call
    2541 0000041c 7640!         LCR       #_EST_getRs_Ohm       ; [CPU_] |890| 
         0000041d 0000 
    2542                      ; call occurs [#_EST_getRs_Ohm] ; [] |890| 
    2543 0000041e 1E52          MOVL      *-SP[18],ACC          ; [CPU_] |890| 
    2544                      .dwpsn  file "C:/ti/motorware/motorware_1_01_00_15/sw/modules/user/src/32b/user.c",line 894,column 3,
    2545 0000041f 9A00          MOV       AL,#0                 ; [CPU_] |894| 
    2546 00000420 28A8          MOV       AH,#17377             ; [CPU_] |894| 
         00000421 43E1 
    2547 00000422 1E42          MOVL      *-SP[2],ACC           ; [CPU_] |894| 
    2548 00000423 064E          MOVL      ACC,*-SP[14]          ; [CPU_] |894| 
    2549              $C$DW$217       .dwtag  DW_TAG_TI_branch
    2550                      .dwattr $C$DW$217, DW_AT_low_pc(0x00)
    2551                      .dwattr $C$DW$217, DW_AT_name("FS$$MPY")
    2552                      .dwattr $C$DW$217, DW_AT_TI_call
    2553 00000424 7640!         LCR       #FS$$MPY              ; [CPU_] |894| 
         00000425 0000 
    2554                      ; call occurs [#FS$$MPY] ; [] |894| 
    2555 00000426 8BA9          MOVL      XAR1,ACC              ; [CPU_] |894| 
    2556 00000427 FF2F          MOV       ACC,#32000 << 15      ; [CPU_] |894| 
         00000428 7D00 
    2557 00000429 1E42          MOVL      *-SP[2],ACC           ; [CPU_] |894| 
    2558 0000042a AAA9          MOVL      ACC,XAR2              ; [CPU_] |894| 
    2559              $C$DW$218       .dwtag  DW_TAG_TI_branch
    2560                      .dwattr $C$DW$218, DW_AT_low_pc(0x00)
    2561                      .dwattr $C$DW$218, DW_AT_name("FS$$MPY")
    2562                      .dwattr $C$DW$218, DW_AT_TI_call
    2563 0000042b 7640!         LCR       #FS$$MPY              ; [CPU_] |894| 
         0000042c 0000 
TMS320C2000 Assembler PC v6.4.9 Wed Dec 02 17:22:59 2015

Tools Copyright (c) 1996-2015 Texas Instruments Incorporated
C:\Users\ywcheng\AppData\Local\Temp\5601210                          PAGE   52

    2564                      ; call occurs [#FS$$MPY] ; [] |894| 
    2565 0000042d 1EA6          MOVL      XAR6,ACC              ; [CPU_] |894| 
    2566 0000042e 9A00          MOV       AL,#0                 ; [CPU_] |894| 
    2567 0000042f 28A8          MOV       AH,#16672             ; [CPU_] |894| 
         00000430 4120 
    2568 00000431 1E42          MOVL      *-SP[2],ACC           ; [CPU_] |894| 
    2569 00000432 06A6          MOVL      ACC,XAR6              ; [CPU_] |894| 
    2570              $C$DW$219       .dwtag  DW_TAG_TI_branch
    2571                      .dwattr $C$DW$219, DW_AT_low_pc(0x00)
    2572                      .dwattr $C$DW$219, DW_AT_name("FS$$MPY")
    2573                      .dwattr $C$DW$219, DW_AT_TI_call
    2574 00000433 7640!         LCR       #FS$$MPY              ; [CPU_] |894| 
         00000434 0000 
    2575                      ; call occurs [#FS$$MPY] ; [] |894| 
    2576 00000435 B242          MOVL      *-SP[2],XAR1          ; [CPU_] |894| 
    2577              $C$DW$220       .dwtag  DW_TAG_TI_branch
    2578                      .dwattr $C$DW$220, DW_AT_low_pc(0x00)
    2579                      .dwattr $C$DW$220, DW_AT_name("FS$$DIV")
    2580                      .dwattr $C$DW$220, DW_AT_TI_call
    2581 00000436 7640!         LCR       #FS$$DIV              ; [CPU_] |894| 
         00000437 0000 
    2582                      ; call occurs [#FS$$DIV] ; [] |894| 
    2583 00000438 5CAD          MOVZ      AR4,SP                ; [CPU_] |894| 
    2584 00000439 DC8C          SUBB      XAR4,#12              ; [CPU_U] |894| 
    2585 0000043a 88A4          MOVZ      AR6,AR4               ; [CPU_] |894| 
    2586              $C$DW$221       .dwtag  DW_TAG_TI_branch
    2587                      .dwattr $C$DW$221, DW_AT_low_pc(0x00)
    2588                      .dwattr $C$DW$221, DW_AT_name("FS$$TOFD")
    2589                      .dwattr $C$DW$221, DW_AT_TI_call
    2590 0000043b 7640!         LCR       #FS$$TOFD             ; [CPU_] |894| 
         0000043c 0000 
    2591                      ; call occurs [#FS$$TOFD] ; [] |894| 
    2592 0000043d 5DAD          MOVZ      AR5,SP                ; [CPU_] |894| 
    2593 0000043e 5CAD          MOVZ      AR4,SP                ; [CPU_] |894| 
    2594 0000043f DD88          SUBB      XAR5,#8               ; [CPU_U] |894| 
    2595 00000440 DC8C          SUBB      XAR4,#12              ; [CPU_U] |894| 
    2596 00000441 88A5          MOVZ      AR6,AR5               ; [CPU_] |894| 
    2597 00000442 5CA4          MOVZ      AR4,AR4               ; [CPU_] |894| 
    2598 00000443 8F40+         MOVL      XAR5,#$C$FL2          ; [CPU_U] |894| 
         00000444 0004 
    2599              $C$DW$222       .dwtag  DW_TAG_TI_branch
    2600                      .dwattr $C$DW$222, DW_AT_low_pc(0x00)
    2601                      .dwattr $C$DW$222, DW_AT_name("FD$$MPY")
    2602                      .dwattr $C$DW$222, DW_AT_TI_call
    2603 00000445 7640!         LCR       #FD$$MPY              ; [CPU_] |894| 
         00000446 0000 
    2604                      ; call occurs [#FD$$MPY] ; [] |894| 
    2605 00000447 5CAD          MOVZ      AR4,SP                ; [CPU_] |894| 
    2606 00000448 DC88          SUBB      XAR4,#8               ; [CPU_U] |894| 
    2607 00000449 5CA4          MOVZ      AR4,AR4               ; [CPU_] |894| 
    2608              $C$DW$223       .dwtag  DW_TAG_TI_branch
    2609                      .dwattr $C$DW$223, DW_AT_low_pc(0x00)
    2610                      .dwattr $C$DW$223, DW_AT_name("FD$$TOL")
    2611                      .dwattr $C$DW$223, DW_AT_TI_call
    2612 0000044a 7640!         LCR       #FD$$TOL              ; [CPU_] |894| 
TMS320C2000 Assembler PC v6.4.9 Wed Dec 02 17:22:59 2015

Tools Copyright (c) 1996-2015 Texas Instruments Incorporated
C:\Users\ywcheng\AppData\Local\Temp\5601210                          PAGE   53

         0000044b 0000 
    2613                      ; call occurs [#FD$$TOL] ; [] |894| 
    2614 0000044c 1E54          MOVL      *-SP[20],ACC          ; [CPU_] |894| 
    2615                      .dwpsn  file "C:/ti/motorware/motorware_1_01_00_15/sw/modules/user/src/32b/user.c",line 895,column 3,
    2616 0000044d AA42          MOVL      *-SP[2],XAR2          ; [CPU_] |895| 
    2617 0000044e 0652          MOVL      ACC,*-SP[18]          ; [CPU_] |895| 
    2618              $C$DW$224       .dwtag  DW_TAG_TI_branch
    2619                      .dwattr $C$DW$224, DW_AT_low_pc(0x00)
    2620                      .dwattr $C$DW$224, DW_AT_name("FS$$DIV")
    2621                      .dwattr $C$DW$224, DW_AT_TI_call
    2622 0000044f 7640!         LCR       #FS$$DIV              ; [CPU_] |895| 
         00000450 0000 
    2623                      ; call occurs [#FS$$DIV] ; [] |895| 
    2624 00000451 C44E          MOVL      XAR6,*-SP[14]         ; [CPU_] |895| 
    2625 00000452 C242          MOVL      *-SP[2],XAR6          ; [CPU_] |895| 
    2626              $C$DW$225       .dwtag  DW_TAG_TI_branch
    2627                      .dwattr $C$DW$225, DW_AT_low_pc(0x00)
    2628                      .dwattr $C$DW$225, DW_AT_name("FS$$MPY")
    2629                      .dwattr $C$DW$225, DW_AT_TI_call
    2630 00000453 7640!         LCR       #FS$$MPY              ; [CPU_] |895| 
         00000454 0000 
    2631                      ; call occurs [#FS$$MPY] ; [] |895| 
    2632 00000455 5CAD          MOVZ      AR4,SP                ; [CPU_] |895| 
    2633 00000456 DC8C          SUBB      XAR4,#12              ; [CPU_U] |895| 
    2634 00000457 88A4          MOVZ      AR6,AR4               ; [CPU_] |895| 
    2635              $C$DW$226       .dwtag  DW_TAG_TI_branch
    2636                      .dwattr $C$DW$226, DW_AT_low_pc(0x00)
    2637                      .dwattr $C$DW$226, DW_AT_name("FS$$TOFD")
    2638                      .dwattr $C$DW$226, DW_AT_TI_call
    2639 00000458 7640!         LCR       #FS$$TOFD             ; [CPU_] |895| 
         00000459 0000 
    2640                      ; call occurs [#FS$$TOFD] ; [] |895| 
    2641 0000045a 5DAD          MOVZ      AR5,SP                ; [CPU_] |895| 
    2642 0000045b 5CAD          MOVZ      AR4,SP                ; [CPU_] |895| 
    2643 0000045c DD88          SUBB      XAR5,#8               ; [CPU_U] |895| 
    2644 0000045d DC8C          SUBB      XAR4,#12              ; [CPU_U] |895| 
    2645 0000045e 88A5          MOVZ      AR6,AR5               ; [CPU_] |895| 
    2646 0000045f 5CA4          MOVZ      AR4,AR4               ; [CPU_] |895| 
    2647 00000460 8F40+         MOVL      XAR5,#$C$FL2          ; [CPU_U] |895| 
         00000461 0004 
    2648              $C$DW$227       .dwtag  DW_TAG_TI_branch
    2649                      .dwattr $C$DW$227, DW_AT_low_pc(0x00)
    2650                      .dwattr $C$DW$227, DW_AT_name("FD$$MPY")
    2651                      .dwattr $C$DW$227, DW_AT_TI_call
    2652 00000462 7640!         LCR       #FD$$MPY              ; [CPU_] |895| 
         00000463 0000 
    2653                      ; call occurs [#FD$$MPY] ; [] |895| 
    2654 00000464 5CAD          MOVZ      AR4,SP                ; [CPU_] |895| 
    2655 00000465 DC88          SUBB      XAR4,#8               ; [CPU_U] |895| 
    2656 00000466 5CA4          MOVZ      AR4,AR4               ; [CPU_] |895| 
    2657              $C$DW$228       .dwtag  DW_TAG_TI_branch
    2658                      .dwattr $C$DW$228, DW_AT_low_pc(0x00)
    2659                      .dwattr $C$DW$228, DW_AT_name("FD$$TOL")
    2660                      .dwattr $C$DW$228, DW_AT_TI_call
    2661 00000467 7640!         LCR       #FD$$TOL              ; [CPU_] |895| 
TMS320C2000 Assembler PC v6.4.9 Wed Dec 02 17:22:59 2015

Tools Copyright (c) 1996-2015 Texas Instruments Incorporated
C:\Users\ywcheng\AppData\Local\Temp\5601210                          PAGE   54

         00000468 0000 
    2662                      ; call occurs [#FD$$TOL] ; [] |895| 
    2663 00000469 86A9          MOVL      XAR2,ACC              ; [CPU_] |895| 
    2664                      .dwpsn  file "C:/ti/motorware/motorware_1_01_00_15/sw/modules/user/src/32b/user.c",line 898,column 3,
    2665 0000046a FF2F          MOV       ACC,#32000 << 15      ; [CPU_] |898| 
         0000046b 7D00 
    2666 0000046c 1E42          MOVL      *-SP[2],ACC           ; [CPU_] |898| 
    2667 0000046d 0650          MOVL      ACC,*-SP[16]          ; [CPU_] |898| 
    2668              $C$DW$229       .dwtag  DW_TAG_TI_branch
    2669                      .dwattr $C$DW$229, DW_AT_low_pc(0x00)
    2670                      .dwattr $C$DW$229, DW_AT_name("FS$$MPY")
    2671                      .dwattr $C$DW$229, DW_AT_TI_call
    2672 0000046e 7640!         LCR       #FS$$MPY              ; [CPU_] |898| 
         0000046f 0000 
    2673                      ; call occurs [#FS$$MPY] ; [] |898| 
    2674 00000470 1EA6          MOVL      XAR6,ACC              ; [CPU_] |898| 
    2675 00000471 9A00          MOV       AL,#0                 ; [CPU_] |898| 
    2676 00000472 28A8          MOV       AH,#16672             ; [CPU_] |898| 
         00000473 4120 
    2677 00000474 1E42          MOVL      *-SP[2],ACC           ; [CPU_] |898| 
    2678 00000475 06A6          MOVL      ACC,XAR6              ; [CPU_] |898| 
    2679              $C$DW$230       .dwtag  DW_TAG_TI_branch
    2680                      .dwattr $C$DW$230, DW_AT_low_pc(0x00)
    2681                      .dwattr $C$DW$230, DW_AT_name("FS$$MPY")
    2682                      .dwattr $C$DW$230, DW_AT_TI_call
    2683 00000476 7640!         LCR       #FS$$MPY              ; [CPU_] |898| 
         00000477 0000 
    2684                      ; call occurs [#FS$$MPY] ; [] |898| 
    2685 00000478 B242          MOVL      *-SP[2],XAR1          ; [CPU_] |898| 
    2686              $C$DW$231       .dwtag  DW_TAG_TI_branch
    2687                      .dwattr $C$DW$231, DW_AT_low_pc(0x00)
    2688                      .dwattr $C$DW$231, DW_AT_name("FS$$DIV")
    2689                      .dwattr $C$DW$231, DW_AT_TI_call
    2690 00000479 7640!         LCR       #FS$$DIV              ; [CPU_] |898| 
         0000047a 0000 
    2691                      ; call occurs [#FS$$DIV] ; [] |898| 
    2692 0000047b 5CAD          MOVZ      AR4,SP                ; [CPU_] |898| 
    2693 0000047c DC8C          SUBB      XAR4,#12              ; [CPU_U] |898| 
    2694 0000047d 88A4          MOVZ      AR6,AR4               ; [CPU_] |898| 
    2695              $C$DW$232       .dwtag  DW_TAG_TI_branch
    2696                      .dwattr $C$DW$232, DW_AT_low_pc(0x00)
    2697                      .dwattr $C$DW$232, DW_AT_name("FS$$TOFD")
    2698                      .dwattr $C$DW$232, DW_AT_TI_call
    2699 0000047e 7640!         LCR       #FS$$TOFD             ; [CPU_] |898| 
         0000047f 0000 
    2700                      ; call occurs [#FS$$TOFD] ; [] |898| 
    2701 00000480 5DAD          MOVZ      AR5,SP                ; [CPU_] |898| 
    2702 00000481 5CAD          MOVZ      AR4,SP                ; [CPU_] |898| 
    2703 00000482 DD88          SUBB      XAR5,#8               ; [CPU_U] |898| 
    2704 00000483 DC8C          SUBB      XAR4,#12              ; [CPU_U] |898| 
    2705 00000484 88A5          MOVZ      AR6,AR5               ; [CPU_] |898| 
    2706 00000485 5CA4          MOVZ      AR4,AR4               ; [CPU_] |898| 
    2707 00000486 8F40+         MOVL      XAR5,#$C$FL2          ; [CPU_U] |898| 
         00000487 0004 
    2708              $C$DW$233       .dwtag  DW_TAG_TI_branch
TMS320C2000 Assembler PC v6.4.9 Wed Dec 02 17:22:59 2015

Tools Copyright (c) 1996-2015 Texas Instruments Incorporated
C:\Users\ywcheng\AppData\Local\Temp\5601210                          PAGE   55

    2709                      .dwattr $C$DW$233, DW_AT_low_pc(0x00)
    2710                      .dwattr $C$DW$233, DW_AT_name("FD$$MPY")
    2711                      .dwattr $C$DW$233, DW_AT_TI_call
    2712 00000488 7640!         LCR       #FD$$MPY              ; [CPU_] |898| 
         00000489 0000 
    2713                      ; call occurs [#FD$$MPY] ; [] |898| 
    2714 0000048a 5CAD          MOVZ      AR4,SP                ; [CPU_] |898| 
    2715 0000048b DC88          SUBB      XAR4,#8               ; [CPU_U] |898| 
    2716 0000048c 5CA4          MOVZ      AR4,AR4               ; [CPU_] |898| 
    2717              $C$DW$234       .dwtag  DW_TAG_TI_branch
    2718                      .dwattr $C$DW$234, DW_AT_low_pc(0x00)
    2719                      .dwattr $C$DW$234, DW_AT_name("FD$$TOL")
    2720                      .dwattr $C$DW$234, DW_AT_TI_call
    2721 0000048d 7640!         LCR       #FD$$TOL              ; [CPU_] |898| 
         0000048e 0000 
    2722                      ; call occurs [#FD$$TOL] ; [] |898| 
    2723 0000048f 1E56          MOVL      *-SP[22],ACC          ; [CPU_] |898| 
    2724 00000490 0650          MOVL      ACC,*-SP[16]          ; [CPU_] |898| 
    2725                      .dwpsn  file "C:/ti/motorware/motorware_1_01_00_15/sw/modules/user/src/32b/user.c",line 899,column 3,
    2726 00000491 1E42          MOVL      *-SP[2],ACC           ; [CPU_] |899| 
    2727 00000492 0652          MOVL      ACC,*-SP[18]          ; [CPU_] |899| 
    2728              $C$DW$235       .dwtag  DW_TAG_TI_branch
    2729                      .dwattr $C$DW$235, DW_AT_low_pc(0x00)
    2730                      .dwattr $C$DW$235, DW_AT_name("FS$$DIV")
    2731                      .dwattr $C$DW$235, DW_AT_TI_call
    2732 00000493 7640!         LCR       #FS$$DIV              ; [CPU_] |899| 
         00000494 0000 
    2733                      ; call occurs [#FS$$DIV] ; [] |899| 
    2734 00000495 C44E          MOVL      XAR6,*-SP[14]         ; [CPU_] |899| 
    2735 00000496 C242          MOVL      *-SP[2],XAR6          ; [CPU_] |899| 
    2736              $C$DW$236       .dwtag  DW_TAG_TI_branch
    2737                      .dwattr $C$DW$236, DW_AT_low_pc(0x00)
    2738                      .dwattr $C$DW$236, DW_AT_name("FS$$MPY")
    2739                      .dwattr $C$DW$236, DW_AT_TI_call
    2740 00000497 7640!         LCR       #FS$$MPY              ; [CPU_] |899| 
         00000498 0000 
    2741                      ; call occurs [#FS$$MPY] ; [] |899| 
    2742 00000499 5CAD          MOVZ      AR4,SP                ; [CPU_] |899| 
    2743 0000049a DC8C          SUBB      XAR4,#12              ; [CPU_U] |899| 
    2744 0000049b 88A4          MOVZ      AR6,AR4               ; [CPU_] |899| 
    2745              $C$DW$237       .dwtag  DW_TAG_TI_branch
    2746                      .dwattr $C$DW$237, DW_AT_low_pc(0x00)
    2747                      .dwattr $C$DW$237, DW_AT_name("FS$$TOFD")
    2748                      .dwattr $C$DW$237, DW_AT_TI_call
    2749 0000049c 7640!         LCR       #FS$$TOFD             ; [CPU_] |899| 
         0000049d 0000 
    2750                      ; call occurs [#FS$$TOFD] ; [] |899| 
    2751 0000049e 5DAD          MOVZ      AR5,SP                ; [CPU_] |899| 
    2752 0000049f 5CAD          MOVZ      AR4,SP                ; [CPU_] |899| 
    2753 000004a0 DD88          SUBB      XAR5,#8               ; [CPU_U] |899| 
    2754 000004a1 DC8C          SUBB      XAR4,#12              ; [CPU_U] |899| 
    2755 000004a2 88A5          MOVZ      AR6,AR5               ; [CPU_] |899| 
    2756 000004a3 5CA4          MOVZ      AR4,AR4               ; [CPU_] |899| 
    2757 000004a4 8F40+         MOVL      XAR5,#$C$FL2          ; [CPU_U] |899| 
         000004a5 0004 
TMS320C2000 Assembler PC v6.4.9 Wed Dec 02 17:22:59 2015

Tools Copyright (c) 1996-2015 Texas Instruments Incorporated
C:\Users\ywcheng\AppData\Local\Temp\5601210                          PAGE   56

    2758              $C$DW$238       .dwtag  DW_TAG_TI_branch
    2759                      .dwattr $C$DW$238, DW_AT_low_pc(0x00)
    2760                      .dwattr $C$DW$238, DW_AT_name("FD$$MPY")
    2761                      .dwattr $C$DW$238, DW_AT_TI_call
    2762 000004a6 7640!         LCR       #FD$$MPY              ; [CPU_] |899| 
         000004a7 0000 
    2763                      ; call occurs [#FD$$MPY] ; [] |899| 
    2764 000004a8 5CAD          MOVZ      AR4,SP                ; [CPU_] |899| 
    2765 000004a9 DC88          SUBB      XAR4,#8               ; [CPU_U] |899| 
    2766 000004aa 5CA4          MOVZ      AR4,AR4               ; [CPU_] |899| 
    2767              $C$DW$239       .dwtag  DW_TAG_TI_branch
    2768                      .dwattr $C$DW$239, DW_AT_low_pc(0x00)
    2769                      .dwattr $C$DW$239, DW_AT_name("FD$$TOL")
    2770                      .dwattr $C$DW$239, DW_AT_TI_call
    2771 000004ab 7640!         LCR       #FD$$TOL              ; [CPU_] |899| 
         000004ac 0000 
    2772                      ; call occurs [#FD$$TOL] ; [] |899| 
    2773                      .dwpsn  file "C:/ti/motorware/motorware_1_01_00_15/sw/modules/pid/src/32b/pid.h",line 333,column 3,is
    2774 000004ad D020          MOVB      XAR0,#32              ; [CPU_] |333| 
    2775 000004ae 8A93          MOVL      XAR4,*+XAR3[AR0]      ; [CPU_] |333| 
    2776                      .dwpsn  file "C:/ti/motorware/motorware_1_01_00_15/sw/modules/user/src/32b/user.c",line 899,column 3,
    2777 000004af 8BA9          MOVL      XAR1,ACC              ; [CPU_] |899| 
    2778                      .dwpsn  file "C:/ti/motorware/motorware_1_01_00_15/sw/modules/user/src/32b/user.c",line 905,column 3,
    2779 000004b0 0200          MOVB      ACC,#0                ; [CPU_] |905| 
    2780                      .dwpsn  file "C:/ti/motorware/motorware_1_01_00_15/sw/modules/pid/src/32b/pid.h",line 333,column 3,is
    2781 000004b1 AAD4          MOVL      *+XAR4[2],XAR2        ; [CPU_] |333| 
    2782                      .dwpsn  file "C:/ti/motorware/motorware_1_01_00_15/sw/modules/user/src/32b/user.c",line 905,column 3,
    2783 000004b2 AA42          MOVL      *-SP[2],XAR2          ; [CPU_] |905| 
    2784 000004b3 1E44          MOVL      *-SP[4],ACC           ; [CPU_] |905| 
    2785 000004b4 0654          MOVL      ACC,*-SP[20]          ; [CPU_] |905| 
    2786 000004b5 D501          MOVB      XAR5,#1               ; [CPU_] |905| 
    2787 000004b6 8AA3          MOVL      XAR4,XAR3             ; [CPU_] |905| 
    2788              $C$DW$240       .dwtag  DW_TAG_TI_branch
    2789                      .dwattr $C$DW$240, DW_AT_low_pc(0x00)
    2790                      .dwattr $C$DW$240, DW_AT_name("_CTRL_setGains")
    2791                      .dwattr $C$DW$240, DW_AT_TI_call
    2792 000004b7 7640!         LCR       #_CTRL_setGains       ; [CPU_] |905| 
         000004b8 0000 
    2793                      ; call occurs [#_CTRL_setGains] ; [] |905| 
    2794                      .dwpsn  file "C:/ti/motorware/motorware_1_01_00_15/sw/modules/pid/src/32b/pid.h",line 333,column 3,is
    2795 000004b9 D032          MOVB      XAR0,#50              ; [CPU_] |333| 
    2796 000004ba 8A93          MOVL      XAR4,*+XAR3[AR0]      ; [CPU_] |333| 
    2797                      .dwpsn  file "C:/ti/motorware/motorware_1_01_00_15/sw/modules/user/src/32b/user.c",line 909,column 3,
    2798 000004bb 0200          MOVB      ACC,#0                ; [CPU_] |909| 
    2799                      .dwpsn  file "C:/ti/motorware/motorware_1_01_00_15/sw/modules/pid/src/32b/pid.h",line 333,column 3,is
    2800 000004bc B2D4          MOVL      *+XAR4[2],XAR1        ; [CPU_] |333| 
    2801                      .dwpsn  file "C:/ti/motorware/motorware_1_01_00_15/sw/modules/user/src/32b/user.c",line 909,column 3,
    2802 000004bd B242          MOVL      *-SP[2],XAR1          ; [CPU_] |909| 
    2803 000004be 1E44          MOVL      *-SP[4],ACC           ; [CPU_] |909| 
    2804 000004bf 0656          MOVL      ACC,*-SP[22]          ; [CPU_] |909| 
    2805 000004c0 D502          MOVB      XAR5,#2               ; [CPU_] |909| 
    2806 000004c1 8AA3          MOVL      XAR4,XAR3             ; [CPU_] |909| 
    2807              $C$DW$241       .dwtag  DW_TAG_TI_branch
    2808                      .dwattr $C$DW$241, DW_AT_low_pc(0x00)
    2809                      .dwattr $C$DW$241, DW_AT_name("_CTRL_setGains")
TMS320C2000 Assembler PC v6.4.9 Wed Dec 02 17:22:59 2015

Tools Copyright (c) 1996-2015 Texas Instruments Incorporated
C:\Users\ywcheng\AppData\Local\Temp\5601210                          PAGE   57

    2810                      .dwattr $C$DW$241, DW_AT_TI_call
    2811 000004c2 7640!         LCR       #_CTRL_setGains       ; [CPU_] |909| 
         000004c3 0000 
    2812                      ; call occurs [#_CTRL_setGains] ; [] |909| 
    2813 000004c4 FE96          SUBB      SP,#22                ; [CPU_U] 
    2814                      .dwcfi  cfa_offset, -8
    2815 000004c5 82BE          MOVL      XAR3,*--SP            ; [CPU_] 
    2816                      .dwcfi  cfa_offset, -6
    2817                      .dwcfi  restore_reg, 11
    2818 000004c6 86BE          MOVL      XAR2,*--SP            ; [CPU_] 
    2819                      .dwcfi  cfa_offset, -4
    2820                      .dwcfi  restore_reg, 9
    2821 000004c7 8BBE          MOVL      XAR1,*--SP            ; [CPU_] 
    2822                      .dwcfi  cfa_offset, -2
    2823                      .dwcfi  restore_reg, 7
    2824              $C$DW$242       .dwtag  DW_TAG_TI_branch
    2825                      .dwattr $C$DW$242, DW_AT_low_pc(0x00)
    2826                      .dwattr $C$DW$242, DW_AT_TI_return
    2827 000004c8 0006          LRETR     ; [CPU_] 
    2828                      ; return occurs ; [] 
    2829                      .dwattr $C$DW$203, DW_AT_TI_end_file("C:/ti/motorware/motorware_1_01_00_15/sw/modules/user/src/32b/us
    2830                      .dwattr $C$DW$203, DW_AT_TI_end_line(0x390)
    2831                      .dwattr $C$DW$203, DW_AT_TI_end_column(0x01)
    2832                      .dwendentry
    2833                      .dwendtag $C$DW$203
    2834              
    2835              ;***************************************************************
    2836              ;* FLOATING-POINT CONSTANTS                                    *
    2837              ;***************************************************************
    2838 00000000               .sect   ".econst"
    2839                      .align  2
    2840 00000000 0000  $C$FL1: .xldouble       $strtod("0x1p+30")
         00000001 0000 
         00000002 0000 
         00000003 41D0 
    2841                      .align  2
    2842 00000004 0000  $C$FL2: .xldouble       $strtod("0x1p+24")
         00000005 0000 
         00000006 0000 
         00000007 4170 
    2843              ;**************************************************************
    2844              ;* UNDEFINED EXTERNAL REFERENCES                              *
    2845              ;**************************************************************
    2846                      .global _CTRL_setGains
    2847                      .global _EST_setLs_qFmt
    2848                      .global _EST_setLs_d_pu
    2849                      .global _EST_setLs_q_pu
    2850                      .global _sqrt
    2851                      .global _pow
    2852                      .global _EST_getFlux_pu
    2853                      .global __IQ30toF
    2854                      .global _modf
    2855                      .global _log
    2856                      .global _EST_getRs_Ohm
    2857                      .global _EST_getLs_coarse_max_pu
TMS320C2000 Assembler PC v6.4.9 Wed Dec 02 17:22:59 2015

Tools Copyright (c) 1996-2015 Texas Instruments Incorporated
C:\Users\ywcheng\AppData\Local\Temp\5601210                          PAGE   58

    2858                      .global _EST_getLs_d_pu
    2859                      .global _EST_getLs_d_H
    2860                      .global _EST_getLs_q_pu
    2861                      .global _EST_getLs_q_H
    2862                      .global FS$$MPY
    2863                      .global FS$$DIV
    2864                      .global I$$TOFS
    2865                      .global FD$$MPY
    2866                      .global FS$$TOFD
    2867                      .global FS$$CMP
    2868                      .global FS$$ADD
    2869                      .global FS$$TOI
    2870                      .global FD$$TOL
    2871                      .global FS$$NEG
    2872              
    2873              ;***************************************************************
    2874              ;* TYPE INFORMATION                                            *
    2875              ;***************************************************************
    2876              
    2877              $C$DW$T$25      .dwtag  DW_TAG_enumeration_type
    2878                      .dwattr $C$DW$T$25, DW_AT_byte_size(0x01)
    2879              $C$DW$243       .dwtag  DW_TAG_enumerator, DW_AT_name("CTRL_State_Error"), DW_AT_const_value(0x00)
    2880              $C$DW$244       .dwtag  DW_TAG_enumerator, DW_AT_name("CTRL_State_Idle"), DW_AT_const_value(0x01)
    2881              $C$DW$245       .dwtag  DW_TAG_enumerator, DW_AT_name("CTRL_State_OffLine"), DW_AT_const_value(0x02)
    2882              $C$DW$246       .dwtag  DW_TAG_enumerator, DW_AT_name("CTRL_State_OnLine"), DW_AT_const_value(0x03)
    2883              $C$DW$247       .dwtag  DW_TAG_enumerator, DW_AT_name("CTRL_numStates"), DW_AT_const_value(0x04)
    2884                      .dwendtag $C$DW$T$25
    2885              
    2886              $C$DW$T$26      .dwtag  DW_TAG_typedef, DW_AT_name("CTRL_State_e")
    2887                      .dwattr $C$DW$T$26, DW_AT_type(*$C$DW$T$25)
    2888                      .dwattr $C$DW$T$26, DW_AT_language(DW_LANG_C)
    2889              
    2890              $C$DW$T$27      .dwtag  DW_TAG_enumeration_type
    2891                      .dwattr $C$DW$T$27, DW_AT_byte_size(0x01)
    2892              $C$DW$248       .dwtag  DW_TAG_enumerator, DW_AT_name("CTRL_ErrorCode_NoError"), DW_AT_const_value(0x00)
    2893              $C$DW$249       .dwtag  DW_TAG_enumerator, DW_AT_name("CTRL_ErrorCode_IdClip"), DW_AT_const_value(0x01)
    2894              $C$DW$250       .dwtag  DW_TAG_enumerator, DW_AT_name("CTRL_ErrorCode_EstError"), DW_AT_const_value(0x02)
    2895              $C$DW$251       .dwtag  DW_TAG_enumerator, DW_AT_name("CTRL_numErrorCodes"), DW_AT_const_value(0x03)
    2896                      .dwendtag $C$DW$T$27
    2897              
    2898              $C$DW$T$28      .dwtag  DW_TAG_typedef, DW_AT_name("CTRL_ErrorCode_e")
    2899                      .dwattr $C$DW$T$28, DW_AT_type(*$C$DW$T$27)
    2900                      .dwattr $C$DW$T$28, DW_AT_language(DW_LANG_C)
    2901              
    2902              $C$DW$T$58      .dwtag  DW_TAG_enumeration_type
    2903                      .dwattr $C$DW$T$58, DW_AT_byte_size(0x01)
    2904              $C$DW$252       .dwtag  DW_TAG_enumerator, DW_AT_name("CTRL_TargetProc_2806x"), DW_AT_const_value(0x00)
    2905              $C$DW$253       .dwtag  DW_TAG_enumerator, DW_AT_name("CTRL_TargetProc_2805x"), DW_AT_const_value(0x01)
    2906              $C$DW$254       .dwtag  DW_TAG_enumerator, DW_AT_name("CTRL_TargetProc_2803x"), DW_AT_const_value(0x02)
    2907              $C$DW$255       .dwtag  DW_TAG_enumerator, DW_AT_name("CTRL_TargetProc_2802x"), DW_AT_const_value(0x03)
    2908              $C$DW$256       .dwtag  DW_TAG_enumerator, DW_AT_name("CTRL_TargetProc_Unknown"), DW_AT_const_value(0x04)
    2909                      .dwendtag $C$DW$T$58
    2910              
    2911              $C$DW$T$59      .dwtag  DW_TAG_typedef, DW_AT_name("CTRL_TargetProc_e")
    2912                      .dwattr $C$DW$T$59, DW_AT_type(*$C$DW$T$58)
TMS320C2000 Assembler PC v6.4.9 Wed Dec 02 17:22:59 2015

Tools Copyright (c) 1996-2015 Texas Instruments Incorporated
C:\Users\ywcheng\AppData\Local\Temp\5601210                          PAGE   59

    2913                      .dwattr $C$DW$T$59, DW_AT_language(DW_LANG_C)
    2914              
    2915              $C$DW$T$64      .dwtag  DW_TAG_enumeration_type
    2916                      .dwattr $C$DW$T$64, DW_AT_byte_size(0x01)
    2917              $C$DW$257       .dwtag  DW_TAG_enumerator, DW_AT_name("MOTOR_Type_Induction"), DW_AT_const_value(0x00)
    2918              $C$DW$258       .dwtag  DW_TAG_enumerator, DW_AT_name("MOTOR_Type_Pm"), DW_AT_const_value(0x01)
    2919                      .dwendtag $C$DW$T$64
    2920              
    2921              $C$DW$T$65      .dwtag  DW_TAG_typedef, DW_AT_name("MOTOR_Type_e")
    2922                      .dwattr $C$DW$T$65, DW_AT_type(*$C$DW$T$64)
    2923                      .dwattr $C$DW$T$65, DW_AT_language(DW_LANG_C)
    2924              
    2925              $C$DW$T$74      .dwtag  DW_TAG_enumeration_type
    2926                      .dwattr $C$DW$T$74, DW_AT_byte_size(0x01)
    2927              $C$DW$259       .dwtag  DW_TAG_enumerator, DW_AT_name("USER_ErrorCode_NoError"), DW_AT_const_value(0x00)
    2928              $C$DW$260       .dwtag  DW_TAG_enumerator, DW_AT_name("USER_ErrorCode_iqFullScaleCurrent_A_High"), DW_AT_cons
    2929              $C$DW$261       .dwtag  DW_TAG_enumerator, DW_AT_name("USER_ErrorCode_iqFullScaleCurrent_A_Low"), DW_AT_const
    2930              $C$DW$262       .dwtag  DW_TAG_enumerator, DW_AT_name("USER_ErrorCode_iqFullScaleVoltage_V_High"), DW_AT_cons
    2931              $C$DW$263       .dwtag  DW_TAG_enumerator, DW_AT_name("USER_ErrorCode_iqFullScaleVoltage_V_Low"), DW_AT_const
    2932              $C$DW$264       .dwtag  DW_TAG_enumerator, DW_AT_name("USER_ErrorCode_iqFullScaleFreq_Hz_High"), DW_AT_const_
    2933              $C$DW$265       .dwtag  DW_TAG_enumerator, DW_AT_name("USER_ErrorCode_iqFullScaleFreq_Hz_Low"), DW_AT_const_v
    2934              $C$DW$266       .dwtag  DW_TAG_enumerator, DW_AT_name("USER_ErrorCode_numPwmTicksPerIsrTick_High"), DW_AT_con
    2935              $C$DW$267       .dwtag  DW_TAG_enumerator, DW_AT_name("USER_ErrorCode_numPwmTicksPerIsrTick_Low"), DW_AT_cons
    2936              $C$DW$268       .dwtag  DW_TAG_enumerator, DW_AT_name("USER_ErrorCode_numIsrTicksPerCtrlTick_High"), DW_AT_co
    2937              $C$DW$269       .dwtag  DW_TAG_enumerator, DW_AT_name("USER_ErrorCode_numIsrTicksPerCtrlTick_Low"), DW_AT_con
    2938              $C$DW$270       .dwtag  DW_TAG_enumerator, DW_AT_name("USER_ErrorCode_numCtrlTicksPerCurrentTick_High"), DW_A
    2939              $C$DW$271       .dwtag  DW_TAG_enumerator, DW_AT_name("USER_ErrorCode_numCtrlTicksPerCurrentTick_Low"), DW_AT
    2940              $C$DW$272       .dwtag  DW_TAG_enumerator, DW_AT_name("USER_ErrorCode_numCtrlTicksPerEstTick_High"), DW_AT_co
    2941              $C$DW$273       .dwtag  DW_TAG_enumerator, DW_AT_name("USER_ErrorCode_numCtrlTicksPerEstTick_Low"), DW_AT_con
    2942              $C$DW$274       .dwtag  DW_TAG_enumerator, DW_AT_name("USER_ErrorCode_numCtrlTicksPerSpeedTick_High"), DW_AT_
    2943              $C$DW$275       .dwtag  DW_TAG_enumerator, DW_AT_name("USER_ErrorCode_numCtrlTicksPerSpeedTick_Low"), DW_AT_c
    2944              $C$DW$276       .dwtag  DW_TAG_enumerator, DW_AT_name("USER_ErrorCode_numCtrlTicksPerTrajTick_High"), DW_AT_c
    2945              $C$DW$277       .dwtag  DW_TAG_enumerator, DW_AT_name("USER_ErrorCode_numCtrlTicksPerTrajTick_Low"), DW_AT_co
    2946              $C$DW$278       .dwtag  DW_TAG_enumerator, DW_AT_name("USER_ErrorCode_numCurrentSensors_High"), DW_AT_const_v
    2947              $C$DW$279       .dwtag  DW_TAG_enumerator, DW_AT_name("USER_ErrorCode_numCurrentSensors_Low"), DW_AT_const_va
    2948              $C$DW$280       .dwtag  DW_TAG_enumerator, DW_AT_name("USER_ErrorCode_numVoltageSensors_High"), DW_AT_const_v
    2949              $C$DW$281       .dwtag  DW_TAG_enumerator, DW_AT_name("USER_ErrorCode_numVoltageSensors_Low"), DW_AT_const_va
    2950              $C$DW$282       .dwtag  DW_TAG_enumerator, DW_AT_name("USER_ErrorCode_offsetPole_rps_High"), DW_AT_const_valu
    2951              $C$DW$283       .dwtag  DW_TAG_enumerator, DW_AT_name("USER_ErrorCode_offsetPole_rps_Low"), DW_AT_const_value
    2952              $C$DW$284       .dwtag  DW_TAG_enumerator, DW_AT_name("USER_ErrorCode_fluxPole_rps_High"), DW_AT_const_value(
    2953              $C$DW$285       .dwtag  DW_TAG_enumerator, DW_AT_name("USER_ErrorCode_fluxPole_rps_Low"), DW_AT_const_value(0
    2954              $C$DW$286       .dwtag  DW_TAG_enumerator, DW_AT_name("USER_ErrorCode_zeroSpeedLimit_High"), DW_AT_const_valu
    2955              $C$DW$287       .dwtag  DW_TAG_enumerator, DW_AT_name("USER_ErrorCode_zeroSpeedLimit_Low"), DW_AT_const_value
    2956              $C$DW$288       .dwtag  DW_TAG_enumerator, DW_AT_name("USER_ErrorCode_forceAngleFreq_Hz_High"), DW_AT_const_v
    2957              $C$DW$289       .dwtag  DW_TAG_enumerator, DW_AT_name("USER_ErrorCode_forceAngleFreq_Hz_Low"), DW_AT_const_va
    2958              $C$DW$290       .dwtag  DW_TAG_enumerator, DW_AT_name("USER_ErrorCode_maxAccel_Hzps_High"), DW_AT_const_value
    2959              $C$DW$291       .dwtag  DW_TAG_enumerator, DW_AT_name("USER_ErrorCode_maxAccel_Hzps_Low"), DW_AT_const_value(
    2960              $C$DW$292       .dwtag  DW_TAG_enumerator, DW_AT_name("USER_ErrorCode_maxAccel_est_Hzps_High"), DW_AT_const_v
    2961              $C$DW$293       .dwtag  DW_TAG_enumerator, DW_AT_name("USER_ErrorCode_maxAccel_est_Hzps_Low"), DW_AT_const_va
    2962              $C$DW$294       .dwtag  DW_TAG_enumerator, DW_AT_name("USER_ErrorCode_directionPole_rps_High"), DW_AT_const_v
    2963              $C$DW$295       .dwtag  DW_TAG_enumerator, DW_AT_name("USER_ErrorCode_directionPole_rps_Low"), DW_AT_const_va
    2964              $C$DW$296       .dwtag  DW_TAG_enumerator, DW_AT_name("USER_ErrorCode_speedPole_rps_High"), DW_AT_const_value
    2965              $C$DW$297       .dwtag  DW_TAG_enumerator, DW_AT_name("USER_ErrorCode_speedPole_rps_Low"), DW_AT_const_value(
    2966              $C$DW$298       .dwtag  DW_TAG_enumerator, DW_AT_name("USER_ErrorCode_dcBusPole_rps_High"), DW_AT_const_value
    2967              $C$DW$299       .dwtag  DW_TAG_enumerator, DW_AT_name("USER_ErrorCode_dcBusPole_rps_Low"), DW_AT_const_value(
TMS320C2000 Assembler PC v6.4.9 Wed Dec 02 17:22:59 2015

Tools Copyright (c) 1996-2015 Texas Instruments Incorporated
C:\Users\ywcheng\AppData\Local\Temp\5601210                          PAGE   60

    2968              $C$DW$300       .dwtag  DW_TAG_enumerator, DW_AT_name("USER_ErrorCode_fluxFraction_High"), DW_AT_const_value(
    2969              $C$DW$301       .dwtag  DW_TAG_enumerator, DW_AT_name("USER_ErrorCode_fluxFraction_Low"), DW_AT_const_value(0
    2970              $C$DW$302       .dwtag  DW_TAG_enumerator, DW_AT_name("USER_ErrorCode_indEst_speedMaxFraction_High"), DW_AT_c
    2971              $C$DW$303       .dwtag  DW_TAG_enumerator, DW_AT_name("USER_ErrorCode_indEst_speedMaxFraction_Low"), DW_AT_co
    2972              $C$DW$304       .dwtag  DW_TAG_enumerator, DW_AT_name("USER_ErrorCode_powerWarpGain_High"), DW_AT_const_value
    2973              $C$DW$305       .dwtag  DW_TAG_enumerator, DW_AT_name("USER_ErrorCode_powerWarpGain_Low"), DW_AT_const_value(
    2974              $C$DW$306       .dwtag  DW_TAG_enumerator, DW_AT_name("USER_ErrorCode_systemFreq_MHz_High"), DW_AT_const_valu
    2975              $C$DW$307       .dwtag  DW_TAG_enumerator, DW_AT_name("USER_ErrorCode_systemFreq_MHz_Low"), DW_AT_const_value
    2976              $C$DW$308       .dwtag  DW_TAG_enumerator, DW_AT_name("USER_ErrorCode_pwmFreq_kHz_High"), DW_AT_const_value(0
    2977              $C$DW$309       .dwtag  DW_TAG_enumerator, DW_AT_name("USER_ErrorCode_pwmFreq_kHz_Low"), DW_AT_const_value(0x
    2978              $C$DW$310       .dwtag  DW_TAG_enumerator, DW_AT_name("USER_ErrorCode_voltage_sf_High"), DW_AT_const_value(0x
    2979              $C$DW$311       .dwtag  DW_TAG_enumerator, DW_AT_name("USER_ErrorCode_voltage_sf_Low"), DW_AT_const_value(0x3
    2980              $C$DW$312       .dwtag  DW_TAG_enumerator, DW_AT_name("USER_ErrorCode_current_sf_High"), DW_AT_const_value(0x
    2981              $C$DW$313       .dwtag  DW_TAG_enumerator, DW_AT_name("USER_ErrorCode_current_sf_Low"), DW_AT_const_value(0x3
    2982              $C$DW$314       .dwtag  DW_TAG_enumerator, DW_AT_name("USER_ErrorCode_voltageFilterPole_Hz_High"), DW_AT_cons
    2983              $C$DW$315       .dwtag  DW_TAG_enumerator, DW_AT_name("USER_ErrorCode_voltageFilterPole_Hz_Low"), DW_AT_const
